Archive member included because of file (symbol)

../ecrobot/../ecrobot/libecrobot++.a(I2c.o)
                              build/main.o (_ZN7ecrobot3I2cD2Ev)
../ecrobot/../ecrobot/libecrobot++.a(Lcd.o)
                              build/main.o (_ZN7ecrobot3LcdC1Ev)
../ecrobot/../ecrobot/libecrobot++.a(LightSensor.o)
                              build/main.o (_ZN7ecrobot11LightSensorD1Ev)
../ecrobot/../ecrobot/libecrobot++.a(Motor.o)
                              build/main.o (_ZN7ecrobot5MotorC1E6ePortMb)
../ecrobot/../ecrobot/libecrobot++.a(SonarSensor.o)
                              build/main.o (_ZN7ecrobot11SonarSensorC1E6ePortS)
../ecrobot/../ecrobot/libecrobot++.a(TouchSensor.o)
                              build/main.o (_ZN7ecrobot11TouchSensorC1E6ePortS)
../ecrobot/../ecrobot/libecrobot++.a(New.o)
                              build/MEXU.o (_Znwm)
../ecrobot/../ecrobot/libecrobot.a(ecrobot_device_hook.o)
                              build/ecrobot.o (ecrobot_device_initialize)
../ecrobot/../ecrobot/libecrobot.a(ecrobot_interface.o)
                              build/ecrobot_base.o (ecrobot_get_battery_voltage)
../ecrobot/../ecrobot/libecrobot.a(colorsensor.o)
                              ../ecrobot/../ecrobot/libecrobot.a(ecrobot_interface.o) (colorsensor_init)
../ecrobot/../ecrobot/libecrobot.a(uart.oram)
                              build/config/armv4/at91sam7s/irq.oram (uart_isr_C_0)
../ecrobot/../ecrobot/libecrobot.a(systick.oram)
                              build/config/armv4/at91sam7s/irq.oram (systick_low_priority_C)
../ecrobot/../ecrobot/libecrobot.a(byte_fifo.oram)
                              ../ecrobot/../ecrobot/libecrobot.a(uart.oram) (byte_fifo_put)
../ecrobot/../ecrobot/libecrobot.a(aic.oram)
                              ../ecrobot/../ecrobot/libecrobot.a(uart.oram) (aic_set_vector)
../ecrobot/../ecrobot/libecrobot.a(udp.oram)
                              build/config/armv4/at91sam7s/irq.oram (udp_isr_C)
../ecrobot/../ecrobot/libecrobot.a(twi.oram)
                              build/config/armv4/at91sam7s/irq.oram (twi_isr_C)
../ecrobot/../ecrobot/libecrobot.a(nxt_spi.oram)
                              build/config/armv4/at91sam7s/irq.oram (spi_isr_C)
../ecrobot/../ecrobot/libecrobot.a(nxt_motors.oram)
                              ../ecrobot/../ecrobot/libecrobot.a(ecrobot_interface.o) (nxt_motor_get_count)
../ecrobot/../ecrobot/libecrobot.a(data_abort.oram)
                              build/ecrobot_init.o (data_abort_C)
../ecrobot/../ecrobot/libecrobot.a(display.oram)
                              build/rtoscalls.o (display_update)
../ecrobot/../ecrobot/libecrobot.a(i2c.oram)
                              build/config/armv4/at91sam7s/irq.oram (i2c_timer_isr_C)
../ecrobot/../ecrobot/libecrobot.a(sound.oram)
                              ../ecrobot/../ecrobot/libecrobot.a(ecrobot_interface.o) (sound_get_time)
../ecrobot/../ecrobot/libecrobot.a(bt.oram)
                              build/ecrobot_bluetooth.o (bt_send)
../ecrobot/../ecrobot/libecrobot.a(nxt_avr.oram)
                              build/ecrobot_base.o (nxt_avr_power_down)
../ecrobot/../ecrobot/libecrobot.a(sensors.oram)
                              ../ecrobot/../ecrobot/libecrobot++.a(LightSensor.o) (unset_digi0)
../ecrobot/../ecrobot/libecrobot.a(sensors1.oram)
                              ../ecrobot/../ecrobot/libecrobot.a(colorsensor.o) (sensor_pins)
../ecrobot/../ecrobot/libecrobot.a(nxt_lcd.oram)
                              ../ecrobot/../ecrobot/libecrobot.a(display.oram) (nxt_lcd_force_update)
../ecrobot/../ecrobot/libecrobot.a(flash_loader.oram)
                              build/ecrobot_base.o (set_flash_request)
../ecrobot/../ecrobot/libecrobot.a(interrupts.oram)
                              build/ecrobot.o (interrupts_get_and_disable)
../ecrobot/../ecrobot/libecrobot.a(nxtjsp_splash.obmp)
                              build/ecrobot_base.o (nxtjsp_splash_bmp_start)
../ecrobot/../ecrobot/libecrobot.a(ecrobot_usb.o)
                              ../ecrobot/../ecrobot/libecrobot.a(flash_loader.oram) (ecrobot_init_usb)
../ecrobot/../ecrobot/libecrobot.a(flashprog.oram)
                              ../ecrobot/../ecrobot/libecrobot.a(flash_loader.oram) (flash_write_page)
/vagrant/gnuarm/lib/gcc/arm-elf/4.4.2/../../../../arm-elf/lib/thumb/interwork/libstdc++.a(pure.o)
                              build/MEXU.o (__cxa_pure_virtual)
/vagrant/gnuarm/lib/gcc/arm-elf/4.4.2/../../../../arm-elf/lib/thumb/interwork/libstdc++.a(eh_personality.o)
                              /vagrant/gnuarm/lib/gcc/arm-elf/4.4.2/../../../../arm-elf/lib/thumb/interwork/libstdc++.a(pure.o) (__gxx_personality_sj0)
/vagrant/gnuarm/lib/gcc/arm-elf/4.4.2/../../../../arm-elf/lib/thumb/interwork/libstdc++.a(eh_terminate.o)
                              /vagrant/gnuarm/lib/gcc/arm-elf/4.4.2/../../../../arm-elf/lib/thumb/interwork/libstdc++.a(eh_personality.o) (_ZN10__cxxabiv111__terminateEPFvvE)
/vagrant/gnuarm/lib/gcc/arm-elf/4.4.2/../../../../arm-elf/lib/thumb/interwork/libstdc++.a(eh_throw.o)
                              /vagrant/gnuarm/lib/gcc/arm-elf/4.4.2/../../../../arm-elf/lib/thumb/interwork/libstdc++.a(eh_personality.o) (__cxa_rethrow)
/vagrant/gnuarm/lib/gcc/arm-elf/4.4.2/../../../../arm-elf/lib/thumb/interwork/libstdc++.a(eh_unex_handler.o)
                              /vagrant/gnuarm/lib/gcc/arm-elf/4.4.2/../../../../arm-elf/lib/thumb/interwork/libstdc++.a(eh_terminate.o) (_ZN10__cxxabiv120__unexpected_handlerE)
/vagrant/gnuarm/lib/gcc/arm-elf/4.4.2/../../../../arm-elf/lib/thumb/interwork/libstdc++.a(eh_alloc.o)
                              /vagrant/gnuarm/lib/gcc/arm-elf/4.4.2/../../../../arm-elf/lib/thumb/interwork/libstdc++.a(eh_throw.o) (__cxa_free_exception)
/vagrant/gnuarm/lib/gcc/arm-elf/4.4.2/../../../../arm-elf/lib/thumb/interwork/libstdc++.a(eh_call.o)
                              /vagrant/gnuarm/lib/gcc/arm-elf/4.4.2/../../../../arm-elf/lib/thumb/interwork/libstdc++.a(eh_personality.o) (__cxa_call_terminate)
/vagrant/gnuarm/lib/gcc/arm-elf/4.4.2/../../../../arm-elf/lib/thumb/interwork/libstdc++.a(eh_catch.o)
                              /vagrant/gnuarm/lib/gcc/arm-elf/4.4.2/../../../../arm-elf/lib/thumb/interwork/libstdc++.a(eh_personality.o) (__cxa_end_catch)
/vagrant/gnuarm/lib/gcc/arm-elf/4.4.2/../../../../arm-elf/lib/thumb/interwork/libstdc++.a(eh_exception.o)
                              /vagrant/gnuarm/lib/gcc/arm-elf/4.4.2/../../../../arm-elf/lib/thumb/interwork/libstdc++.a(eh_personality.o) (_ZNSt13bad_exceptionD1Ev)
/vagrant/gnuarm/lib/gcc/arm-elf/4.4.2/../../../../arm-elf/lib/thumb/interwork/libstdc++.a(eh_globals.o)
                              /vagrant/gnuarm/lib/gcc/arm-elf/4.4.2/../../../../arm-elf/lib/thumb/interwork/libstdc++.a(eh_personality.o) (__cxa_get_globals_fast)
/vagrant/gnuarm/lib/gcc/arm-elf/4.4.2/../../../../arm-elf/lib/thumb/interwork/libstdc++.a(eh_term_handler.o)
                              /vagrant/gnuarm/lib/gcc/arm-elf/4.4.2/../../../../arm-elf/lib/thumb/interwork/libstdc++.a(eh_terminate.o) (_ZN10__cxxabiv119__terminate_handlerE)
/vagrant/gnuarm/lib/gcc/arm-elf/4.4.2/../../../../arm-elf/lib/thumb/interwork/libstdc++.a(si_class_type_info.o)
                              /vagrant/gnuarm/lib/gcc/arm-elf/4.4.2/../../../../arm-elf/lib/thumb/interwork/libstdc++.a(eh_exception.o) (_ZTVN10__cxxabiv120__si_class_type_infoE)
/vagrant/gnuarm/lib/gcc/arm-elf/4.4.2/../../../../arm-elf/lib/thumb/interwork/libstdc++.a(tinfo.o)
                              /vagrant/gnuarm/lib/gcc/arm-elf/4.4.2/../../../../arm-elf/lib/thumb/interwork/libstdc++.a(si_class_type_info.o) (_ZNKSt9type_info14__is_pointer_pEv)
/vagrant/gnuarm/lib/gcc/arm-elf/4.4.2/../../../../arm-elf/lib/thumb/interwork/libstdc++.a(vterminate.o)
                              /vagrant/gnuarm/lib/gcc/arm-elf/4.4.2/../../../../arm-elf/lib/thumb/interwork/libstdc++.a(eh_term_handler.o) (_ZN9__gnu_cxx27__verbose_terminate_handlerEv)
/vagrant/gnuarm/lib/gcc/arm-elf/4.4.2/../../../../arm-elf/lib/thumb/interwork/libstdc++.a(class_type_info.o)
                              /vagrant/gnuarm/lib/gcc/arm-elf/4.4.2/../../../../arm-elf/lib/thumb/interwork/libstdc++.a(si_class_type_info.o) (_ZNK10__cxxabiv117__class_type_info10__do_catchEPKSt9type_infoPPvj)
/vagrant/gnuarm/lib/gcc/arm-elf/4.4.2/../../../../arm-elf/lib/thumb/interwork/libstdc++.a(cp-demangle.o)
                              /vagrant/gnuarm/lib/gcc/arm-elf/4.4.2/../../../../arm-elf/lib/thumb/interwork/libstdc++.a(vterminate.o) (__cxa_demangle)
/vagrant/gnuarm/lib/gcc/arm-elf/4.4.2/../../../../arm-elf/lib/thumb/interwork/libstdc++.a(eh_type.o)
                              /vagrant/gnuarm/lib/gcc/arm-elf/4.4.2/../../../../arm-elf/lib/thumb/interwork/libstdc++.a(vterminate.o) (__cxa_current_exception_type)
/vagrant/gnuarm/lib/gcc/arm-elf/4.4.2/thumb/interwork/libgcc.a(_udivsi3.o)
                              build/ecrobot_base.o (__udivsi3)
/vagrant/gnuarm/lib/gcc/arm-elf/4.4.2/thumb/interwork/libgcc.a(_divsi3.o)
                              ../ecrobot/../ecrobot/libecrobot.a(uart.oram) (__divsi3)
/vagrant/gnuarm/lib/gcc/arm-elf/4.4.2/thumb/interwork/libgcc.a(_umodsi3.o)
                              build/kernel/mempfix.o (__umodsi3)
/vagrant/gnuarm/lib/gcc/arm-elf/4.4.2/thumb/interwork/libgcc.a(_modsi3.o)
                              ../ecrobot/../ecrobot/libecrobot.a(sound.oram) (__modsi3)
/vagrant/gnuarm/lib/gcc/arm-elf/4.4.2/thumb/interwork/libgcc.a(_dvmd_tls.o)
                              /vagrant/gnuarm/lib/gcc/arm-elf/4.4.2/thumb/interwork/libgcc.a(_udivsi3.o) (__div0)
/vagrant/gnuarm/lib/gcc/arm-elf/4.4.2/thumb/interwork/libgcc.a(_arm_addsubdf3.o)
                              ../ecrobot/../ecrobot/libecrobot.a(colorsensor.o) (__floatsidf)
/vagrant/gnuarm/lib/gcc/arm-elf/4.4.2/thumb/interwork/libgcc.a(_arm_muldivdf3.o)
                              ../ecrobot/../ecrobot/libecrobot.a(colorsensor.o) (__muldf3)
/vagrant/gnuarm/lib/gcc/arm-elf/4.4.2/thumb/interwork/libgcc.a(_arm_cmpdf2.o)
                              ../ecrobot/../ecrobot/libecrobot.a(colorsensor.o) (__gtdf2)
/vagrant/gnuarm/lib/gcc/arm-elf/4.4.2/thumb/interwork/libgcc.a(_muldi3.o)
                              ../ecrobot/../ecrobot/libecrobot.a(sound.oram) (__muldi3)
/vagrant/gnuarm/lib/gcc/arm-elf/4.4.2/thumb/interwork/libgcc.a(_divdi3.o)
                              ../ecrobot/../ecrobot/libecrobot.a(sound.oram) (__divdi3)
/vagrant/gnuarm/lib/gcc/arm-elf/4.4.2/thumb/interwork/libgcc.a(unwind-sjlj.o)
                              /vagrant/gnuarm/lib/gcc/arm-elf/4.4.2/../../../../arm-elf/lib/thumb/interwork/libstdc++.a(eh_personality.o) (_Unwind_SjLj_Register)
/vagrant/gnuarm/lib/gcc/arm-elf/4.4.2/thumb/interwork/libgcc.a(_clzsi2.o)
                              /vagrant/gnuarm/lib/gcc/arm-elf/4.4.2/thumb/interwork/libgcc.a(_divdi3.o) (__clzsi2)
/vagrant/gnuarm/lib/gcc/arm-elf/4.4.2/../../../../arm-elf/lib/thumb/interwork/libc.a(lib_a-abort.o)
                              /vagrant/gnuarm/lib/gcc/arm-elf/4.4.2/../../../../arm-elf/lib/thumb/interwork/libstdc++.a(eh_personality.o) (abort)
/vagrant/gnuarm/lib/gcc/arm-elf/4.4.2/../../../../arm-elf/lib/thumb/interwork/libc.a(lib_a-fputc.o)
                              /vagrant/gnuarm/lib/gcc/arm-elf/4.4.2/../../../../arm-elf/lib/thumb/interwork/libstdc++.a(vterminate.o) (fputc)
/vagrant/gnuarm/lib/gcc/arm-elf/4.4.2/../../../../arm-elf/lib/thumb/interwork/libc.a(lib_a-fputs.o)
                              /vagrant/gnuarm/lib/gcc/arm-elf/4.4.2/../../../../arm-elf/lib/thumb/interwork/libstdc++.a(vterminate.o) (fputs)
/vagrant/gnuarm/lib/gcc/arm-elf/4.4.2/../../../../arm-elf/lib/thumb/interwork/libc.a(lib_a-fvwrite.o)
                              /vagrant/gnuarm/lib/gcc/arm-elf/4.4.2/../../../../arm-elf/lib/thumb/interwork/libc.a(lib_a-fputs.o) (__sfvwrite_r)
/vagrant/gnuarm/lib/gcc/arm-elf/4.4.2/../../../../arm-elf/lib/thumb/interwork/libc.a(lib_a-fwrite.o)
                              /vagrant/gnuarm/lib/gcc/arm-elf/4.4.2/../../../../arm-elf/lib/thumb/interwork/libstdc++.a(vterminate.o) (fwrite)
/vagrant/gnuarm/lib/gcc/arm-elf/4.4.2/../../../../arm-elf/lib/thumb/interwork/libc.a(lib_a-impure.o)
                              /vagrant/gnuarm/lib/gcc/arm-elf/4.4.2/../../../../arm-elf/lib/thumb/interwork/libstdc++.a(vterminate.o) (_impure_ptr)
/vagrant/gnuarm/lib/gcc/arm-elf/4.4.2/../../../../arm-elf/lib/thumb/interwork/libc.a(lib_a-malloc.o)
                              ../ecrobot/../ecrobot/libecrobot++.a(New.o) (free)
/vagrant/gnuarm/lib/gcc/arm-elf/4.4.2/../../../../arm-elf/lib/thumb/interwork/libc.a(lib_a-mallocr.o)
                              /vagrant/gnuarm/lib/gcc/arm-elf/4.4.2/../../../../arm-elf/lib/thumb/interwork/libc.a(lib_a-fvwrite.o) (_malloc_r)
/vagrant/gnuarm/lib/gcc/arm-elf/4.4.2/../../../../arm-elf/lib/thumb/interwork/libc.a(lib_a-memchr.o)
                              /vagrant/gnuarm/lib/gcc/arm-elf/4.4.2/../../../../arm-elf/lib/thumb/interwork/libc.a(lib_a-fvwrite.o) (memchr)
/vagrant/gnuarm/lib/gcc/arm-elf/4.4.2/../../../../arm-elf/lib/thumb/interwork/libc.a(lib_a-memcmp.o)
                              /vagrant/gnuarm/lib/gcc/arm-elf/4.4.2/../../../../arm-elf/lib/thumb/interwork/libstdc++.a(cp-demangle.o) (memcmp)
/vagrant/gnuarm/lib/gcc/arm-elf/4.4.2/../../../../arm-elf/lib/thumb/interwork/libc.a(lib_a-memcpy.o)
                              ../ecrobot/../ecrobot/libecrobot.a(udp.oram) (memcpy)
/vagrant/gnuarm/lib/gcc/arm-elf/4.4.2/../../../../arm-elf/lib/thumb/interwork/libc.a(lib_a-memmove.o)
                              /vagrant/gnuarm/lib/gcc/arm-elf/4.4.2/../../../../arm-elf/lib/thumb/interwork/libc.a(lib_a-fvwrite.o) (memmove)
/vagrant/gnuarm/lib/gcc/arm-elf/4.4.2/../../../../arm-elf/lib/thumb/interwork/libc.a(lib_a-memset.o)
                              build/ecrobot_bluetooth.o (memset)
/vagrant/gnuarm/lib/gcc/arm-elf/4.4.2/../../../../arm-elf/lib/thumb/interwork/libc.a(lib_a-mlock.o)
                              /vagrant/gnuarm/lib/gcc/arm-elf/4.4.2/../../../../arm-elf/lib/thumb/interwork/libc.a(lib_a-mallocr.o) (__malloc_lock)
/vagrant/gnuarm/lib/gcc/arm-elf/4.4.2/../../../../arm-elf/lib/thumb/interwork/libc.a(lib_a-putc.o)
                              /vagrant/gnuarm/lib/gcc/arm-elf/4.4.2/../../../../arm-elf/lib/thumb/interwork/libc.a(lib_a-fputc.o) (_putc_r)
/vagrant/gnuarm/lib/gcc/arm-elf/4.4.2/../../../../arm-elf/lib/thumb/interwork/libc.a(lib_a-realloc.o)
                              /vagrant/gnuarm/lib/gcc/arm-elf/4.4.2/../../../../arm-elf/lib/thumb/interwork/libstdc++.a(cp-demangle.o) (realloc)
/vagrant/gnuarm/lib/gcc/arm-elf/4.4.2/../../../../arm-elf/lib/thumb/interwork/libc.a(lib_a-reallocr.o)
                              /vagrant/gnuarm/lib/gcc/arm-elf/4.4.2/../../../../arm-elf/lib/thumb/interwork/libc.a(lib_a-fvwrite.o) (_realloc_r)
/vagrant/gnuarm/lib/gcc/arm-elf/4.4.2/../../../../arm-elf/lib/thumb/interwork/libc.a(lib_a-signal.o)
                              /vagrant/gnuarm/lib/gcc/arm-elf/4.4.2/../../../../arm-elf/lib/thumb/interwork/libc.a(lib_a-abort.o) (raise)
/vagrant/gnuarm/lib/gcc/arm-elf/4.4.2/../../../../arm-elf/lib/thumb/interwork/libc.a(lib_a-signalr.o)
                              /vagrant/gnuarm/lib/gcc/arm-elf/4.4.2/../../../../arm-elf/lib/thumb/interwork/libc.a(lib_a-signal.o) (_getpid_r)
/vagrant/gnuarm/lib/gcc/arm-elf/4.4.2/../../../../arm-elf/lib/thumb/interwork/libc.a(lib_a-sprintf.o)
                              /vagrant/gnuarm/lib/gcc/arm-elf/4.4.2/../../../../arm-elf/lib/thumb/interwork/libstdc++.a(cp-demangle.o) (sprintf)
/vagrant/gnuarm/lib/gcc/arm-elf/4.4.2/../../../../arm-elf/lib/thumb/interwork/libc.a(lib_a-strcmp.o)
                              ../ecrobot/../ecrobot/libecrobot.a(flash_loader.oram) (strcmp)
/vagrant/gnuarm/lib/gcc/arm-elf/4.4.2/../../../../arm-elf/lib/thumb/interwork/libc.a(lib_a-strcpy.o)
                              build/ecrobot_base.o (strcpy)
/vagrant/gnuarm/lib/gcc/arm-elf/4.4.2/../../../../arm-elf/lib/thumb/interwork/libc.a(lib_a-strlen.o)
                              build/ecrobot_base.o (strlen)
/vagrant/gnuarm/lib/gcc/arm-elf/4.4.2/../../../../arm-elf/lib/thumb/interwork/libc.a(lib_a-strncmp.o)
                              /vagrant/gnuarm/lib/gcc/arm-elf/4.4.2/../../../../arm-elf/lib/thumb/interwork/libstdc++.a(cp-demangle.o) (strncmp)
/vagrant/gnuarm/lib/gcc/arm-elf/4.4.2/../../../../arm-elf/lib/thumb/interwork/libc.a(lib_a-strncpy.o)
                              build/ecrobot_bluetooth.o (strncpy)
/vagrant/gnuarm/lib/gcc/arm-elf/4.4.2/../../../../arm-elf/lib/thumb/interwork/libc.a(lib_a-svfprintf.o)
                              /vagrant/gnuarm/lib/gcc/arm-elf/4.4.2/../../../../arm-elf/lib/thumb/interwork/libc.a(lib_a-sprintf.o) (_svfprintf_r)
/vagrant/gnuarm/lib/gcc/arm-elf/4.4.2/../../../../arm-elf/lib/thumb/interwork/libc.a(lib_a-syscalls.o)
                              /vagrant/gnuarm/lib/gcc/arm-elf/4.4.2/../../../../arm-elf/lib/thumb/interwork/libc.a(lib_a-signalr.o) (_kill)
/vagrant/gnuarm/lib/gcc/arm-elf/4.4.2/../../../../arm-elf/lib/thumb/interwork/libc.a(lib_a-syswrite.o)
                              /vagrant/gnuarm/lib/gcc/arm-elf/4.4.2/../../../../arm-elf/lib/thumb/interwork/libstdc++.a(pure.o) (write)
/vagrant/gnuarm/lib/gcc/arm-elf/4.4.2/../../../../arm-elf/lib/thumb/interwork/libc.a(lib_a-wbuf.o)
                              /vagrant/gnuarm/lib/gcc/arm-elf/4.4.2/../../../../arm-elf/lib/thumb/interwork/libc.a(lib_a-putc.o) (__swbuf_r)
/vagrant/gnuarm/lib/gcc/arm-elf/4.4.2/../../../../arm-elf/lib/thumb/interwork/libc.a(lib_a-writer.o)
                              /vagrant/gnuarm/lib/gcc/arm-elf/4.4.2/../../../../arm-elf/lib/thumb/interwork/libc.a(lib_a-syswrite.o) (_write_r)
/vagrant/gnuarm/lib/gcc/arm-elf/4.4.2/../../../../arm-elf/lib/thumb/interwork/libc.a(lib_a-wsetup.o)
                              /vagrant/gnuarm/lib/gcc/arm-elf/4.4.2/../../../../arm-elf/lib/thumb/interwork/libc.a(lib_a-fvwrite.o) (__swsetup_r)
/vagrant/gnuarm/lib/gcc/arm-elf/4.4.2/../../../../arm-elf/lib/thumb/interwork/libc.a(lib_a-dtoa.o)
                              /vagrant/gnuarm/lib/gcc/arm-elf/4.4.2/../../../../arm-elf/lib/thumb/interwork/libc.a(lib_a-svfprintf.o) (_dtoa_r)
/vagrant/gnuarm/lib/gcc/arm-elf/4.4.2/../../../../arm-elf/lib/thumb/interwork/libc.a(lib_a-errno.o)
                              /vagrant/gnuarm/lib/gcc/arm-elf/4.4.2/../../../../arm-elf/lib/thumb/interwork/libc.a(lib_a-syscalls.o) (__errno)
/vagrant/gnuarm/lib/gcc/arm-elf/4.4.2/../../../../arm-elf/lib/thumb/interwork/libc.a(lib_a-fflush.o)
                              /vagrant/gnuarm/lib/gcc/arm-elf/4.4.2/../../../../arm-elf/lib/thumb/interwork/libc.a(lib_a-fvwrite.o) (_fflush_r)
/vagrant/gnuarm/lib/gcc/arm-elf/4.4.2/../../../../arm-elf/lib/thumb/interwork/libc.a(lib_a-findfp.o)
                              /vagrant/gnuarm/lib/gcc/arm-elf/4.4.2/../../../../arm-elf/lib/thumb/interwork/libc.a(lib_a-fputc.o) (__sinit)
/vagrant/gnuarm/lib/gcc/arm-elf/4.4.2/../../../../arm-elf/lib/thumb/interwork/libc.a(lib_a-freer.o)
                              /vagrant/gnuarm/lib/gcc/arm-elf/4.4.2/../../../../arm-elf/lib/thumb/interwork/libc.a(lib_a-fvwrite.o) (_free_r)
/vagrant/gnuarm/lib/gcc/arm-elf/4.4.2/../../../../arm-elf/lib/thumb/interwork/libc.a(lib_a-fwalk.o)
                              /vagrant/gnuarm/lib/gcc/arm-elf/4.4.2/../../../../arm-elf/lib/thumb/interwork/libc.a(lib_a-fflush.o) (_fwalk_reent)
/vagrant/gnuarm/lib/gcc/arm-elf/4.4.2/../../../../arm-elf/lib/thumb/interwork/libc.a(lib_a-locale.o)
                              /vagrant/gnuarm/lib/gcc/arm-elf/4.4.2/../../../../arm-elf/lib/thumb/interwork/libc.a(lib_a-svfprintf.o) (_localeconv_r)
/vagrant/gnuarm/lib/gcc/arm-elf/4.4.2/../../../../arm-elf/lib/thumb/interwork/libc.a(lib_a-makebuf.o)
                              /vagrant/gnuarm/lib/gcc/arm-elf/4.4.2/../../../../arm-elf/lib/thumb/interwork/libc.a(lib_a-wsetup.o) (__smakebuf_r)
/vagrant/gnuarm/lib/gcc/arm-elf/4.4.2/../../../../arm-elf/lib/thumb/interwork/libc.a(lib_a-mprec.o)
                              /vagrant/gnuarm/lib/gcc/arm-elf/4.4.2/../../../../arm-elf/lib/thumb/interwork/libc.a(lib_a-dtoa.o) (_Bfree)
/vagrant/gnuarm/lib/gcc/arm-elf/4.4.2/../../../../arm-elf/lib/thumb/interwork/libc.a(lib_a-reent.o)
                              /vagrant/gnuarm/lib/gcc/arm-elf/4.4.2/../../../../arm-elf/lib/thumb/interwork/libc.a(lib_a-signalr.o) (errno)
/vagrant/gnuarm/lib/gcc/arm-elf/4.4.2/../../../../arm-elf/lib/thumb/interwork/libc.a(lib_a-s_fpclassify.o)
                              /vagrant/gnuarm/lib/gcc/arm-elf/4.4.2/../../../../arm-elf/lib/thumb/interwork/libc.a(lib_a-svfprintf.o) (__fpclassifyd)
/vagrant/gnuarm/lib/gcc/arm-elf/4.4.2/../../../../arm-elf/lib/thumb/interwork/libc.a(lib_a-stdio.o)
                              /vagrant/gnuarm/lib/gcc/arm-elf/4.4.2/../../../../arm-elf/lib/thumb/interwork/libc.a(lib_a-findfp.o) (__sclose)
/vagrant/gnuarm/lib/gcc/arm-elf/4.4.2/../../../../arm-elf/lib/thumb/interwork/libc.a(lib_a-svfiprintf.o)
                              /vagrant/gnuarm/lib/gcc/arm-elf/4.4.2/../../../../arm-elf/lib/thumb/interwork/libc.a(lib_a-svfprintf.o) (__ssprint_r)
/vagrant/gnuarm/lib/gcc/arm-elf/4.4.2/../../../../arm-elf/lib/thumb/interwork/libc.a(lib_a-callocr.o)
                              /vagrant/gnuarm/lib/gcc/arm-elf/4.4.2/../../../../arm-elf/lib/thumb/interwork/libc.a(lib_a-mprec.o) (_calloc_r)
/vagrant/gnuarm/lib/gcc/arm-elf/4.4.2/../../../../arm-elf/lib/thumb/interwork/libc.a(lib_a-closer.o)
                              /vagrant/gnuarm/lib/gcc/arm-elf/4.4.2/../../../../arm-elf/lib/thumb/interwork/libc.a(lib_a-stdio.o) (_close_r)
/vagrant/gnuarm/lib/gcc/arm-elf/4.4.2/../../../../arm-elf/lib/thumb/interwork/libc.a(lib_a-fclose.o)
                              /vagrant/gnuarm/lib/gcc/arm-elf/4.4.2/../../../../arm-elf/lib/thumb/interwork/libc.a(lib_a-findfp.o) (fclose)
/vagrant/gnuarm/lib/gcc/arm-elf/4.4.2/../../../../arm-elf/lib/thumb/interwork/libc.a(lib_a-fstatr.o)
                              /vagrant/gnuarm/lib/gcc/arm-elf/4.4.2/../../../../arm-elf/lib/thumb/interwork/libc.a(lib_a-makebuf.o) (_fstat_r)
/vagrant/gnuarm/lib/gcc/arm-elf/4.4.2/../../../../arm-elf/lib/thumb/interwork/libc.a(lib_a-isattyr.o)
                              /vagrant/gnuarm/lib/gcc/arm-elf/4.4.2/../../../../arm-elf/lib/thumb/interwork/libc.a(lib_a-makebuf.o) (_isatty_r)
/vagrant/gnuarm/lib/gcc/arm-elf/4.4.2/../../../../arm-elf/lib/thumb/interwork/libc.a(lib_a-lseekr.o)
                              /vagrant/gnuarm/lib/gcc/arm-elf/4.4.2/../../../../arm-elf/lib/thumb/interwork/libc.a(lib_a-stdio.o) (_lseek_r)
/vagrant/gnuarm/lib/gcc/arm-elf/4.4.2/../../../../arm-elf/lib/thumb/interwork/libc.a(lib_a-readr.o)
                              /vagrant/gnuarm/lib/gcc/arm-elf/4.4.2/../../../../arm-elf/lib/thumb/interwork/libc.a(lib_a-stdio.o) (_read_r)
/vagrant/gnuarm/lib/gcc/arm-elf/4.4.2/thumb/interwork/libgcc.a(_arm_fixdfsi.o)
                              /vagrant/gnuarm/lib/gcc/arm-elf/4.4.2/../../../../arm-elf/lib/thumb/interwork/libc.a(lib_a-dtoa.o) (__fixdfsi)

Allocating common symbols
Common symbol       size              file

_kernel_cyccb_table
                    0x18              build/./kernel_cfg.o
_kernel_syslog_count
                    0x4               build/kernel/syslog.o
_kernel_syslog_logmask
                    0x4               build/kernel/syslog.o
errno               0x4               /vagrant/gnuarm/lib/gcc/arm-elf/4.4.2/../../../../arm-elf/lib/thumb/interwork/libc.a(lib_a-reent.o)
_kernel_syslog_lowmask
                    0x4               build/kernel/syslog.o
_kernel_dtqinib_table
                    0x0               build/./kernel_cfg.o
_kernel_dtqcb_table
                    0x0               build/./kernel_cfg.o
display_x           0x4               ../ecrobot/../ecrobot/libecrobot.a(display.oram)
_kernel_syslog_head
                    0x4               build/kernel/syslog.o
_kernel_reqflg      0x4               build/kernel/task.o
_kernel_interrupt_count
                    0x4               build/config/armv4/cpu_config.o
_kernel_ready_queue
                    0x80              build/kernel/task.o
_kernel_semcb_table
                    0x10              build/./kernel_cfg.o
_kernel_mbxinib_table
                    0x0               build/./kernel_cfg.o
_kernel_syslog_tail
                    0x4               build/kernel/syslog.o
_kernel_flginib_table
                    0x0               build/./kernel_cfg.o
_kernel_tmevt_heap  0x18              build/./kernel_cfg.o
_kernel_ready_primap
                    0x4               build/kernel/task.o
nontask_stack       0x400             build/config/armv4/at91sam7s/sys_config.o
_kernel_syslog_lost
                    0x4               build/kernel/syslog.o
_kernel_int_table   0x80              build/config/armv4/at91sam7s/sys_config.o
_kernel_current_time
                    0x4               build/kernel/time_event.o
_kernel_iniflg      0x4               build/kernel/startup.o
data_abort_pc       0x4               ../ecrobot/../ecrobot/libecrobot.a(data_abort.oram)
_kernel_excinib_table
                    0x0               build/./kernel_cfg.o
_kernel_syslog_buffer
                    0x400             build/kernel/syslog.o
_kernel_mpfcb_table
                    0x0               build/./kernel_cfg.o
_kernel_tcb_table   0x40              build/./kernel_cfg.o
_kernel_int_stack   0x18              build/config/armv4/cpu_config.o
_kernel_runtsk      0x4               build/kernel/task.o
_kernel_enadsp      0x4               build/kernel/task.o
_kernel_next_time   0x4               build/kernel/time_event.o
_kernel_mpfinib_table
                    0x0               build/./kernel_cfg.o
_kernel_systim_offset
                    0x4               build/kernel/time_event.o
display_y           0x4               ../ecrobot/../ecrobot/libecrobot.a(display.oram)
uart                0x44              ../ecrobot/../ecrobot/libecrobot.a(uart.oram)
_kernel_flgcb_table
                    0x0               build/./kernel_cfg.o
_kernel_schedtsk    0x4               build/kernel/task.o
_kernel_mbxcb_table
                    0x0               build/./kernel_cfg.o
sample              0x324             ../ecrobot/../ecrobot/libecrobot.a(sound.oram)
_kernel_last_index  0x4               build/kernel/time_event.o

Discarded input sections

 .text          0x00000000        0x0 build/kernel/banner.o
 .data          0x00000000        0x0 build/kernel/banner.o
 .bss           0x00000000        0x0 build/kernel/banner.o
 .text          0x00000000        0x0 build/kernel/cyclic.o
 .data          0x00000000        0x0 build/kernel/cyclic.o
 .bss           0x00000000        0x0 build/kernel/cyclic.o
 .text.stp_cyc  0x00000000       0x68 build/kernel/cyclic.o
 .text.sta_cyc  0x00000000       0x7c build/kernel/cyclic.o
 .text          0x00000000        0x0 build/kernel/dataqueue.o
 .data          0x00000000        0x0 build/kernel/dataqueue.o
 .bss           0x00000000        0x0 build/kernel/dataqueue.o
 .text._kernel_dataqueue_initialize
                0x00000000       0x40 build/kernel/dataqueue.o
 .text._kernel_enqueue_data
                0x00000000       0x34 build/kernel/dataqueue.o
 .text._kernel_force_enqueue_data
                0x00000000       0x34 build/kernel/dataqueue.o
 .text._kernel_dequeue_data
                0x00000000       0x34 build/kernel/dataqueue.o
 .text.sense_lock
                0x00000000       0x10 build/kernel/dataqueue.o
 .text.lock_cpu
                0x00000000       0x14 build/kernel/dataqueue.o
 .text.unlock_cpu
                0x00000000       0x14 build/kernel/dataqueue.o
 .text._kernel_receive_data_swait
                0x00000000       0x4c build/kernel/dataqueue.o
 .text.trcv_dtq
                0x00000000      0x12c build/kernel/dataqueue.o
 .text.prcv_dtq
                0x00000000       0xd0 build/kernel/dataqueue.o
 .text.rcv_dtq  0x00000000      0x114 build/kernel/dataqueue.o
 .text._kernel_send_data_rwait
                0x00000000       0x50 build/kernel/dataqueue.o
 .text.ifsnd_dtq
                0x00000000       0xa8 build/kernel/dataqueue.o
 .text.fsnd_dtq
                0x00000000       0xa0 build/kernel/dataqueue.o
 .text.tsnd_dtq
                0x00000000       0xcc build/kernel/dataqueue.o
 .text.ipsnd_dtq
                0x00000000       0x9c build/kernel/dataqueue.o
 .text.psnd_dtq
                0x00000000       0x94 build/kernel/dataqueue.o
 .text.snd_dtq  0x00000000       0xb4 build/kernel/dataqueue.o
 .rodata.str1.1
                0x00000000       0x3e build/kernel/dataqueue.o
 .text          0x00000000        0x0 build/kernel/eventflag.o
 .data          0x00000000        0x0 build/kernel/eventflag.o
 .bss           0x00000000        0x0 build/kernel/eventflag.o
 .text._kernel_eventflag_initialize
                0x00000000       0x34 build/kernel/eventflag.o
 .text._kernel_eventflag_cond
                0x00000000       0x38 build/kernel/eventflag.o
 .text.sense_lock
                0x00000000       0x10 build/kernel/eventflag.o
 .text.lock_cpu
                0x00000000       0x14 build/kernel/eventflag.o
 .text.unlock_cpu
                0x00000000       0x14 build/kernel/eventflag.o
 .text.clr_flg  0x00000000       0x58 build/kernel/eventflag.o
 .text.queue_empty
                0x00000000       0x40 build/kernel/eventflag.o
 .text.twai_flg
                0x00000000       0xe8 build/kernel/eventflag.o
 .text.pol_flg  0x00000000       0xac build/kernel/eventflag.o
 .text.wai_flg  0x00000000       0xd4 build/kernel/eventflag.o
 .text.iset_flg
                0x00000000       0xb4 build/kernel/eventflag.o
 .text.set_flg  0x00000000       0xac build/kernel/eventflag.o
 .rodata.str1.1
                0x00000000       0x3e build/kernel/eventflag.o
 .text          0x00000000        0x0 build/kernel/exception.o
 .data          0x00000000        0x0 build/kernel/exception.o
 .bss           0x00000000        0x0 build/kernel/exception.o
 .text.vxsns_ctx
                0x00000000       0x14 build/kernel/exception.o
 .text.vxsns_loc
                0x00000000        0x8 build/kernel/exception.o
 .text.vxsns_dsp
                0x00000000       0x10 build/kernel/exception.o
 .text.vxsns_dpn
                0x00000000       0x24 build/kernel/exception.o
 .text.vxsns_tex
                0x00000000       0x20 build/kernel/exception.o
 .text._kernel_exception_initialize
                0x00000000       0x2c build/kernel/exception.o
 .text          0x00000000        0x0 build/kernel/interrupt.o
 .data          0x00000000        0x0 build/kernel/interrupt.o
 .bss           0x00000000        0x0 build/kernel/interrupt.o
 .text          0x00000000        0x0 build/kernel/mailbox.o
 .data          0x00000000        0x0 build/kernel/mailbox.o
 .bss           0x00000000        0x0 build/kernel/mailbox.o
 .text._kernel_mailbox_initialize
                0x00000000       0x34 build/kernel/mailbox.o
 .text.sense_lock
                0x00000000       0x10 build/kernel/mailbox.o
 .text.lock_cpu
                0x00000000       0x14 build/kernel/mailbox.o
 .text.unlock_cpu
                0x00000000       0x14 build/kernel/mailbox.o
 .text.trcv_mbx
                0x00000000       0xa4 build/kernel/mailbox.o
 .text.prcv_mbx
                0x00000000       0x68 build/kernel/mailbox.o
 .text.rcv_mbx  0x00000000       0x8c build/kernel/mailbox.o
 .text.snd_mbx  0x00000000       0xf4 build/kernel/mailbox.o
 .rodata.str1.1
                0x00000000       0x3e build/kernel/mailbox.o
 .text          0x00000000        0x0 build/kernel/mempfix.o
 .data          0x00000000        0x0 build/kernel/mempfix.o
 .bss           0x00000000        0x0 build/kernel/mempfix.o
 .text._kernel_mempfix_initialize
                0x00000000       0x38 build/kernel/mempfix.o
 .text._kernel_mempfix_get_block
                0x00000000       0x30 build/kernel/mempfix.o
 .text.sense_lock
                0x00000000       0x10 build/kernel/mempfix.o
 .text.lock_cpu
                0x00000000       0x14 build/kernel/mempfix.o
 .text.unlock_cpu
                0x00000000       0x14 build/kernel/mempfix.o
 .text.pget_mpf
                0x00000000       0x80 build/kernel/mempfix.o
 .text.rel_mpf  0x00000000       0xc4 build/kernel/mempfix.o
 .text.tget_mpf
                0x00000000       0xb8 build/kernel/mempfix.o
 .text.get_mpf  0x00000000       0xa4 build/kernel/mempfix.o
 .rodata.str1.1
                0x00000000       0x3e build/kernel/mempfix.o
 .text          0x00000000        0x0 build/kernel/semaphore.o
 .data          0x00000000        0x0 build/kernel/semaphore.o
 .bss           0x00000000        0x0 build/kernel/semaphore.o
 .text.sense_lock
                0x00000000       0x10 build/kernel/semaphore.o
 .text.lock_cpu
                0x00000000       0x14 build/kernel/semaphore.o
 .text.unlock_cpu
                0x00000000       0x14 build/kernel/semaphore.o
 .text.twai_sem
                0x00000000       0x94 build/kernel/semaphore.o
 .text.pol_sem  0x00000000       0x60 build/kernel/semaphore.o
 .text.wai_sem  0x00000000       0x7c build/kernel/semaphore.o
 .text.isig_sem
                0x00000000       0xb4 build/kernel/semaphore.o
 .text.sig_sem  0x00000000       0xac build/kernel/semaphore.o
 .rodata.str1.1
                0x00000000       0x3e build/kernel/semaphore.o
 .text          0x00000000        0x0 build/kernel/startup.o
 .data          0x00000000        0x0 build/kernel/startup.o
 .bss           0x00000000        0x0 build/kernel/startup.o
 .text.lock_cpu
                0x00000000       0x14 build/kernel/startup.o
 .text.kernel_exit
                0x00000000       0x48 build/kernel/startup.o
 .text          0x00000000        0x0 build/kernel/sys_manage.o
 .data          0x00000000        0x0 build/kernel/sys_manage.o
 .bss           0x00000000        0x0 build/kernel/sys_manage.o
 .text.sns_ctx  0x00000000       0x10 build/kernel/sys_manage.o
 .text.sns_dsp  0x00000000       0x10 build/kernel/sys_manage.o
 .text.sns_dpn  0x00000000       0x2c build/kernel/sys_manage.o
 .text.sns_loc  0x00000000       0x10 build/kernel/sys_manage.o
 .text.iloc_cpu
                0x00000000       0x28 build/kernel/sys_manage.o
 .text.ena_dsp  0x00000000       0x4c build/kernel/sys_manage.o
 .text.dis_dsp  0x00000000       0x38 build/kernel/sys_manage.o
 .text.iunl_cpu
                0x00000000       0x28 build/kernel/sys_manage.o
 .text.iget_tid
                0x00000000       0x48 build/kernel/sys_manage.o
 .text.get_tid  0x00000000       0x44 build/kernel/sys_manage.o
 .text.irot_rdq
                0x00000000       0x4c build/kernel/sys_manage.o
 .text.rot_rdq  0x00000000       0x54 build/kernel/sys_manage.o
 .text          0x00000000        0x0 build/kernel/syslog.o
 .data          0x00000000        0x0 build/kernel/syslog.o
 .bss           0x00000000        0x0 build/kernel/syslog.o
 .text.vmsk_log
                0x00000000       0x14 build/kernel/syslog.o
 .text._kernel_syslog_terminate
                0x00000000       0x24 build/kernel/syslog.o
 .text.vrea_log
                0x00000000       0x80 build/kernel/syslog.o
 .rodata.str1.1
                0x00000000       0x18 build/kernel/syslog.o
 .text          0x00000000        0x0 build/kernel/task.o
 .data          0x00000000        0x0 build/kernel/task.o
 .bss           0x00000000        0x0 build/kernel/task.o
 .text._kernel_make_dormant
                0x00000000       0x20 build/kernel/task.o
 .text._kernel_rotate_ready_queue
                0x00000000       0x7c build/kernel/task.o
 .text._kernel_change_priority
                0x00000000       0x94 build/kernel/task.o
 .text          0x00000000        0x0 build/kernel/task_except.o
 .data          0x00000000        0x0 build/kernel/task_except.o
 .bss           0x00000000        0x0 build/kernel/task_except.o
 .text.sns_tex  0x00000000       0x20 build/kernel/task_except.o
 .text.sense_lock
                0x00000000       0x10 build/kernel/task_except.o
 .text.lock_cpu
                0x00000000       0x14 build/kernel/task_except.o
 .text.unlock_cpu
                0x00000000       0x14 build/kernel/task_except.o
 .text.ena_tex  0x00000000       0x58 build/kernel/task_except.o
 .text.dis_tex  0x00000000       0x4c build/kernel/task_except.o
 .text.iras_tex
                0x00000000       0x94 build/kernel/task_except.o
 .text.ras_tex  0x00000000       0x9c build/kernel/task_except.o
 .text          0x00000000        0x0 build/kernel/task_manage.o
 .data          0x00000000        0x0 build/kernel/task_manage.o
 .bss           0x00000000        0x0 build/kernel/task_manage.o
 .text.unlock_cpu
                0x00000000       0x14 build/kernel/task_manage.o
 .text.get_pri  0x00000000       0x74 build/kernel/task_manage.o
 .text.can_act  0x00000000       0x6c build/kernel/task_manage.o
 .text.chg_pri  0x00000000       0xac build/kernel/task_manage.o
 .text.ter_tsk  0x00000000       0xa4 build/kernel/task_manage.o
 .text.iact_tsk
                0x00000000       0x80 build/kernel/task_manage.o
 .text.act_tsk  0x00000000       0x88 build/kernel/task_manage.o
 .text          0x00000000        0x0 build/kernel/task_sync.o
 .data          0x00000000        0x0 build/kernel/task_sync.o
 .bss           0x00000000        0x0 build/kernel/task_sync.o
 .text.sus_tsk  0x00000000       0xac build/kernel/task_sync.o
 .text.can_wup  0x00000000       0x78 build/kernel/task_sync.o
 .text.slp_tsk  0x00000000       0x6c build/kernel/task_sync.o
 .text.rsm_tsk  0x00000000       0x78 build/kernel/task_sync.o
 .text.frsm_tsk
                0x00000000        0xc build/kernel/task_sync.o
 .text.irel_wai
                0x00000000       0x70 build/kernel/task_sync.o
 .text.rel_wai  0x00000000       0x6c build/kernel/task_sync.o
 .text.iwup_tsk
                0x00000000       0x88 build/kernel/task_sync.o
 .text          0x00000000        0x0 build/kernel/time_event.o
 .data          0x00000000        0x0 build/kernel/time_event.o
 .bss           0x00000000        0x0 build/kernel/time_event.o
 .text._kernel_tmevt_up
                0x00000000       0x54 build/kernel/time_event.o
 .text          0x00000000        0x0 build/kernel/time_manage.o
 .data          0x00000000        0x0 build/kernel/time_manage.o
 .bss           0x00000000        0x0 build/kernel/time_manage.o
 .text.lock_cpu
                0x00000000       0x14 build/kernel/time_manage.o
 .text.unlock_cpu
                0x00000000       0x14 build/kernel/time_manage.o
 .text.get_tim  0x00000000       0x44 build/kernel/time_manage.o
 .text.set_tim  0x00000000       0x44 build/kernel/time_manage.o
 .text          0x00000000        0x0 build/kernel/wait.o
 .data          0x00000000        0x0 build/kernel/wait.o
 .bss           0x00000000        0x0 build/kernel/wait.o
 .text._kernel_wobj_change_priority
                0x00000000       0x38 build/kernel/wait.o
 .text._kernel_wobj_make_wait
                0x00000000       0x58 build/kernel/wait.o
 .text._kernel_wait_cancel
                0x00000000       0x28 build/kernel/wait.o
 .text._kernel_wait_release
                0x00000000       0x1c build/kernel/wait.o
 .text._kernel_wobj_make_wait_tmout
                0x00000000       0x5c build/kernel/wait.o
 .text          0x00000000        0x0 build/config/armv4/cpu_config.o
 .data          0x00000000        0x0 build/config/armv4/cpu_config.o
 .bss           0x00000000        0x0 build/config/armv4/cpu_config.o
 .text.define_exc
                0x00000000        0x4 build/config/armv4/cpu_config.o
 .text._kernel_cpu_terminate
                0x00000000        0x4 build/config/armv4/cpu_config.o
 .text.fiq_exception
                0x00000000       0x10 build/config/armv4/cpu_config.o
 .text.irq_exception
                0x00000000       0x10 build/config/armv4/cpu_config.o
 .text.data_abort_exception
                0x00000000       0x10 build/config/armv4/cpu_config.o
 .text.prefetch_exception
                0x00000000       0x10 build/config/armv4/cpu_config.o
 .text.swi_exception
                0x00000000       0x10 build/config/armv4/cpu_config.o
 .text.undef_exception
                0x00000000       0x10 build/config/armv4/cpu_config.o
 .rodata.str1.1
                0x00000000       0xe0 build/config/armv4/cpu_config.o
 .text          0x00000000        0x0 build/config/armv4/at91sam7s/sys_config.o
 .data          0x00000000        0x0 build/config/armv4/at91sam7s/sys_config.o
 .bss           0x00000000        0x0 build/config/armv4/at91sam7s/sys_config.o
 .text.undef_interrupt
                0x00000000       0x10 build/config/armv4/at91sam7s/sys_config.o
 .text._kernel_sys_exit
                0x00000000       0x10 build/config/armv4/at91sam7s/sys_config.o
 .data.int_mode_table
                0x00000000       0x80 build/config/armv4/at91sam7s/sys_config.o
 .text          0x00000000        0x0 build/./kernel_cfg.o
 .data          0x00000000        0x0 build/./kernel_cfg.o
 .bss           0x00000000        0x0 build/./kernel_cfg.o
 .text._kernel_call_terrtn
                0x00000000        0x4 build/./kernel_cfg.o
 .rodata._kernel_tmax_mpfid
                0x00000000        0x4 build/./kernel_cfg.o
 .rodata._kernel_tmax_mbxid
                0x00000000        0x4 build/./kernel_cfg.o
 .rodata._kernel_tnum_excno
                0x00000000        0x4 build/./kernel_cfg.o
 .rodata._kernel_tmax_flgid
                0x00000000        0x4 build/./kernel_cfg.o
 .rodata._checker_magic_number
                0x00000000        0x4 build/./kernel_cfg.o
 .rodata._kernel_tmax_dtqid
                0x00000000        0x4 build/./kernel_cfg.o
 .text          0x00000000        0x0 build/rtoscalls.o
 .data          0x00000000        0x0 build/rtoscalls.o
 .bss           0x00000000        0x0 build/rtoscalls.o
 .text.SleeperMonitor
                0x00000000        0x4 build/rtoscalls.o
 .text.Sleep    0x00000000        0xc build/rtoscalls.o
 .text          0x00000000        0x0 build/syscalls.o
 .data          0x00000000        0x0 build/syscalls.o
 .bss           0x00000000        0x0 build/syscalls.o
 .text          0x00000000        0x0 build/ecrobot_bluetooth.o
 .data          0x00000000        0x0 build/ecrobot_bluetooth.o
 .bss           0x00000000        0x0 build/ecrobot_bluetooth.o
 .text.ecrobot_get_bt_status
                0x00000000        0xc build/ecrobot_bluetooth.o
 .text.ecrobot_read_bt
                0x00000000       0x20 build/ecrobot_bluetooth.o
 .text.ecrobot_send_bt
                0x00000000       0x3c build/ecrobot_bluetooth.o
 .text.ecrobot_send_bt_packet
                0x00000000       0x4c build/ecrobot_bluetooth.o
 .text.ecrobot_read_bt_packet
                0x00000000       0x48 build/ecrobot_bluetooth.o
 .text.close_bt_stream
                0x00000000       0x28 build/ecrobot_bluetooth.o
 .text.send_bt_command
                0x00000000       0x3c build/ecrobot_bluetooth.o
 .text.ecrobot_term_bt_connection
                0x00000000       0x44 build/ecrobot_bluetooth.o
 .text.ecrobot_set_bt_factory_settings
                0x00000000       0x34 build/ecrobot_bluetooth.o
 .text.open_bt_stream
                0x00000000       0x48 build/ecrobot_bluetooth.o
 .text.ecrobot_set_bt_device_name
                0x00000000       0x44 build/ecrobot_bluetooth.o
 .text.T.50     0x00000000       0x54 build/ecrobot_bluetooth.o
 .text.ecrobot_get_bt_device_address
                0x00000000       0x64 build/ecrobot_bluetooth.o
 .text.ecrobot_init_bt_slave
                0x00000000      0x100 build/ecrobot_bluetooth.o
 .text.ecrobot_init_bt_connection
                0x00000000       0x10 build/ecrobot_bluetooth.o
 .text.ecrobot_get_bt_device_name
                0x00000000       0x68 build/ecrobot_bluetooth.o
 .text.ecrobot_get_bt_signal_strength
                0x00000000       0x78 build/ecrobot_bluetooth.o
 .text.ecrobot_init_bt_master
                0x00000000       0xe4 build/ecrobot_bluetooth.o
 .data.bt_status
                0x00000000        0x1 build/ecrobot_bluetooth.o
 .rodata.str1.1
                0x00000000        0x7 build/ecrobot_bluetooth.o
 .bss.receiveBuf
                0x00000000       0x80 build/ecrobot_bluetooth.o
 .bss.sendBuf   0x00000000      0x100 build/ecrobot_bluetooth.o
 .bss.handle    0x00000000        0x1 build/ecrobot_bluetooth.o
 .text          0x00000000        0x0 build/ecrobot_base.o
 .data          0x00000000        0x0 build/ecrobot_base.o
 .bss           0x00000000        0x0 build/ecrobot_base.o
 .text.exec_NXT_BIOS
                0x00000000       0x44 build/ecrobot_base.o
 .text.show_bd_addr_err
                0x00000000       0x3c build/ecrobot_base.o
 .text.show_bd_addr
                0x00000000       0x44 build/ecrobot_base.o
 .text          0x00000000        0x0 build/ecrobot.o
 .data          0x00000000        0x0 build/ecrobot.o
 .bss           0x00000000        0x0 build/ecrobot.o
 .text          0x00000000        0x0 build/library/log_output.oram
 .data          0x00000000        0x0 build/library/log_output.oram
 .bss           0x00000000        0x0 build/library/log_output.oram
 .text.syslog_output
                0x00000000       0x54 build/library/log_output.oram
 .text          0x00000000        0x0 build/library/strerror.oram
 .data          0x00000000        0x0 build/library/strerror.oram
 .bss           0x00000000        0x0 build/library/strerror.oram
 .text.itron_strerror
                0x00000000       0x28 build/library/strerror.oram
 .rodata.str1.1
                0x00000000       0xa5 build/library/strerror.oram
 .rodata.CSWTCH.1
                0x00000000       0xec build/library/strerror.oram
 .text          0x00000000        0x0 build/library/t_perror.oram
 .data          0x00000000        0x0 build/library/t_perror.oram
 .bss           0x00000000        0x0 build/library/t_perror.oram
 .text.t_perror
                0x00000000       0x38 build/library/t_perror.oram
 .rodata.str1.1
                0x00000000       0x28 build/library/t_perror.oram
 .text          0x00000000        0x0 build/library/vasyslog.oram
 .data          0x00000000        0x0 build/library/vasyslog.oram
 .bss           0x00000000        0x0 build/library/vasyslog.oram
 .text.syslog   0x00000000       0xa4 build/library/vasyslog.oram
 .group         0x00000000        0x8 build/main.o
 .group         0x00000000        0x8 build/main.o
 .group         0x00000000        0x8 build/main.o
 .group         0x00000000        0x8 build/main.o
 .group         0x00000000        0x8 build/main.o
 .group         0x00000000        0x8 build/main.o
 .group         0x00000000        0x8 build/main.o
 .group         0x00000000        0x8 build/main.o
 .group         0x00000000        0x8 build/main.o
 .text          0x00000000        0x0 build/main.o
 .data          0x00000000        0x0 build/main.o
 .bss           0x00000000        0x0 build/main.o
 .text._Z27generate_external_LightGrayv
                0x00000000        0x4 build/main.o
 .text._Z5printPc
                0x00000000       0x18 build/main.o
 .text._Z12sys_wait5secv
                0x00000000       0x10 build/main.o
 .text._Z12sys_wait4secv
                0x00000000       0x10 build/main.o
 .text._Z12sys_wait3secv
                0x00000000       0x10 build/main.o
 .text._Z12sys_wait2secv
                0x00000000       0x10 build/main.o
 .text._Z12sys_wait1secv
                0x00000000       0x10 build/main.o
 .text.backTurnLeft
                0x00000000       0x20 build/main.o
 .text.backTurnRight
                0x00000000       0x20 build/main.o
 .text.backward
                0x00000000       0x24 build/main.o
 .text.forward  0x00000000       0x20 build/main.o
 .group         0x00000000        0x8 build/MEXU.o
 .text          0x00000000        0x0 build/MEXU.o
 .data          0x00000000        0x0 build/MEXU.o
 .bss           0x00000000        0x0 build/MEXU.o
 .text._ZN9MEXUEventC2EP12StateMachinei
                0x00000000        0x8 build/MEXU.o
 .text._ZN9MEXUEventC1EP12StateMachinei
                0x00000000        0x8 build/MEXU.o
 .text._ZN10MEXUObjectC2Ev
                0x00000000       0x20 build/MEXU.o
 .text._ZN10MEXUObjectC1Ev
                0x00000000       0x20 build/MEXU.o
 .text._ZN10MEXUObject13instances_numEv
                0x00000000        0xc build/MEXU.o
 .text._ZN10MEXUObject9instancesEv
                0x00000000        0x8 build/MEXU.o
 .text._ZN12StateMachineC1Ev
                0x00000000       0x2c build/MEXU.o
 .text._ZN14MEXUEventQueue3deqEv
                0x00000000       0x14 build/MEXU.o
 .text._ZN14MEXUEventQueue3enqEP9MEXUEvent
                0x00000000       0x18 build/MEXU.o
 .text._ZN12EventManagerC2Ev
                0x00000000        0x8 build/MEXU.o
 .text._ZN12EventManager9sendEventEP9MEXUEvent
                0x00000000       0x18 build/MEXU.o
 .text._ZN14MEXUTimerEventC2EiP12StateMachinei
                0x00000000        0x8 build/MEXU.o
 .text._ZN14MEXUTimerEventC1EiP12StateMachinei
                0x00000000        0x8 build/MEXU.o
 .text._ZN21MEXUTimerEventManager3addEiP12StateMachinei
                0x00000000       0x6c build/MEXU.o
 .group         0x00000000        0x8 build/stm.o
 .group         0x00000000        0x8 build/stm.o
 .group         0x00000000        0x8 build/stm.o
 .text          0x00000000        0x0 build/stm.o
 .data          0x00000000        0x0 build/stm.o
 .bss           0x00000000        0x0 build/stm.o
 .rodata._ZTV12StateMachine
                0x00000000        0xc build/stm.o
 .text          0x00000000       0x38 build/nxtvm/platform/nxt/vectors.o
 .data          0x00000000        0x0 build/nxtvm/platform/nxt/vectors.o
 .bss           0x00000000        0x0 build/nxtvm/platform/nxt/vectors.o
 .text          0x00000000       0x10 build/nxt_binary_header.o
 .data          0x00000000        0x0 build/nxt_binary_header.o
 .bss           0x00000000        0x0 build/nxt_binary_header.o
 .text          0x00000000       0x38 build/nxt_entry_point.o
 .data          0x00000000        0x0 build/nxt_entry_point.o
 .bss           0x00000000        0x0 build/nxt_entry_point.o
 .data          0x00000000        0x0 build/ecrobot_init.o
 .bss           0x00000000        0x0 build/ecrobot_init.o
 .data          0x00000000        0x0 build/config/armv4/cpu_support.oram
 .bss           0x00000000        0x0 build/config/armv4/cpu_support.oram
 .data          0x00000000        0x0 build/config/armv4/at91sam7s/irq.oram
 .bss           0x00000000        0x0 build/config/armv4/at91sam7s/irq.oram
 .group         0x00000000        0x8 ../ecrobot/../ecrobot/libecrobot++.a(I2c.o)
 .text          0x00000000        0x0 ../ecrobot/../ecrobot/libecrobot++.a(I2c.o)
 .data          0x00000000        0x0 ../ecrobot/../ecrobot/libecrobot++.a(I2c.o)
 .bss           0x00000000        0x0 ../ecrobot/../ecrobot/libecrobot++.a(I2c.o)
 .text._ZN7ecrobot3I2cC1E6ePortS6ePower
                0x00000000       0x30 ../ecrobot/../ecrobot/libecrobot++.a(I2c.o)
 .text._ZN7ecrobot3I2c4sendEmPhm
                0x00000000       0x40 ../ecrobot/../ecrobot/libecrobot++.a(I2c.o)
 .text          0x00000000        0x0 ../ecrobot/../ecrobot/libecrobot++.a(Lcd.o)
 .data          0x00000000        0x0 ../ecrobot/../ecrobot/libecrobot++.a(Lcd.o)
 .bss           0x00000000        0x0 ../ecrobot/../ecrobot/libecrobot++.a(Lcd.o)
 .text._ZN7ecrobot3LcdC2Ev
                0x00000000        0x8 ../ecrobot/../ecrobot/libecrobot++.a(Lcd.o)
 .text._ZN7ecrobot3Lcd5clearEb
                0x00000000       0x20 ../ecrobot/../ecrobot/libecrobot++.a(Lcd.o)
 .rodata.str1.4
                0x00000000       0x14 ../ecrobot/../ecrobot/libecrobot++.a(Lcd.o)
 .text._ZN7ecrobot3Lcd8clearRowEmb
                0x00000000       0x30 ../ecrobot/../ecrobot/libecrobot++.a(Lcd.o)
 .text._ZN7ecrobot3Lcd6cursorEmm
                0x00000000       0x20 ../ecrobot/../ecrobot/libecrobot++.a(Lcd.o)
 .text._ZN7ecrobot3Lcd4drawEPKhmmmm
                0x00000000       0x20 ../ecrobot/../ecrobot/libecrobot++.a(Lcd.o)
 .group         0x00000000        0x8 ../ecrobot/../ecrobot/libecrobot++.a(LightSensor.o)
 .group         0x00000000        0x8 ../ecrobot/../ecrobot/libecrobot++.a(LightSensor.o)
 .group         0x00000000        0x8 ../ecrobot/../ecrobot/libecrobot++.a(LightSensor.o)
 .group         0x00000000        0x8 ../ecrobot/../ecrobot/libecrobot++.a(LightSensor.o)
 .text          0x00000000        0x0 ../ecrobot/../ecrobot/libecrobot++.a(LightSensor.o)
 .data          0x00000000        0x0 ../ecrobot/../ecrobot/libecrobot++.a(LightSensor.o)
 .bss           0x00000000        0x0 ../ecrobot/../ecrobot/libecrobot++.a(LightSensor.o)
 .gnu.linkonce.r._ZTVN7ecrobot6SensorE
                0x00000000       0x10 ../ecrobot/../ecrobot/libecrobot++.a(LightSensor.o)
 .gnu.linkonce.t._ZN7ecrobot6SensorD1Ev
                0x00000000       0x18 ../ecrobot/../ecrobot/libecrobot++.a(LightSensor.o)
 .gnu.linkonce.t._ZN7ecrobot6SensorD0Ev
                0x00000000       0x20 ../ecrobot/../ecrobot/libecrobot++.a(LightSensor.o)
 .text._ZN7ecrobot11LightSensorC2E6ePortSb
                0x00000000       0x3c ../ecrobot/../ecrobot/libecrobot++.a(LightSensor.o)
 .text._ZN7ecrobot11LightSensorD2Ev
                0x00000000       0x28 ../ecrobot/../ecrobot/libecrobot++.a(LightSensor.o)
 .text          0x00000000        0x0 ../ecrobot/../ecrobot/libecrobot++.a(Motor.o)
 .data          0x00000000        0x0 ../ecrobot/../ecrobot/libecrobot++.a(Motor.o)
 .bss           0x00000000        0x0 ../ecrobot/../ecrobot/libecrobot++.a(Motor.o)
 .text._ZN7ecrobot5MotorC2E6ePortMb
                0x00000000       0x18 ../ecrobot/../ecrobot/libecrobot++.a(Motor.o)
 .text._ZN7ecrobot5MotorD2Ev
                0x00000000       0x10 ../ecrobot/../ecrobot/libecrobot++.a(Motor.o)
 .text._ZN7ecrobot5Motor8setBrakeEb
                0x00000000       0x14 ../ecrobot/../ecrobot/libecrobot++.a(Motor.o)
 .group         0x00000000        0x8 ../ecrobot/../ecrobot/libecrobot++.a(SonarSensor.o)
 .group         0x00000000        0x8 ../ecrobot/../ecrobot/libecrobot++.a(SonarSensor.o)
 .group         0x00000000        0x8 ../ecrobot/../ecrobot/libecrobot++.a(SonarSensor.o)
 .text          0x00000000        0x0 ../ecrobot/../ecrobot/libecrobot++.a(SonarSensor.o)
 .data          0x00000000        0x0 ../ecrobot/../ecrobot/libecrobot++.a(SonarSensor.o)
 .bss           0x00000000        0x0 ../ecrobot/../ecrobot/libecrobot++.a(SonarSensor.o)
 .gnu.linkonce.r._ZTVN7ecrobot11SonarSensorE
                0x00000000       0x10 ../ecrobot/../ecrobot/libecrobot++.a(SonarSensor.o)
 .text._ZN7ecrobot11SonarSensorC2E6ePortS
                0x00000000       0x18 ../ecrobot/../ecrobot/libecrobot++.a(SonarSensor.o)
 .gnu.linkonce.t._ZN7ecrobot11SonarSensorD1Ev
                0x00000000       0x14 ../ecrobot/../ecrobot/libecrobot++.a(SonarSensor.o)
 .gnu.linkonce.t._ZN7ecrobot11SonarSensorD0Ev
                0x00000000       0x1c ../ecrobot/../ecrobot/libecrobot++.a(SonarSensor.o)
 .group         0x00000000        0x8 ../ecrobot/../ecrobot/libecrobot++.a(TouchSensor.o)
 .group         0x00000000        0x8 ../ecrobot/../ecrobot/libecrobot++.a(TouchSensor.o)
 .group         0x00000000        0x8 ../ecrobot/../ecrobot/libecrobot++.a(TouchSensor.o)
 .group         0x00000000        0x8 ../ecrobot/../ecrobot/libecrobot++.a(TouchSensor.o)
 .group         0x00000000        0x8 ../ecrobot/../ecrobot/libecrobot++.a(TouchSensor.o)
 .group         0x00000000        0x8 ../ecrobot/../ecrobot/libecrobot++.a(TouchSensor.o)
 .text          0x00000000        0x0 ../ecrobot/../ecrobot/libecrobot++.a(TouchSensor.o)
 .data          0x00000000        0x0 ../ecrobot/../ecrobot/libecrobot++.a(TouchSensor.o)
 .bss           0x00000000        0x0 ../ecrobot/../ecrobot/libecrobot++.a(TouchSensor.o)
 .gnu.linkonce.r._ZTVN7ecrobot11TouchSensorE
                0x00000000       0x10 ../ecrobot/../ecrobot/libecrobot++.a(TouchSensor.o)
 .gnu.linkonce.r._ZTVN7ecrobot6SensorE
                0x00000000       0x10 ../ecrobot/../ecrobot/libecrobot++.a(TouchSensor.o)
 .gnu.linkonce.t._ZN7ecrobot6SensorD1Ev
                0x00000000       0x18 ../ecrobot/../ecrobot/libecrobot++.a(TouchSensor.o)
 .gnu.linkonce.t._ZN7ecrobot6SensorD0Ev
                0x00000000       0x20 ../ecrobot/../ecrobot/libecrobot++.a(TouchSensor.o)
 .text._ZN7ecrobot11TouchSensorC2E6ePortS
                0x00000000       0x30 ../ecrobot/../ecrobot/libecrobot++.a(TouchSensor.o)
 .gnu.linkonce.t._ZN7ecrobot11TouchSensorD1Ev
                0x00000000       0x18 ../ecrobot/../ecrobot/libecrobot++.a(TouchSensor.o)
 .gnu.linkonce.t._ZN7ecrobot11TouchSensorD0Ev
                0x00000000       0x20 ../ecrobot/../ecrobot/libecrobot++.a(TouchSensor.o)
 .text          0x00000000        0x0 ../ecrobot/../ecrobot/libecrobot++.a(New.o)
 .data          0x00000000        0x0 ../ecrobot/../ecrobot/libecrobot++.a(New.o)
 .bss           0x00000000        0x0 ../ecrobot/../ecrobot/libecrobot++.a(New.o)
 .text._Znam    0x00000000       0x10 ../ecrobot/../ecrobot/libecrobot++.a(New.o)
 .text._ZnwmPv  0x00000000        0x4 ../ecrobot/../ecrobot/libecrobot++.a(New.o)
 .text._ZnamPv  0x00000000        0x4 ../ecrobot/../ecrobot/libecrobot++.a(New.o)
 .text._ZdaPv   0x00000000        0xc ../ecrobot/../ecrobot/libecrobot++.a(New.o)
 .text._ZdlPvS_
                0x00000000        0x4 ../ecrobot/../ecrobot/libecrobot++.a(New.o)
 .text._ZdaPvS_
                0x00000000        0x4 ../ecrobot/../ecrobot/libecrobot++.a(New.o)
 .text          0x00000000        0x0 ../ecrobot/../ecrobot/libecrobot.a(ecrobot_device_hook.o)
 .data          0x00000000        0x0 ../ecrobot/../ecrobot/libecrobot.a(ecrobot_device_hook.o)
 .bss           0x00000000        0x0 ../ecrobot/../ecrobot/libecrobot.a(ecrobot_device_hook.o)
 .text          0x00000000        0x0 ../ecrobot/../ecrobot/libecrobot.a(ecrobot_interface.o)
 .data          0x00000000        0x0 ../ecrobot/../ecrobot/libecrobot.a(ecrobot_interface.o)
 .bss           0x00000000        0x0 ../ecrobot/../ecrobot/libecrobot.a(ecrobot_interface.o)
 .rodata.NXT_COLORSENSOR_PROTOCOLS
                0x00000000        0x7 ../ecrobot/../ecrobot/libecrobot.a(ecrobot_interface.o)
 .data.distance_state
                0x00000000       0x10 ../ecrobot/../ecrobot/libecrobot.a(ecrobot_interface.o)
 .text.ecrobot_set_motor_speed
                0x00000000       0x14 ../ecrobot/../ecrobot/libecrobot.a(ecrobot_interface.o)
 .text.ecrobot_set_motor_mode_speed
                0x00000000       0x18 ../ecrobot/../ecrobot/libecrobot.a(ecrobot_interface.o)
 .text.ecrobot_get_motor_rev
                0x00000000       0x10 ../ecrobot/../ecrobot/libecrobot.a(ecrobot_interface.o)
 .text.ecrobot_set_motor_rev
                0x00000000       0x10 ../ecrobot/../ecrobot/libecrobot.a(ecrobot_interface.o)
 .text.ecrobot_set_light_sensor_active
                0x00000000       0x10 ../ecrobot/../ecrobot/libecrobot.a(ecrobot_interface.o)
 .text.ecrobot_set_light_sensor_inactive
                0x00000000       0x10 ../ecrobot/../ecrobot/libecrobot.a(ecrobot_interface.o)
 .text.ecrobot_get_light_sensor
                0x00000000       0x14 ../ecrobot/../ecrobot/libecrobot.a(ecrobot_interface.o)
 .text.ecrobot_get_touch_sensor
                0x00000000       0x20 ../ecrobot/../ecrobot/libecrobot.a(ecrobot_interface.o)
 .text.ecrobot_get_sound_sensor
                0x00000000       0x14 ../ecrobot/../ecrobot/libecrobot.a(ecrobot_interface.o)
 .text.ecrobot_init_i2c
                0x00000000       0x2c ../ecrobot/../ecrobot/libecrobot.a(ecrobot_interface.o)
 .text.ecrobot_wait_i2c_ready
                0x00000000       0x38 ../ecrobot/../ecrobot/libecrobot.a(ecrobot_interface.o)
 .text.ecrobot_send_i2c
                0x00000000       0x3c ../ecrobot/../ecrobot/libecrobot.a(ecrobot_interface.o)
 .text.ecrobot_read_i2c
                0x00000000       0x40 ../ecrobot/../ecrobot/libecrobot.a(ecrobot_interface.o)
 .text.ecrobot_term_i2c
                0x00000000       0x10 ../ecrobot/../ecrobot/libecrobot.a(ecrobot_interface.o)
 .text.getDistance
                0x00000000       0x20 ../ecrobot/../ecrobot/libecrobot.a(ecrobot_interface.o)
 .text.ecrobot_init_sonar_sensor
                0x00000000       0x10 ../ecrobot/../ecrobot/libecrobot.a(ecrobot_interface.o)
 .bss.data.2763
                0x00000000        0x4 ../ecrobot/../ecrobot/libecrobot.a(ecrobot_interface.o)
 .text.ecrobot_get_sonar_sensor
                0x00000000       0x48 ../ecrobot/../ecrobot/libecrobot.a(ecrobot_interface.o)
 .text.ecrobot_term_sonar_sensor
                0x00000000       0x20 ../ecrobot/../ecrobot/libecrobot.a(ecrobot_interface.o)
 .text.ecrobot_process_bg_nxtcolorsensor
                0x00000000       0x98 ../ecrobot/../ecrobot/libecrobot.a(ecrobot_interface.o)
 .text.ecrobot_set_nxtcolorsensor
                0x00000000       0x44 ../ecrobot/../ecrobot/libecrobot.a(ecrobot_interface.o)
 .text.ecrobot_init_nxtcolorsensor
                0x00000000       0x30 ../ecrobot/../ecrobot/libecrobot.a(ecrobot_interface.o)
 .text.ecrobot_get_nxtcolorsensor_mode
                0x00000000       0x18 ../ecrobot/../ecrobot/libecrobot.a(ecrobot_interface.o)
 .text.ecrobot_get_nxtcolorsensor_light
                0x00000000       0x10 ../ecrobot/../ecrobot/libecrobot.a(ecrobot_interface.o)
 .text.ecrobot_get_nxtcolorsensor_id
                0x00000000       0x3c ../ecrobot/../ecrobot/libecrobot.a(ecrobot_interface.o)
 .rodata.ecrobot_get_nxtcolorsensor_id
                0x00000000       0x20 ../ecrobot/../ecrobot/libecrobot.a(ecrobot_interface.o)
 .text.ecrobot_get_nxtcolorsensor_rgb
                0x00000000       0x1c ../ecrobot/../ecrobot/libecrobot.a(ecrobot_interface.o)
 .text.ecrobot_term_nxtcolorsensor
                0x00000000       0x10 ../ecrobot/../ecrobot/libecrobot.a(ecrobot_interface.o)
 .text.ecrobot_set_RCX_power_source
                0x00000000       0x20 ../ecrobot/../ecrobot/libecrobot.a(ecrobot_interface.o)
 .text.ecrobot_term_RCX_power_source
                0x00000000       0x10 ../ecrobot/../ecrobot/libecrobot.a(ecrobot_interface.o)
 .text.ecrobot_get_RCX_sensor
                0x00000000       0x14 ../ecrobot/../ecrobot/libecrobot.a(ecrobot_interface.o)
 .text.ecrobot_get_RCX_touch_sensor
                0x00000000       0x20 ../ecrobot/../ecrobot/libecrobot.a(ecrobot_interface.o)
 .text.ecrobot_get_systick_ms
                0x00000000        0xc ../ecrobot/../ecrobot/libecrobot.a(ecrobot_interface.o)
 .text.get_device_status
                0x00000000       0x10 ../ecrobot/../ecrobot/libecrobot.a(ecrobot_interface.o)
 .text.ecrobot_restart_NXT
                0x00000000        0xc ../ecrobot/../ecrobot/libecrobot.a(ecrobot_interface.o)
 .text.ecrobot_shutdown_NXT
                0x00000000        0xc ../ecrobot/../ecrobot/libecrobot.a(ecrobot_interface.o)
 .text.ecrobot_exec_NXT_BIOS
                0x00000000        0xc ../ecrobot/../ecrobot/libecrobot.a(ecrobot_interface.o)
 .text.ecrobot_bt_data_logger
                0x00000000       0x84 ../ecrobot/../ecrobot/libecrobot.a(ecrobot_interface.o)
 .text.ecrobot_bt_adc_data_logger
                0x00000000       0xa0 ../ecrobot/../ecrobot/libecrobot.a(ecrobot_interface.o)
 .rodata.str1.4
                0x00000000       0x84 ../ecrobot/../ecrobot/libecrobot.a(ecrobot_interface.o)
 .text.ecrobot_show_int
                0x00000000       0x30 ../ecrobot/../ecrobot/libecrobot.a(ecrobot_interface.o)
 .text.ecrobot_debug
                0x00000000       0x30 ../ecrobot/../ecrobot/libecrobot.a(ecrobot_interface.o)
 .text.ecrobot_debug1
                0x00000000       0x68 ../ecrobot/../ecrobot/libecrobot.a(ecrobot_interface.o)
 .text.ecrobot_debug2
                0x00000000       0x68 ../ecrobot/../ecrobot/libecrobot.a(ecrobot_interface.o)
 .text.ecrobot_status_monitor
                0x00000000      0x138 ../ecrobot/../ecrobot/libecrobot.a(ecrobot_interface.o)
 .text.ecrobot_adc_data_monitor
                0x00000000      0x140 ../ecrobot/../ecrobot/libecrobot.a(ecrobot_interface.o)
 .text.ecrobot_sint_var_monitor
                0x00000000       0x38 ../ecrobot/../ecrobot/libecrobot.a(ecrobot_interface.o)
 .text.ecrobot_sound_tone
                0x00000000        0xc ../ecrobot/../ecrobot/libecrobot.a(ecrobot_interface.o)
 .text.ecrobot_sound_wav
                0x00000000      0x1ec ../ecrobot/../ecrobot/libecrobot.a(ecrobot_interface.o)
 .text.ecrobot_is_ENTER_button_pressed
                0x00000000       0x10 ../ecrobot/../ecrobot/libecrobot.a(ecrobot_interface.o)
 .text.ecrobot_is_RUN_button_pressed
                0x00000000       0x10 ../ecrobot/../ecrobot/libecrobot.a(ecrobot_interface.o)
 .bss.adc       0x00000000        0x8 ../ecrobot/../ecrobot/libecrobot.a(ecrobot_interface.o)
 .bss.sensor_data
                0x00000000       0x40 ../ecrobot/../ecrobot/libecrobot.a(ecrobot_interface.o)
 .text          0x00000000        0x0 ../ecrobot/../ecrobot/libecrobot.a(colorsensor.o)
 .data          0x00000000        0x0 ../ecrobot/../ecrobot/libecrobot.a(colorsensor.o)
 .bss           0x00000000        0x0 ../ecrobot/../ecrobot/libecrobot.a(colorsensor.o)
 .text.colorsensor_recv
                0x00000000       0x68 ../ecrobot/../ecrobot/libecrobot.a(colorsensor.o)
 .text.colorsensor_init
                0x00000000      0x108 ../ecrobot/../ecrobot/libecrobot.a(colorsensor.o)
 .text.colorsensor_term
                0x00000000       0x6c ../ecrobot/../ecrobot/libecrobot.a(colorsensor.o)
 .text.colorsensor_light_get
                0x00000000       0x44 ../ecrobot/../ecrobot/libecrobot.a(colorsensor.o)
 .text.colorsensor_light_full
                0x00000000       0xac ../ecrobot/../ecrobot/libecrobot.a(colorsensor.o)
 .text.colorsensor_rgb_get
                0x00000000       0x14 ../ecrobot/../ecrobot/libecrobot.a(colorsensor.o)
 .text.colorsensor_color_get
                0x00000000       0xfc ../ecrobot/../ecrobot/libecrobot.a(colorsensor.o)
 .bss.rgb_buf   0x00000000        0xc ../ecrobot/../ecrobot/libecrobot.a(colorsensor.o)
 .text          0x00000000        0x0 ../ecrobot/../ecrobot/libecrobot.a(uart.oram)
 .data          0x00000000        0x0 ../ecrobot/../ecrobot/libecrobot.a(uart.oram)
 .bss           0x00000000        0x0 ../ecrobot/../ecrobot/libecrobot.a(uart.oram)
 .text.uart_get_byte
                0x00000000       0x34 ../ecrobot/../ecrobot/libecrobot.a(uart.oram)
 .text.uart_put_byte
                0x00000000       0x44 ../ecrobot/../ecrobot/libecrobot.a(uart.oram)
 .text.uart_put_str
                0x00000000       0x24 ../ecrobot/../ecrobot/libecrobot.a(uart.oram)
 .text.uart_set_break
                0x00000000       0x1c ../ecrobot/../ecrobot/libecrobot.a(uart.oram)
 .text.uart_clear_break
                0x00000000       0x1c ../ecrobot/../ecrobot/libecrobot.a(uart.oram)
 .text.uart_CheckBreak
                0x00000000        0x4 ../ecrobot/../ecrobot/libecrobot.a(uart.oram)
 .text.uart_init
                0x00000000      0x148 ../ecrobot/../ecrobot/libecrobot.a(uart.oram)
 .rodata.uart_init
                0x00000000       0x3c ../ecrobot/../ecrobot/libecrobot.a(uart.oram)
 .text.uart_close
                0x00000000        0x4 ../ecrobot/../ecrobot/libecrobot.a(uart.oram)
 .text.uart_us0_init_irq
                0x00000000       0x38 ../ecrobot/../ecrobot/libecrobot.a(uart.oram)
 .text.uart_us0_interrupts_enable
                0x00000000        0xc ../ecrobot/../ecrobot/libecrobot.a(uart.oram)
 .bss.rx_buffer
                0x00000000       0x20 ../ecrobot/../ecrobot/libecrobot.a(uart.oram)
 .bss.tx_buffer
                0x00000000       0x40 ../ecrobot/../ecrobot/libecrobot.a(uart.oram)
 .text          0x00000000        0x0 ../ecrobot/../ecrobot/libecrobot.a(systick.oram)
 .data          0x00000000        0x0 ../ecrobot/../ecrobot/libecrobot.a(systick.oram)
 .bss           0x00000000        0x0 ../ecrobot/../ecrobot/libecrobot.a(systick.oram)
 .text.systick_test
                0x00000000       0x1c ../ecrobot/../ecrobot/libecrobot.a(systick.oram)
 .bss.test_counter
                0x00000000        0x4 ../ecrobot/../ecrobot/libecrobot.a(systick.oram)
 .text          0x00000000        0x0 ../ecrobot/../ecrobot/libecrobot.a(byte_fifo.oram)
 .data          0x00000000        0x0 ../ecrobot/../ecrobot/libecrobot.a(byte_fifo.oram)
 .bss           0x00000000        0x0 ../ecrobot/../ecrobot/libecrobot.a(byte_fifo.oram)
 .text.byte_fifo_clear
                0x00000000        0xc ../ecrobot/../ecrobot/libecrobot.a(byte_fifo.oram)
 .text.byte_fifo_init
                0x00000000       0x14 ../ecrobot/../ecrobot/libecrobot.a(byte_fifo.oram)
 .text          0x00000000        0x0 ../ecrobot/../ecrobot/libecrobot.a(aic.oram)
 .data          0x00000000        0x0 ../ecrobot/../ecrobot/libecrobot.a(aic.oram)
 .bss           0x00000000        0x0 ../ecrobot/../ecrobot/libecrobot.a(aic.oram)
 .text          0x00000000        0x0 ../ecrobot/../ecrobot/libecrobot.a(udp.oram)
 .data          0x00000000        0x0 ../ecrobot/../ecrobot/libecrobot.a(udp.oram)
 .bss           0x00000000        0x0 ../ecrobot/../ecrobot/libecrobot.a(udp.oram)
 .text.udp_reset
                0x00000000       0xac ../ecrobot/../ecrobot/libecrobot.a(udp.oram)
 .text.udp_read
                0x00000000      0x104 ../ecrobot/../ecrobot/libecrobot.a(udp.oram)
 .text.udp_disable
                0x00000000       0x40 ../ecrobot/../ecrobot/libecrobot.a(udp.oram)
 .text.udp_init
                0x00000000       0x18 ../ecrobot/../ecrobot/libecrobot.a(udp.oram)
 .text.udp_write
                0x00000000       0xac ../ecrobot/../ecrobot/libecrobot.a(udp.oram)
 .text.udp_status
                0x00000000       0x54 ../ecrobot/../ecrobot/libecrobot.a(udp.oram)
 .text.udp_enable
                0x00000000       0x6c ../ecrobot/../ecrobot/libecrobot.a(udp.oram)
 .text.udp_set_serialno
                0x00000000       0x1c ../ecrobot/../ecrobot/libecrobot.a(udp.oram)
 .text.udp_set_name
                0x00000000       0x28 ../ecrobot/../ecrobot/libecrobot.a(udp.oram)
 .text          0x00000000        0x0 ../ecrobot/../ecrobot/libecrobot.a(twi.oram)
 .data          0x00000000        0x0 ../ecrobot/../ecrobot/libecrobot.a(twi.oram)
 .bss           0x00000000        0x0 ../ecrobot/../ecrobot/libecrobot.a(twi.oram)
 .text          0x00000000        0x0 ../ecrobot/../ecrobot/libecrobot.a(nxt_spi.oram)
 .data          0x00000000        0x0 ../ecrobot/../ecrobot/libecrobot.a(nxt_spi.oram)
 .bss           0x00000000        0x0 ../ecrobot/../ecrobot/libecrobot.a(nxt_spi.oram)
 .text          0x00000000        0x0 ../ecrobot/../ecrobot/libecrobot.a(nxt_motors.oram)
 .data          0x00000000        0x0 ../ecrobot/../ecrobot/libecrobot.a(nxt_motors.oram)
 .bss           0x00000000        0x0 ../ecrobot/../ecrobot/libecrobot.a(nxt_motors.oram)
 .text.nxt_motor_get_count
                0x00000000       0x14 ../ecrobot/../ecrobot/libecrobot.a(nxt_motors.oram)
 .text.nxt_motor_command
                0x00000000       0x20 ../ecrobot/../ecrobot/libecrobot.a(nxt_motors.oram)
 .text          0x00000000        0x0 ../ecrobot/../ecrobot/libecrobot.a(data_abort.oram)
 .data          0x00000000        0x0 ../ecrobot/../ecrobot/libecrobot.a(data_abort.oram)
 .bss           0x00000000        0x0 ../ecrobot/../ecrobot/libecrobot.a(data_abort.oram)
 .text          0x00000000        0x0 ../ecrobot/../ecrobot/libecrobot.a(display.oram)
 .data          0x00000000        0x0 ../ecrobot/../ecrobot/libecrobot.a(display.oram)
 .bss           0x00000000        0x0 ../ecrobot/../ecrobot/libecrobot.a(display.oram)
 .text.display_set_auto_update
                0x00000000        0xc ../ecrobot/../ecrobot/libecrobot.a(display.oram)
 .text.display_get_buffer
                0x00000000        0xc ../ecrobot/../ecrobot/libecrobot.a(display.oram)
 .text.display_get_array
                0x00000000        0x8 ../ecrobot/../ecrobot/libecrobot.a(display.oram)
 .text.display_test
                0x00000000       0xb0 ../ecrobot/../ecrobot/libecrobot.a(display.oram)
 .text          0x00000000        0x0 ../ecrobot/../ecrobot/libecrobot.a(i2c.oram)
 .data          0x00000000        0x0 ../ecrobot/../ecrobot/libecrobot.a(i2c.oram)
 .bss           0x00000000        0x0 ../ecrobot/../ecrobot/libecrobot.a(i2c.oram)
 .text          0x00000000        0x0 ../ecrobot/../ecrobot/libecrobot.a(sound.oram)
 .data          0x00000000        0x0 ../ecrobot/../ecrobot/libecrobot.a(sound.oram)
 .bss           0x00000000        0x0 ../ecrobot/../ecrobot/libecrobot.a(sound.oram)
 .rodata.logvol
                0x00000000        0xc ../ecrobot/../ecrobot/libecrobot.a(sound.oram)
 .rodata.sine   0x00000000       0x10 ../ecrobot/../ecrobot/libecrobot.a(sound.oram)
 .text.sound_interrupt_disable
                0x00000000       0x14 ../ecrobot/../ecrobot/libecrobot.a(sound.oram)
 .text.sound_disable
                0x00000000       0x10 ../ecrobot/../ecrobot/libecrobot.a(sound.oram)
 .text.set_vol  0x00000000       0xa4 ../ecrobot/../ecrobot/libecrobot.a(sound.oram)
 .text.sound_interrupt_enable
                0x00000000       0x1c ../ecrobot/../ecrobot/libecrobot.a(sound.oram)
 .text.sound_enable
                0x00000000       0x10 ../ecrobot/../ecrobot/libecrobot.a(sound.oram)
 .text.sound_play_stream_next
                0x00000000       0x3c ../ecrobot/../ecrobot/libecrobot.a(sound.oram)
 .text.sound_get_play_status
                0x00000000       0x28 ../ecrobot/../ecrobot/libecrobot.a(sound.oram)
 .text.sound_get_time
                0x00000000       0x88 ../ecrobot/../ecrobot/libecrobot.a(sound.oram)
 .text.sound_freq_vol
                0x00000000      0x1ec ../ecrobot/../ecrobot/libecrobot.a(sound.oram)
 .text.sound_freq
                0x00000000        0xc ../ecrobot/../ecrobot/libecrobot.a(sound.oram)
 .text.sound_play_sample
                0x00000000       0xb0 ../ecrobot/../ecrobot/libecrobot.a(sound.oram)
 .text.sound_play_stream
                0x00000000       0x78 ../ecrobot/../ecrobot/libecrobot.a(sound.oram)
 .text.sound_play_stream_setup
                0x00000000       0x9c ../ecrobot/../ecrobot/libecrobot.a(sound.oram)
 .text          0x00000000        0x0 ../ecrobot/../ecrobot/libecrobot.a(bt.oram)
 .data          0x00000000        0x0 ../ecrobot/../ecrobot/libecrobot.a(bt.oram)
 .bss           0x00000000        0x0 ../ecrobot/../ecrobot/libecrobot.a(bt.oram)
 .text.bt_start_ad_converter
                0x00000000        0x4 ../ecrobot/../ecrobot/libecrobot.a(bt.oram)
 .text.bt_get_mode
                0x00000000        0xc ../ecrobot/../ecrobot/libecrobot.a(bt.oram)
 .text.bt_send  0x00000000       0x5c ../ecrobot/../ecrobot/libecrobot.a(bt.oram)
 .text.bt_write
                0x00000000       0x70 ../ecrobot/../ecrobot/libecrobot.a(bt.oram)
 .text.bt_pending
                0x00000000       0x50 ../ecrobot/../ecrobot/libecrobot.a(bt.oram)
 .text.bt_clear_arm7_cmd
                0x00000000       0x10 ../ecrobot/../ecrobot/libecrobot.a(bt.oram)
 .text.bt_set_arm7_cmd
                0x00000000       0x10 ../ecrobot/../ecrobot/libecrobot.a(bt.oram)
 .text.bt_set_reset_high
                0x00000000       0x10 ../ecrobot/../ecrobot/libecrobot.a(bt.oram)
 .text.bt_receive
                0x00000000      0x160 ../ecrobot/../ecrobot/libecrobot.a(bt.oram)
 .text.bt_read  0x00000000      0x140 ../ecrobot/../ecrobot/libecrobot.a(bt.oram)
 .text.bt_set_reset_low
                0x00000000       0x10 ../ecrobot/../ecrobot/libecrobot.a(bt.oram)
 .text.bt_reset
                0x00000000       0x84 ../ecrobot/../ecrobot/libecrobot.a(bt.oram)
 .bss.out_buf   0x00000000      0x200 ../ecrobot/../ecrobot/libecrobot.a(bt.oram)
 .text          0x00000000        0x0 ../ecrobot/../ecrobot/libecrobot.a(nxt_avr.oram)
 .data          0x00000000        0x0 ../ecrobot/../ecrobot/libecrobot.a(nxt_avr.oram)
 .bss           0x00000000        0x0 ../ecrobot/../ecrobot/libecrobot.a(nxt_avr.oram)
 .text.nxt_avr_firmware_update_mode
                0x00000000       0x14 ../ecrobot/../ecrobot/libecrobot.a(nxt_avr.oram)
 .text          0x00000000        0x0 ../ecrobot/../ecrobot/libecrobot.a(sensors.oram)
 .data          0x00000000        0x0 ../ecrobot/../ecrobot/libecrobot.a(sensors.oram)
 .bss           0x00000000        0x0 ../ecrobot/../ecrobot/libecrobot.a(sensors.oram)
 .bss.sensors   0x00000000       0x20 ../ecrobot/../ecrobot/libecrobot.a(sensors.oram)
 .text.poll_sensors
                0x00000000       0x20 ../ecrobot/../ecrobot/libecrobot.a(sensors.oram)
 .text.read_buttons
                0x00000000       0x10 ../ecrobot/../ecrobot/libecrobot.a(sensors.oram)
 .text.check_for_data
                0x00000000        0x8 ../ecrobot/../ecrobot/libecrobot.a(sensors.oram)
 .rodata.C.35.1840
                0x00000000       0x10 ../ecrobot/../ecrobot/libecrobot.a(sensors.oram)
 .text.set_digi1
                0x00000000       0x44 ../ecrobot/../ecrobot/libecrobot.a(sensors.oram)
 .text          0x00000000        0x0 ../ecrobot/../ecrobot/libecrobot.a(sensors1.oram)
 .data          0x00000000        0x0 ../ecrobot/../ecrobot/libecrobot.a(sensors1.oram)
 .bss           0x00000000        0x0 ../ecrobot/../ecrobot/libecrobot.a(sensors1.oram)
 .rodata.sensor_pins
                0x00000000       0x40 ../ecrobot/../ecrobot/libecrobot.a(sensors1.oram)
 .text.sp_set_mode
                0x00000000       0x88 ../ecrobot/../ecrobot/libecrobot.a(sensors1.oram)
 .text.sp_set   0x00000000       0x24 ../ecrobot/../ecrobot/libecrobot.a(sensors1.oram)
 .text.sp_read  0x00000000       0x20 ../ecrobot/../ecrobot/libecrobot.a(sensors1.oram)
 .text.sp_get   0x00000000       0x20 ../ecrobot/../ecrobot/libecrobot.a(sensors1.oram)
 .text.sp_set_power
                0x00000000        0xc ../ecrobot/../ecrobot/libecrobot.a(sensors1.oram)
 .text.sp_reset
                0x00000000       0x54 ../ecrobot/../ecrobot/libecrobot.a(sensors1.oram)
 .text.sp_init  0x00000000       0x18 ../ecrobot/../ecrobot/libecrobot.a(sensors1.oram)
 .text          0x00000000        0x0 ../ecrobot/../ecrobot/libecrobot.a(nxt_lcd.oram)
 .data          0x00000000        0x0 ../ecrobot/../ecrobot/libecrobot.a(nxt_lcd.oram)
 .bss           0x00000000        0x0 ../ecrobot/../ecrobot/libecrobot.a(nxt_lcd.oram)
 .text.nxt_lcd_set_temp_comp
                0x00000000       0x18 ../ecrobot/../ecrobot/libecrobot.a(nxt_lcd.oram)
 .text.nxt_lcd_set_panel_loading
                0x00000000       0x14 ../ecrobot/../ecrobot/libecrobot.a(nxt_lcd.oram)
 .text.nxt_lcd_set_pump_control
                0x00000000       0x18 ../ecrobot/../ecrobot/libecrobot.a(nxt_lcd.oram)
 .text.nxt_lcd_set_scroll_line
                0x00000000       0x18 ../ecrobot/../ecrobot/libecrobot.a(nxt_lcd.oram)
 .text.nxt_lcd_set_frame_rate
                0x00000000       0x18 ../ecrobot/../ecrobot/libecrobot.a(nxt_lcd.oram)
 .text.nxt_lcd_set_all_pixels_on
                0x00000000       0x14 ../ecrobot/../ecrobot/libecrobot.a(nxt_lcd.oram)
 .text.nxt_lcd_inverse_display
                0x00000000       0x14 ../ecrobot/../ecrobot/libecrobot.a(nxt_lcd.oram)
 .text.nxt_lcd_set_cursor_update
                0x00000000       0x14 ../ecrobot/../ecrobot/libecrobot.a(nxt_lcd.oram)
 .text          0x00000000        0x0 ../ecrobot/../ecrobot/libecrobot.a(flash_loader.oram)
 .data          0x00000000        0x0 ../ecrobot/../ecrobot/libecrobot.a(flash_loader.oram)
 .bss           0x00000000        0x0 ../ecrobot/../ecrobot/libecrobot.a(flash_loader.oram)
 .text.is_bios_version_equal
                0x00000000       0x20 ../ecrobot/../ecrobot/libecrobot.a(flash_loader.oram)
 .text.has_flash_request
                0x00000000       0x20 ../ecrobot/../ecrobot/libecrobot.a(flash_loader.oram)
 .text.clear_flash_request
                0x00000000       0x2c ../ecrobot/../ecrobot/libecrobot.a(flash_loader.oram)
 .text.exec_app
                0x00000000       0x28 ../ecrobot/../ecrobot/libecrobot.a(flash_loader.oram)
 .text.terminate_flash
                0x00000000       0x24 ../ecrobot/../ecrobot/libecrobot.a(flash_loader.oram)
 .text.flash_loader
                0x00000000      0x1c4 ../ecrobot/../ecrobot/libecrobot.a(flash_loader.oram)
 .data          0x00000000        0x0 ../ecrobot/../ecrobot/libecrobot.a(interrupts.oram)
 .bss           0x00000000        0x0 ../ecrobot/../ecrobot/libecrobot.a(interrupts.oram)
 .text          0x00000000        0x0 ../ecrobot/../ecrobot/libecrobot.a(ecrobot_usb.o)
 .data          0x00000000        0x0 ../ecrobot/../ecrobot/libecrobot.a(ecrobot_usb.o)
 .bss           0x00000000        0x0 ../ecrobot/../ecrobot/libecrobot.a(ecrobot_usb.o)
 .bss.usb_status
                0x00000000        0x1 ../ecrobot/../ecrobot/libecrobot.a(ecrobot_usb.o)
 .rodata.ecrobot_sig
                0x00000000        0x7 ../ecrobot/../ecrobot/libecrobot.a(ecrobot_usb.o)
 .data.dev_name
                0x00000000       0x10 ../ecrobot/../ecrobot/libecrobot.a(ecrobot_usb.o)
 .rodata.str1.4
                0x00000000       0x14 ../ecrobot/../ecrobot/libecrobot.a(ecrobot_usb.o)
 .text.ecrobot_init_usb
                0x00000000       0x50 ../ecrobot/../ecrobot/libecrobot.a(ecrobot_usb.o)
 .text.ecrobot_set_name_usb
                0x00000000       0x44 ../ecrobot/../ecrobot/libecrobot.a(ecrobot_usb.o)
 .text.ecrobot_process1ms_usb
                0x00000000       0xf8 ../ecrobot/../ecrobot/libecrobot.a(ecrobot_usb.o)
 .text.ecrobot_is_usb_connected
                0x00000000       0x18 ../ecrobot/../ecrobot/libecrobot.a(ecrobot_usb.o)
 .text.ecrobot_term_usb
                0x00000000       0x14 ../ecrobot/../ecrobot/libecrobot.a(ecrobot_usb.o)
 .text.ecrobot_disconnect_usb
                0x00000000       0x24 ../ecrobot/../ecrobot/libecrobot.a(ecrobot_usb.o)
 .text.ecrobot_read_usb
                0x00000000       0x4c ../ecrobot/../ecrobot/libecrobot.a(ecrobot_usb.o)
 .text.ecrobot_send_usb
                0x00000000       0x20 ../ecrobot/../ecrobot/libecrobot.a(ecrobot_usb.o)
 .bss.usb_buf   0x00000000       0x40 ../ecrobot/../ecrobot/libecrobot.a(ecrobot_usb.o)
 .bss.read_data_len
                0x00000000        0x4 ../ecrobot/../ecrobot/libecrobot.a(ecrobot_usb.o)
 .text          0x00000000        0x0 ../ecrobot/../ecrobot/libecrobot.a(flashprog.oram)
 .data          0x00000000        0x0 ../ecrobot/../ecrobot/libecrobot.a(flashprog.oram)
 .bss           0x00000000        0x0 ../ecrobot/../ecrobot/libecrobot.a(flashprog.oram)
 .text.flash_set_mode
                0x00000000       0x10 ../ecrobot/../ecrobot/libecrobot.a(flashprog.oram)
 .text.flash_erase_range
                0x00000000       0x20 ../ecrobot/../ecrobot/libecrobot.a(flashprog.oram)
 .text.flash_write
                0x00000000       0x20 ../ecrobot/../ecrobot/libecrobot.a(flashprog.oram)
 .text          0x00000000        0x0 /vagrant/gnuarm/lib/gcc/arm-elf/4.4.2/../../../../arm-elf/lib/thumb/interwork/libstdc++.a(pure.o)
 .data          0x00000000        0x0 /vagrant/gnuarm/lib/gcc/arm-elf/4.4.2/../../../../arm-elf/lib/thumb/interwork/libstdc++.a(pure.o)
 .bss           0x00000000        0x0 /vagrant/gnuarm/lib/gcc/arm-elf/4.4.2/../../../../arm-elf/lib/thumb/interwork/libstdc++.a(pure.o)
 .eh_frame      0x00000000       0x34 /vagrant/gnuarm/lib/gcc/arm-elf/4.4.2/../../../../arm-elf/lib/thumb/interwork/libstdc++.a(pure.o)
 .text          0x00000000        0x0 /vagrant/gnuarm/lib/gcc/arm-elf/4.4.2/../../../../arm-elf/lib/thumb/interwork/libstdc++.a(eh_personality.o)
 .data          0x00000000        0x0 /vagrant/gnuarm/lib/gcc/arm-elf/4.4.2/../../../../arm-elf/lib/thumb/interwork/libstdc++.a(eh_personality.o)
 .bss           0x00000000        0x0 /vagrant/gnuarm/lib/gcc/arm-elf/4.4.2/../../../../arm-elf/lib/thumb/interwork/libstdc++.a(eh_personality.o)
 .eh_frame      0x00000000      0x150 /vagrant/gnuarm/lib/gcc/arm-elf/4.4.2/../../../../arm-elf/lib/thumb/interwork/libstdc++.a(eh_personality.o)
 .text          0x00000000        0x0 /vagrant/gnuarm/lib/gcc/arm-elf/4.4.2/../../../../arm-elf/lib/thumb/interwork/libstdc++.a(eh_terminate.o)
 .data          0x00000000        0x0 /vagrant/gnuarm/lib/gcc/arm-elf/4.4.2/../../../../arm-elf/lib/thumb/interwork/libstdc++.a(eh_terminate.o)
 .bss           0x00000000        0x0 /vagrant/gnuarm/lib/gcc/arm-elf/4.4.2/../../../../arm-elf/lib/thumb/interwork/libstdc++.a(eh_terminate.o)
 .text._ZSt13set_terminatePFvvE
                0x00000000       0x10 /vagrant/gnuarm/lib/gcc/arm-elf/4.4.2/../../../../arm-elf/lib/thumb/interwork/libstdc++.a(eh_terminate.o)
 .text._ZSt14set_unexpectedPFvvE
                0x00000000       0x10 /vagrant/gnuarm/lib/gcc/arm-elf/4.4.2/../../../../arm-elf/lib/thumb/interwork/libstdc++.a(eh_terminate.o)
 .eh_frame      0x00000000       0xcc /vagrant/gnuarm/lib/gcc/arm-elf/4.4.2/../../../../arm-elf/lib/thumb/interwork/libstdc++.a(eh_terminate.o)
 .text          0x00000000        0x0 /vagrant/gnuarm/lib/gcc/arm-elf/4.4.2/../../../../arm-elf/lib/thumb/interwork/libstdc++.a(eh_throw.o)
 .data          0x00000000        0x0 /vagrant/gnuarm/lib/gcc/arm-elf/4.4.2/../../../../arm-elf/lib/thumb/interwork/libstdc++.a(eh_throw.o)
 .bss           0x00000000        0x0 /vagrant/gnuarm/lib/gcc/arm-elf/4.4.2/../../../../arm-elf/lib/thumb/interwork/libstdc++.a(eh_throw.o)
 .eh_frame      0x00000000       0x68 /vagrant/gnuarm/lib/gcc/arm-elf/4.4.2/../../../../arm-elf/lib/thumb/interwork/libstdc++.a(eh_throw.o)
 .text          0x00000000        0x0 /vagrant/gnuarm/lib/gcc/arm-elf/4.4.2/../../../../arm-elf/lib/thumb/interwork/libstdc++.a(eh_unex_handler.o)
 .data          0x00000000        0x0 /vagrant/gnuarm/lib/gcc/arm-elf/4.4.2/../../../../arm-elf/lib/thumb/interwork/libstdc++.a(eh_unex_handler.o)
 .bss           0x00000000        0x0 /vagrant/gnuarm/lib/gcc/arm-elf/4.4.2/../../../../arm-elf/lib/thumb/interwork/libstdc++.a(eh_unex_handler.o)
 .text          0x00000000        0x0 /vagrant/gnuarm/lib/gcc/arm-elf/4.4.2/../../../../arm-elf/lib/thumb/interwork/libstdc++.a(eh_alloc.o)
 .data          0x00000000        0x0 /vagrant/gnuarm/lib/gcc/arm-elf/4.4.2/../../../../arm-elf/lib/thumb/interwork/libstdc++.a(eh_alloc.o)
 .bss           0x00000000        0x0 /vagrant/gnuarm/lib/gcc/arm-elf/4.4.2/../../../../arm-elf/lib/thumb/interwork/libstdc++.a(eh_alloc.o)
 .text.__cxa_free_dependent_exception
                0x00000000       0x38 /vagrant/gnuarm/lib/gcc/arm-elf/4.4.2/../../../../arm-elf/lib/thumb/interwork/libstdc++.a(eh_alloc.o)
 .text.__cxa_allocate_dependent_exception
                0x00000000       0xd0 /vagrant/gnuarm/lib/gcc/arm-elf/4.4.2/../../../../arm-elf/lib/thumb/interwork/libstdc++.a(eh_alloc.o)
 .bss._ZL15dependents_used
                0x00000000        0x4 /vagrant/gnuarm/lib/gcc/arm-elf/4.4.2/../../../../arm-elf/lib/thumb/interwork/libstdc++.a(eh_alloc.o)
 .bss._ZL17dependents_buffer
                0x00000000       0xf0 /vagrant/gnuarm/lib/gcc/arm-elf/4.4.2/../../../../arm-elf/lib/thumb/interwork/libstdc++.a(eh_alloc.o)
 .eh_frame      0x00000000       0xc4 /vagrant/gnuarm/lib/gcc/arm-elf/4.4.2/../../../../arm-elf/lib/thumb/interwork/libstdc++.a(eh_alloc.o)
 .text          0x00000000        0x0 /vagrant/gnuarm/lib/gcc/arm-elf/4.4.2/../../../../arm-elf/lib/thumb/interwork/libstdc++.a(eh_call.o)
 .data          0x00000000        0x0 /vagrant/gnuarm/lib/gcc/arm-elf/4.4.2/../../../../arm-elf/lib/thumb/interwork/libstdc++.a(eh_call.o)
 .bss           0x00000000        0x0 /vagrant/gnuarm/lib/gcc/arm-elf/4.4.2/../../../../arm-elf/lib/thumb/interwork/libstdc++.a(eh_call.o)
 .eh_frame      0x00000000       0x34 /vagrant/gnuarm/lib/gcc/arm-elf/4.4.2/../../../../arm-elf/lib/thumb/interwork/libstdc++.a(eh_call.o)
 .text          0x00000000        0x0 /vagrant/gnuarm/lib/gcc/arm-elf/4.4.2/../../../../arm-elf/lib/thumb/interwork/libstdc++.a(eh_catch.o)
 .data          0x00000000        0x0 /vagrant/gnuarm/lib/gcc/arm-elf/4.4.2/../../../../arm-elf/lib/thumb/interwork/libstdc++.a(eh_catch.o)
 .bss           0x00000000        0x0 /vagrant/gnuarm/lib/gcc/arm-elf/4.4.2/../../../../arm-elf/lib/thumb/interwork/libstdc++.a(eh_catch.o)
 .text.__cxa_get_exception_ptr
                0x00000000        0x8 /vagrant/gnuarm/lib/gcc/arm-elf/4.4.2/../../../../arm-elf/lib/thumb/interwork/libstdc++.a(eh_catch.o)
 .text._ZSt18uncaught_exceptionv
                0x00000000       0x10 /vagrant/gnuarm/lib/gcc/arm-elf/4.4.2/../../../../arm-elf/lib/thumb/interwork/libstdc++.a(eh_catch.o)
 .eh_frame      0x00000000       0xa8 /vagrant/gnuarm/lib/gcc/arm-elf/4.4.2/../../../../arm-elf/lib/thumb/interwork/libstdc++.a(eh_catch.o)
 .group         0x00000000        0x8 /vagrant/gnuarm/lib/gcc/arm-elf/4.4.2/../../../../arm-elf/lib/thumb/interwork/libstdc++.a(eh_exception.o)
 .group         0x00000000        0x8 /vagrant/gnuarm/lib/gcc/arm-elf/4.4.2/../../../../arm-elf/lib/thumb/interwork/libstdc++.a(eh_exception.o)
 .group         0x00000000        0x8 /vagrant/gnuarm/lib/gcc/arm-elf/4.4.2/../../../../arm-elf/lib/thumb/interwork/libstdc++.a(eh_exception.o)
 .group         0x00000000        0x8 /vagrant/gnuarm/lib/gcc/arm-elf/4.4.2/../../../../arm-elf/lib/thumb/interwork/libstdc++.a(eh_exception.o)
 .group         0x00000000        0x8 /vagrant/gnuarm/lib/gcc/arm-elf/4.4.2/../../../../arm-elf/lib/thumb/interwork/libstdc++.a(eh_exception.o)
 .group         0x00000000        0x8 /vagrant/gnuarm/lib/gcc/arm-elf/4.4.2/../../../../arm-elf/lib/thumb/interwork/libstdc++.a(eh_exception.o)
 .group         0x00000000        0x8 /vagrant/gnuarm/lib/gcc/arm-elf/4.4.2/../../../../arm-elf/lib/thumb/interwork/libstdc++.a(eh_exception.o)
 .group         0x00000000        0x8 /vagrant/gnuarm/lib/gcc/arm-elf/4.4.2/../../../../arm-elf/lib/thumb/interwork/libstdc++.a(eh_exception.o)
 .group         0x00000000        0x8 /vagrant/gnuarm/lib/gcc/arm-elf/4.4.2/../../../../arm-elf/lib/thumb/interwork/libstdc++.a(eh_exception.o)
 .group         0x00000000        0x8 /vagrant/gnuarm/lib/gcc/arm-elf/4.4.2/../../../../arm-elf/lib/thumb/interwork/libstdc++.a(eh_exception.o)
 .group         0x00000000        0x8 /vagrant/gnuarm/lib/gcc/arm-elf/4.4.2/../../../../arm-elf/lib/thumb/interwork/libstdc++.a(eh_exception.o)
 .group         0x00000000        0x8 /vagrant/gnuarm/lib/gcc/arm-elf/4.4.2/../../../../arm-elf/lib/thumb/interwork/libstdc++.a(eh_exception.o)
 .text          0x00000000        0x0 /vagrant/gnuarm/lib/gcc/arm-elf/4.4.2/../../../../arm-elf/lib/thumb/interwork/libstdc++.a(eh_exception.o)
 .data          0x00000000        0x0 /vagrant/gnuarm/lib/gcc/arm-elf/4.4.2/../../../../arm-elf/lib/thumb/interwork/libstdc++.a(eh_exception.o)
 .bss           0x00000000        0x0 /vagrant/gnuarm/lib/gcc/arm-elf/4.4.2/../../../../arm-elf/lib/thumb/interwork/libstdc++.a(eh_exception.o)
 .text._ZNSt9exceptionD2Ev
                0x00000000        0xc /vagrant/gnuarm/lib/gcc/arm-elf/4.4.2/../../../../arm-elf/lib/thumb/interwork/libstdc++.a(eh_exception.o)
 .text._ZNSt13bad_exceptionD2Ev
                0x00000000        0xc /vagrant/gnuarm/lib/gcc/arm-elf/4.4.2/../../../../arm-elf/lib/thumb/interwork/libstdc++.a(eh_exception.o)
 .text._ZN10__cxxabiv115__forced_unwindD2Ev
                0x00000000        0xc /vagrant/gnuarm/lib/gcc/arm-elf/4.4.2/../../../../arm-elf/lib/thumb/interwork/libstdc++.a(eh_exception.o)
 .text._ZN10__cxxabiv115__forced_unwindD1Ev
                0x00000000        0xc /vagrant/gnuarm/lib/gcc/arm-elf/4.4.2/../../../../arm-elf/lib/thumb/interwork/libstdc++.a(eh_exception.o)
 .text._ZN10__cxxabiv119__foreign_exceptionD2Ev
                0x00000000        0xc /vagrant/gnuarm/lib/gcc/arm-elf/4.4.2/../../../../arm-elf/lib/thumb/interwork/libstdc++.a(eh_exception.o)
 .text._ZN10__cxxabiv119__foreign_exceptionD1Ev
                0x00000000        0xc /vagrant/gnuarm/lib/gcc/arm-elf/4.4.2/../../../../arm-elf/lib/thumb/interwork/libstdc++.a(eh_exception.o)
 .text._ZN10__cxxabiv119__foreign_exceptionD0Ev
                0x00000000       0x14 /vagrant/gnuarm/lib/gcc/arm-elf/4.4.2/../../../../arm-elf/lib/thumb/interwork/libstdc++.a(eh_exception.o)
 .text._ZN10__cxxabiv115__forced_unwindD0Ev
                0x00000000       0x14 /vagrant/gnuarm/lib/gcc/arm-elf/4.4.2/../../../../arm-elf/lib/thumb/interwork/libstdc++.a(eh_exception.o)
 .rodata._ZTVN10__cxxabiv119__foreign_exceptionE
                0x00000000       0x14 /vagrant/gnuarm/lib/gcc/arm-elf/4.4.2/../../../../arm-elf/lib/thumb/interwork/libstdc++.a(eh_exception.o)
 .rodata._ZTVN10__cxxabiv115__forced_unwindE
                0x00000000       0x14 /vagrant/gnuarm/lib/gcc/arm-elf/4.4.2/../../../../arm-elf/lib/thumb/interwork/libstdc++.a(eh_exception.o)
 .eh_frame      0x00000000      0x144 /vagrant/gnuarm/lib/gcc/arm-elf/4.4.2/../../../../arm-elf/lib/thumb/interwork/libstdc++.a(eh_exception.o)
 .text          0x00000000        0x0 /vagrant/gnuarm/lib/gcc/arm-elf/4.4.2/../../../../arm-elf/lib/thumb/interwork/libstdc++.a(eh_globals.o)
 .data          0x00000000        0x0 /vagrant/gnuarm/lib/gcc/arm-elf/4.4.2/../../../../arm-elf/lib/thumb/interwork/libstdc++.a(eh_globals.o)
 .bss           0x00000000        0x0 /vagrant/gnuarm/lib/gcc/arm-elf/4.4.2/../../../../arm-elf/lib/thumb/interwork/libstdc++.a(eh_globals.o)
 .eh_frame      0x00000000       0x44 /vagrant/gnuarm/lib/gcc/arm-elf/4.4.2/../../../../arm-elf/lib/thumb/interwork/libstdc++.a(eh_globals.o)
 .text          0x00000000        0x0 /vagrant/gnuarm/lib/gcc/arm-elf/4.4.2/../../../../arm-elf/lib/thumb/interwork/libstdc++.a(eh_term_handler.o)
 .data          0x00000000        0x0 /vagrant/gnuarm/lib/gcc/arm-elf/4.4.2/../../../../arm-elf/lib/thumb/interwork/libstdc++.a(eh_term_handler.o)
 .bss           0x00000000        0x0 /vagrant/gnuarm/lib/gcc/arm-elf/4.4.2/../../../../arm-elf/lib/thumb/interwork/libstdc++.a(eh_term_handler.o)
 .group         0x00000000        0x8 /vagrant/gnuarm/lib/gcc/arm-elf/4.4.2/../../../../arm-elf/lib/thumb/interwork/libstdc++.a(si_class_type_info.o)
 .group         0x00000000        0x8 /vagrant/gnuarm/lib/gcc/arm-elf/4.4.2/../../../../arm-elf/lib/thumb/interwork/libstdc++.a(si_class_type_info.o)
 .group         0x00000000        0x8 /vagrant/gnuarm/lib/gcc/arm-elf/4.4.2/../../../../arm-elf/lib/thumb/interwork/libstdc++.a(si_class_type_info.o)
 .text          0x00000000        0x0 /vagrant/gnuarm/lib/gcc/arm-elf/4.4.2/../../../../arm-elf/lib/thumb/interwork/libstdc++.a(si_class_type_info.o)
 .data          0x00000000        0x0 /vagrant/gnuarm/lib/gcc/arm-elf/4.4.2/../../../../arm-elf/lib/thumb/interwork/libstdc++.a(si_class_type_info.o)
 .bss           0x00000000        0x0 /vagrant/gnuarm/lib/gcc/arm-elf/4.4.2/../../../../arm-elf/lib/thumb/interwork/libstdc++.a(si_class_type_info.o)
 .text._ZN10__cxxabiv120__si_class_type_infoD2Ev
                0x00000000       0x14 /vagrant/gnuarm/lib/gcc/arm-elf/4.4.2/../../../../arm-elf/lib/thumb/interwork/libstdc++.a(si_class_type_info.o)
 .eh_frame      0x00000000       0xcc /vagrant/gnuarm/lib/gcc/arm-elf/4.4.2/../../../../arm-elf/lib/thumb/interwork/libstdc++.a(si_class_type_info.o)
 .group         0x00000000        0x8 /vagrant/gnuarm/lib/gcc/arm-elf/4.4.2/../../../../arm-elf/lib/thumb/interwork/libstdc++.a(tinfo.o)
 .group         0x00000000        0x8 /vagrant/gnuarm/lib/gcc/arm-elf/4.4.2/../../../../arm-elf/lib/thumb/interwork/libstdc++.a(tinfo.o)
 .group         0x00000000        0x8 /vagrant/gnuarm/lib/gcc/arm-elf/4.4.2/../../../../arm-elf/lib/thumb/interwork/libstdc++.a(tinfo.o)
 .text          0x00000000        0x0 /vagrant/gnuarm/lib/gcc/arm-elf/4.4.2/../../../../arm-elf/lib/thumb/interwork/libstdc++.a(tinfo.o)
 .data          0x00000000        0x0 /vagrant/gnuarm/lib/gcc/arm-elf/4.4.2/../../../../arm-elf/lib/thumb/interwork/libstdc++.a(tinfo.o)
 .bss           0x00000000        0x0 /vagrant/gnuarm/lib/gcc/arm-elf/4.4.2/../../../../arm-elf/lib/thumb/interwork/libstdc++.a(tinfo.o)
 .eh_frame      0x00000000       0xac /vagrant/gnuarm/lib/gcc/arm-elf/4.4.2/../../../../arm-elf/lib/thumb/interwork/libstdc++.a(tinfo.o)
 .text          0x00000000        0x0 /vagrant/gnuarm/lib/gcc/arm-elf/4.4.2/../../../../arm-elf/lib/thumb/interwork/libstdc++.a(vterminate.o)
 .data          0x00000000        0x0 /vagrant/gnuarm/lib/gcc/arm-elf/4.4.2/../../../../arm-elf/lib/thumb/interwork/libstdc++.a(vterminate.o)
 .bss           0x00000000        0x0 /vagrant/gnuarm/lib/gcc/arm-elf/4.4.2/../../../../arm-elf/lib/thumb/interwork/libstdc++.a(vterminate.o)
 .eh_frame      0x00000000       0x40 /vagrant/gnuarm/lib/gcc/arm-elf/4.4.2/../../../../arm-elf/lib/thumb/interwork/libstdc++.a(vterminate.o)
 .group         0x00000000        0x8 /vagrant/gnuarm/lib/gcc/arm-elf/4.4.2/../../../../arm-elf/lib/thumb/interwork/libstdc++.a(class_type_info.o)
 .group         0x00000000        0x8 /vagrant/gnuarm/lib/gcc/arm-elf/4.4.2/../../../../arm-elf/lib/thumb/interwork/libstdc++.a(class_type_info.o)
 .group         0x00000000        0x8 /vagrant/gnuarm/lib/gcc/arm-elf/4.4.2/../../../../arm-elf/lib/thumb/interwork/libstdc++.a(class_type_info.o)
 .text          0x00000000        0x0 /vagrant/gnuarm/lib/gcc/arm-elf/4.4.2/../../../../arm-elf/lib/thumb/interwork/libstdc++.a(class_type_info.o)
 .data          0x00000000        0x0 /vagrant/gnuarm/lib/gcc/arm-elf/4.4.2/../../../../arm-elf/lib/thumb/interwork/libstdc++.a(class_type_info.o)
 .bss           0x00000000        0x0 /vagrant/gnuarm/lib/gcc/arm-elf/4.4.2/../../../../arm-elf/lib/thumb/interwork/libstdc++.a(class_type_info.o)
 .eh_frame      0x00000000       0xe4 /vagrant/gnuarm/lib/gcc/arm-elf/4.4.2/../../../../arm-elf/lib/thumb/interwork/libstdc++.a(class_type_info.o)
 .data          0x00000000        0x0 /vagrant/gnuarm/lib/gcc/arm-elf/4.4.2/../../../../arm-elf/lib/thumb/interwork/libstdc++.a(cp-demangle.o)
 .bss           0x00000000        0x0 /vagrant/gnuarm/lib/gcc/arm-elf/4.4.2/../../../../arm-elf/lib/thumb/interwork/libstdc++.a(cp-demangle.o)
 .eh_frame      0x00000000      0x4a8 /vagrant/gnuarm/lib/gcc/arm-elf/4.4.2/../../../../arm-elf/lib/thumb/interwork/libstdc++.a(cp-demangle.o)
 .text          0x00000000        0x0 /vagrant/gnuarm/lib/gcc/arm-elf/4.4.2/../../../../arm-elf/lib/thumb/interwork/libstdc++.a(eh_type.o)
 .data          0x00000000        0x0 /vagrant/gnuarm/lib/gcc/arm-elf/4.4.2/../../../../arm-elf/lib/thumb/interwork/libstdc++.a(eh_type.o)
 .bss           0x00000000        0x0 /vagrant/gnuarm/lib/gcc/arm-elf/4.4.2/../../../../arm-elf/lib/thumb/interwork/libstdc++.a(eh_type.o)
 .eh_frame      0x00000000       0x34 /vagrant/gnuarm/lib/gcc/arm-elf/4.4.2/../../../../arm-elf/lib/thumb/interwork/libstdc++.a(eh_type.o)
 .data          0x00000000        0x0 /vagrant/gnuarm/lib/gcc/arm-elf/4.4.2/thumb/interwork/libgcc.a(_udivsi3.o)
 .bss           0x00000000        0x0 /vagrant/gnuarm/lib/gcc/arm-elf/4.4.2/thumb/interwork/libgcc.a(_udivsi3.o)
 .data          0x00000000        0x0 /vagrant/gnuarm/lib/gcc/arm-elf/4.4.2/thumb/interwork/libgcc.a(_divsi3.o)
 .bss           0x00000000        0x0 /vagrant/gnuarm/lib/gcc/arm-elf/4.4.2/thumb/interwork/libgcc.a(_divsi3.o)
 .data          0x00000000        0x0 /vagrant/gnuarm/lib/gcc/arm-elf/4.4.2/thumb/interwork/libgcc.a(_umodsi3.o)
 .bss           0x00000000        0x0 /vagrant/gnuarm/lib/gcc/arm-elf/4.4.2/thumb/interwork/libgcc.a(_umodsi3.o)
 .data          0x00000000        0x0 /vagrant/gnuarm/lib/gcc/arm-elf/4.4.2/thumb/interwork/libgcc.a(_modsi3.o)
 .bss           0x00000000        0x0 /vagrant/gnuarm/lib/gcc/arm-elf/4.4.2/thumb/interwork/libgcc.a(_modsi3.o)
 .data          0x00000000        0x0 /vagrant/gnuarm/lib/gcc/arm-elf/4.4.2/thumb/interwork/libgcc.a(_dvmd_tls.o)
 .bss           0x00000000        0x0 /vagrant/gnuarm/lib/gcc/arm-elf/4.4.2/thumb/interwork/libgcc.a(_dvmd_tls.o)
 .data          0x00000000        0x0 /vagrant/gnuarm/lib/gcc/arm-elf/4.4.2/thumb/interwork/libgcc.a(_arm_addsubdf3.o)
 .bss           0x00000000        0x0 /vagrant/gnuarm/lib/gcc/arm-elf/4.4.2/thumb/interwork/libgcc.a(_arm_addsubdf3.o)
 .data          0x00000000        0x0 /vagrant/gnuarm/lib/gcc/arm-elf/4.4.2/thumb/interwork/libgcc.a(_arm_muldivdf3.o)
 .bss           0x00000000        0x0 /vagrant/gnuarm/lib/gcc/arm-elf/4.4.2/thumb/interwork/libgcc.a(_arm_muldivdf3.o)
 .data          0x00000000        0x0 /vagrant/gnuarm/lib/gcc/arm-elf/4.4.2/thumb/interwork/libgcc.a(_arm_cmpdf2.o)
 .bss           0x00000000        0x0 /vagrant/gnuarm/lib/gcc/arm-elf/4.4.2/thumb/interwork/libgcc.a(_arm_cmpdf2.o)
 .text          0x00000000       0x70 /vagrant/gnuarm/lib/gcc/arm-elf/4.4.2/thumb/interwork/libgcc.a(_muldi3.o)
 .data          0x00000000        0x0 /vagrant/gnuarm/lib/gcc/arm-elf/4.4.2/thumb/interwork/libgcc.a(_muldi3.o)
 .bss           0x00000000        0x0 /vagrant/gnuarm/lib/gcc/arm-elf/4.4.2/thumb/interwork/libgcc.a(_muldi3.o)
 .eh_frame      0x00000000       0x3c /vagrant/gnuarm/lib/gcc/arm-elf/4.4.2/thumb/interwork/libgcc.a(_muldi3.o)
 .text          0x00000000      0x384 /vagrant/gnuarm/lib/gcc/arm-elf/4.4.2/thumb/interwork/libgcc.a(_divdi3.o)
 .data          0x00000000        0x0 /vagrant/gnuarm/lib/gcc/arm-elf/4.4.2/thumb/interwork/libgcc.a(_divdi3.o)
 .bss           0x00000000        0x0 /vagrant/gnuarm/lib/gcc/arm-elf/4.4.2/thumb/interwork/libgcc.a(_divdi3.o)
 .eh_frame      0x00000000       0x40 /vagrant/gnuarm/lib/gcc/arm-elf/4.4.2/thumb/interwork/libgcc.a(_divdi3.o)
 .data          0x00000000        0x0 /vagrant/gnuarm/lib/gcc/arm-elf/4.4.2/thumb/interwork/libgcc.a(unwind-sjlj.o)
 .eh_frame      0x00000000      0x2f0 /vagrant/gnuarm/lib/gcc/arm-elf/4.4.2/thumb/interwork/libgcc.a(unwind-sjlj.o)
 .text          0x00000000       0x48 /vagrant/gnuarm/lib/gcc/arm-elf/4.4.2/thumb/interwork/libgcc.a(_clzsi2.o)
 .data          0x00000000        0x0 /vagrant/gnuarm/lib/gcc/arm-elf/4.4.2/thumb/interwork/libgcc.a(_clzsi2.o)
 .bss           0x00000000        0x0 /vagrant/gnuarm/lib/gcc/arm-elf/4.4.2/thumb/interwork/libgcc.a(_clzsi2.o)
 .data          0x00000000        0x0 /vagrant/gnuarm/lib/gcc/arm-elf/4.4.2/../../../../arm-elf/lib/thumb/interwork/libc.a(lib_a-abort.o)
 .bss           0x00000000        0x0 /vagrant/gnuarm/lib/gcc/arm-elf/4.4.2/../../../../arm-elf/lib/thumb/interwork/libc.a(lib_a-abort.o)
 .eh_frame      0x00000000       0x2c /vagrant/gnuarm/lib/gcc/arm-elf/4.4.2/../../../../arm-elf/lib/thumb/interwork/libc.a(lib_a-abort.o)
 .data          0x00000000        0x0 /vagrant/gnuarm/lib/gcc/arm-elf/4.4.2/../../../../arm-elf/lib/thumb/interwork/libc.a(lib_a-fputc.o)
 .bss           0x00000000        0x0 /vagrant/gnuarm/lib/gcc/arm-elf/4.4.2/../../../../arm-elf/lib/thumb/interwork/libc.a(lib_a-fputc.o)
 .eh_frame      0x00000000       0x4c /vagrant/gnuarm/lib/gcc/arm-elf/4.4.2/../../../../arm-elf/lib/thumb/interwork/libc.a(lib_a-fputc.o)
 .data          0x00000000        0x0 /vagrant/gnuarm/lib/gcc/arm-elf/4.4.2/../../../../arm-elf/lib/thumb/interwork/libc.a(lib_a-fputs.o)
 .bss           0x00000000        0x0 /vagrant/gnuarm/lib/gcc/arm-elf/4.4.2/../../../../arm-elf/lib/thumb/interwork/libc.a(lib_a-fputs.o)
 .eh_frame      0x00000000       0x4c /vagrant/gnuarm/lib/gcc/arm-elf/4.4.2/../../../../arm-elf/lib/thumb/interwork/libc.a(lib_a-fputs.o)
 .data          0x00000000        0x0 /vagrant/gnuarm/lib/gcc/arm-elf/4.4.2/../../../../arm-elf/lib/thumb/interwork/libc.a(lib_a-fvwrite.o)
 .bss           0x00000000        0x0 /vagrant/gnuarm/lib/gcc/arm-elf/4.4.2/../../../../arm-elf/lib/thumb/interwork/libc.a(lib_a-fvwrite.o)
 .eh_frame      0x00000000       0x40 /vagrant/gnuarm/lib/gcc/arm-elf/4.4.2/../../../../arm-elf/lib/thumb/interwork/libc.a(lib_a-fvwrite.o)
 .data          0x00000000        0x0 /vagrant/gnuarm/lib/gcc/arm-elf/4.4.2/../../../../arm-elf/lib/thumb/interwork/libc.a(lib_a-fwrite.o)
 .bss           0x00000000        0x0 /vagrant/gnuarm/lib/gcc/arm-elf/4.4.2/../../../../arm-elf/lib/thumb/interwork/libc.a(lib_a-fwrite.o)
 .eh_frame      0x00000000       0x5c /vagrant/gnuarm/lib/gcc/arm-elf/4.4.2/../../../../arm-elf/lib/thumb/interwork/libc.a(lib_a-fwrite.o)
 .text          0x00000000        0x0 /vagrant/gnuarm/lib/gcc/arm-elf/4.4.2/../../../../arm-elf/lib/thumb/interwork/libc.a(lib_a-impure.o)
 .bss           0x00000000        0x0 /vagrant/gnuarm/lib/gcc/arm-elf/4.4.2/../../../../arm-elf/lib/thumb/interwork/libc.a(lib_a-impure.o)
 .data          0x00000000        0x0 /vagrant/gnuarm/lib/gcc/arm-elf/4.4.2/../../../../arm-elf/lib/thumb/interwork/libc.a(lib_a-malloc.o)
 .bss           0x00000000        0x0 /vagrant/gnuarm/lib/gcc/arm-elf/4.4.2/../../../../arm-elf/lib/thumb/interwork/libc.a(lib_a-malloc.o)
 .eh_frame      0x00000000       0x44 /vagrant/gnuarm/lib/gcc/arm-elf/4.4.2/../../../../arm-elf/lib/thumb/interwork/libc.a(lib_a-malloc.o)
 .eh_frame      0x00000000       0x40 /vagrant/gnuarm/lib/gcc/arm-elf/4.4.2/../../../../arm-elf/lib/thumb/interwork/libc.a(lib_a-mallocr.o)
 .data          0x00000000        0x0 /vagrant/gnuarm/lib/gcc/arm-elf/4.4.2/../../../../arm-elf/lib/thumb/interwork/libc.a(lib_a-memchr.o)
 .bss           0x00000000        0x0 /vagrant/gnuarm/lib/gcc/arm-elf/4.4.2/../../../../arm-elf/lib/thumb/interwork/libc.a(lib_a-memchr.o)
 .eh_frame      0x00000000       0x34 /vagrant/gnuarm/lib/gcc/arm-elf/4.4.2/../../../../arm-elf/lib/thumb/interwork/libc.a(lib_a-memchr.o)
 .data          0x00000000        0x0 /vagrant/gnuarm/lib/gcc/arm-elf/4.4.2/../../../../arm-elf/lib/thumb/interwork/libc.a(lib_a-memcmp.o)
 .bss           0x00000000        0x0 /vagrant/gnuarm/lib/gcc/arm-elf/4.4.2/../../../../arm-elf/lib/thumb/interwork/libc.a(lib_a-memcmp.o)
 .eh_frame      0x00000000       0x30 /vagrant/gnuarm/lib/gcc/arm-elf/4.4.2/../../../../arm-elf/lib/thumb/interwork/libc.a(lib_a-memcmp.o)
 .data          0x00000000        0x0 /vagrant/gnuarm/lib/gcc/arm-elf/4.4.2/../../../../arm-elf/lib/thumb/interwork/libc.a(lib_a-memcpy.o)
 .bss           0x00000000        0x0 /vagrant/gnuarm/lib/gcc/arm-elf/4.4.2/../../../../arm-elf/lib/thumb/interwork/libc.a(lib_a-memcpy.o)
 .eh_frame      0x00000000       0x34 /vagrant/gnuarm/lib/gcc/arm-elf/4.4.2/../../../../arm-elf/lib/thumb/interwork/libc.a(lib_a-memcpy.o)
 .data          0x00000000        0x0 /vagrant/gnuarm/lib/gcc/arm-elf/4.4.2/../../../../arm-elf/lib/thumb/interwork/libc.a(lib_a-memmove.o)
 .bss           0x00000000        0x0 /vagrant/gnuarm/lib/gcc/arm-elf/4.4.2/../../../../arm-elf/lib/thumb/interwork/libc.a(lib_a-memmove.o)
 .eh_frame      0x00000000       0x34 /vagrant/gnuarm/lib/gcc/arm-elf/4.4.2/../../../../arm-elf/lib/thumb/interwork/libc.a(lib_a-memmove.o)
 .data          0x00000000        0x0 /vagrant/gnuarm/lib/gcc/arm-elf/4.4.2/../../../../arm-elf/lib/thumb/interwork/libc.a(lib_a-memset.o)
 .bss           0x00000000        0x0 /vagrant/gnuarm/lib/gcc/arm-elf/4.4.2/../../../../arm-elf/lib/thumb/interwork/libc.a(lib_a-memset.o)
 .eh_frame      0x00000000       0x30 /vagrant/gnuarm/lib/gcc/arm-elf/4.4.2/../../../../arm-elf/lib/thumb/interwork/libc.a(lib_a-memset.o)
 .data          0x00000000        0x0 /vagrant/gnuarm/lib/gcc/arm-elf/4.4.2/../../../../arm-elf/lib/thumb/interwork/libc.a(lib_a-mlock.o)
 .bss           0x00000000        0x0 /vagrant/gnuarm/lib/gcc/arm-elf/4.4.2/../../../../arm-elf/lib/thumb/interwork/libc.a(lib_a-mlock.o)
 .eh_frame      0x00000000       0x3c /vagrant/gnuarm/lib/gcc/arm-elf/4.4.2/../../../../arm-elf/lib/thumb/interwork/libc.a(lib_a-mlock.o)
 .data          0x00000000        0x0 /vagrant/gnuarm/lib/gcc/arm-elf/4.4.2/../../../../arm-elf/lib/thumb/interwork/libc.a(lib_a-putc.o)
 .bss           0x00000000        0x0 /vagrant/gnuarm/lib/gcc/arm-elf/4.4.2/../../../../arm-elf/lib/thumb/interwork/libc.a(lib_a-putc.o)
 .eh_frame      0x00000000       0x4c /vagrant/gnuarm/lib/gcc/arm-elf/4.4.2/../../../../arm-elf/lib/thumb/interwork/libc.a(lib_a-putc.o)
 .data          0x00000000        0x0 /vagrant/gnuarm/lib/gcc/arm-elf/4.4.2/../../../../arm-elf/lib/thumb/interwork/libc.a(lib_a-realloc.o)
 .bss           0x00000000        0x0 /vagrant/gnuarm/lib/gcc/arm-elf/4.4.2/../../../../arm-elf/lib/thumb/interwork/libc.a(lib_a-realloc.o)
 .eh_frame      0x00000000       0x2c /vagrant/gnuarm/lib/gcc/arm-elf/4.4.2/../../../../arm-elf/lib/thumb/interwork/libc.a(lib_a-realloc.o)
 .data          0x00000000        0x0 /vagrant/gnuarm/lib/gcc/arm-elf/4.4.2/../../../../arm-elf/lib/thumb/interwork/libc.a(lib_a-reallocr.o)
 .bss           0x00000000        0x0 /vagrant/gnuarm/lib/gcc/arm-elf/4.4.2/../../../../arm-elf/lib/thumb/interwork/libc.a(lib_a-reallocr.o)
 .eh_frame      0x00000000       0x40 /vagrant/gnuarm/lib/gcc/arm-elf/4.4.2/../../../../arm-elf/lib/thumb/interwork/libc.a(lib_a-reallocr.o)
 .data          0x00000000        0x0 /vagrant/gnuarm/lib/gcc/arm-elf/4.4.2/../../../../arm-elf/lib/thumb/interwork/libc.a(lib_a-signal.o)
 .bss           0x00000000        0x0 /vagrant/gnuarm/lib/gcc/arm-elf/4.4.2/../../../../arm-elf/lib/thumb/interwork/libc.a(lib_a-signal.o)
 .eh_frame      0x00000000       0xe8 /vagrant/gnuarm/lib/gcc/arm-elf/4.4.2/../../../../arm-elf/lib/thumb/interwork/libc.a(lib_a-signal.o)
 .data          0x00000000        0x0 /vagrant/gnuarm/lib/gcc/arm-elf/4.4.2/../../../../arm-elf/lib/thumb/interwork/libc.a(lib_a-signalr.o)
 .bss           0x00000000        0x0 /vagrant/gnuarm/lib/gcc/arm-elf/4.4.2/../../../../arm-elf/lib/thumb/interwork/libc.a(lib_a-signalr.o)
 .eh_frame      0x00000000       0x48 /vagrant/gnuarm/lib/gcc/arm-elf/4.4.2/../../../../arm-elf/lib/thumb/interwork/libc.a(lib_a-signalr.o)
 .data          0x00000000        0x0 /vagrant/gnuarm/lib/gcc/arm-elf/4.4.2/../../../../arm-elf/lib/thumb/interwork/libc.a(lib_a-sprintf.o)
 .bss           0x00000000        0x0 /vagrant/gnuarm/lib/gcc/arm-elf/4.4.2/../../../../arm-elf/lib/thumb/interwork/libc.a(lib_a-sprintf.o)
 .eh_frame      0x00000000       0x58 /vagrant/gnuarm/lib/gcc/arm-elf/4.4.2/../../../../arm-elf/lib/thumb/interwork/libc.a(lib_a-sprintf.o)
 .data          0x00000000        0x0 /vagrant/gnuarm/lib/gcc/arm-elf/4.4.2/../../../../arm-elf/lib/thumb/interwork/libc.a(lib_a-strcmp.o)
 .bss           0x00000000        0x0 /vagrant/gnuarm/lib/gcc/arm-elf/4.4.2/../../../../arm-elf/lib/thumb/interwork/libc.a(lib_a-strcmp.o)
 .eh_frame      0x00000000       0x28 /vagrant/gnuarm/lib/gcc/arm-elf/4.4.2/../../../../arm-elf/lib/thumb/interwork/libc.a(lib_a-strcmp.o)
 .data          0x00000000        0x0 /vagrant/gnuarm/lib/gcc/arm-elf/4.4.2/../../../../arm-elf/lib/thumb/interwork/libc.a(lib_a-strcpy.o)
 .bss           0x00000000        0x0 /vagrant/gnuarm/lib/gcc/arm-elf/4.4.2/../../../../arm-elf/lib/thumb/interwork/libc.a(lib_a-strcpy.o)
 .eh_frame      0x00000000       0x28 /vagrant/gnuarm/lib/gcc/arm-elf/4.4.2/../../../../arm-elf/lib/thumb/interwork/libc.a(lib_a-strcpy.o)
 .data          0x00000000        0x0 /vagrant/gnuarm/lib/gcc/arm-elf/4.4.2/../../../../arm-elf/lib/thumb/interwork/libc.a(lib_a-strlen.o)
 .bss           0x00000000        0x0 /vagrant/gnuarm/lib/gcc/arm-elf/4.4.2/../../../../arm-elf/lib/thumb/interwork/libc.a(lib_a-strlen.o)
 .eh_frame      0x00000000       0x28 /vagrant/gnuarm/lib/gcc/arm-elf/4.4.2/../../../../arm-elf/lib/thumb/interwork/libc.a(lib_a-strlen.o)
 .data          0x00000000        0x0 /vagrant/gnuarm/lib/gcc/arm-elf/4.4.2/../../../../arm-elf/lib/thumb/interwork/libc.a(lib_a-strncmp.o)
 .bss           0x00000000        0x0 /vagrant/gnuarm/lib/gcc/arm-elf/4.4.2/../../../../arm-elf/lib/thumb/interwork/libc.a(lib_a-strncmp.o)
 .eh_frame      0x00000000       0x30 /vagrant/gnuarm/lib/gcc/arm-elf/4.4.2/../../../../arm-elf/lib/thumb/interwork/libc.a(lib_a-strncmp.o)
 .text          0x00000000       0x64 /vagrant/gnuarm/lib/gcc/arm-elf/4.4.2/../../../../arm-elf/lib/thumb/interwork/libc.a(lib_a-strncpy.o)
 .data          0x00000000        0x0 /vagrant/gnuarm/lib/gcc/arm-elf/4.4.2/../../../../arm-elf/lib/thumb/interwork/libc.a(lib_a-strncpy.o)
 .bss           0x00000000        0x0 /vagrant/gnuarm/lib/gcc/arm-elf/4.4.2/../../../../arm-elf/lib/thumb/interwork/libc.a(lib_a-strncpy.o)
 .eh_frame      0x00000000       0x34 /vagrant/gnuarm/lib/gcc/arm-elf/4.4.2/../../../../arm-elf/lib/thumb/interwork/libc.a(lib_a-strncpy.o)
 .data          0x00000000        0x0 /vagrant/gnuarm/lib/gcc/arm-elf/4.4.2/../../../../arm-elf/lib/thumb/interwork/libc.a(lib_a-svfprintf.o)
 .bss           0x00000000        0x0 /vagrant/gnuarm/lib/gcc/arm-elf/4.4.2/../../../../arm-elf/lib/thumb/interwork/libc.a(lib_a-svfprintf.o)
 .eh_frame      0x00000000       0x44 /vagrant/gnuarm/lib/gcc/arm-elf/4.4.2/../../../../arm-elf/lib/thumb/interwork/libc.a(lib_a-svfprintf.o)
 .data          0x00000000        0x0 /vagrant/gnuarm/lib/gcc/arm-elf/4.4.2/../../../../arm-elf/lib/thumb/interwork/libc.a(lib_a-syscalls.o)
 .eh_frame      0x00000000      0x330 /vagrant/gnuarm/lib/gcc/arm-elf/4.4.2/../../../../arm-elf/lib/thumb/interwork/libc.a(lib_a-syscalls.o)
 .data          0x00000000        0x0 /vagrant/gnuarm/lib/gcc/arm-elf/4.4.2/../../../../arm-elf/lib/thumb/interwork/libc.a(lib_a-syswrite.o)
 .bss           0x00000000        0x0 /vagrant/gnuarm/lib/gcc/arm-elf/4.4.2/../../../../arm-elf/lib/thumb/interwork/libc.a(lib_a-syswrite.o)
 .eh_frame      0x00000000       0x30 /vagrant/gnuarm/lib/gcc/arm-elf/4.4.2/../../../../arm-elf/lib/thumb/interwork/libc.a(lib_a-syswrite.o)
 .data          0x00000000        0x0 /vagrant/gnuarm/lib/gcc/arm-elf/4.4.2/../../../../arm-elf/lib/thumb/interwork/libc.a(lib_a-wbuf.o)
 .bss           0x00000000        0x0 /vagrant/gnuarm/lib/gcc/arm-elf/4.4.2/../../../../arm-elf/lib/thumb/interwork/libc.a(lib_a-wbuf.o)
 .eh_frame      0x00000000       0x48 /vagrant/gnuarm/lib/gcc/arm-elf/4.4.2/../../../../arm-elf/lib/thumb/interwork/libc.a(lib_a-wbuf.o)
 .data          0x00000000        0x0 /vagrant/gnuarm/lib/gcc/arm-elf/4.4.2/../../../../arm-elf/lib/thumb/interwork/libc.a(lib_a-writer.o)
 .bss           0x00000000        0x0 /vagrant/gnuarm/lib/gcc/arm-elf/4.4.2/../../../../arm-elf/lib/thumb/interwork/libc.a(lib_a-writer.o)
 .eh_frame      0x00000000       0x30 /vagrant/gnuarm/lib/gcc/arm-elf/4.4.2/../../../../arm-elf/lib/thumb/interwork/libc.a(lib_a-writer.o)
 .data          0x00000000        0x0 /vagrant/gnuarm/lib/gcc/arm-elf/4.4.2/../../../../arm-elf/lib/thumb/interwork/libc.a(lib_a-wsetup.o)
 .bss           0x00000000        0x0 /vagrant/gnuarm/lib/gcc/arm-elf/4.4.2/../../../../arm-elf/lib/thumb/interwork/libc.a(lib_a-wsetup.o)
 .eh_frame      0x00000000       0x30 /vagrant/gnuarm/lib/gcc/arm-elf/4.4.2/../../../../arm-elf/lib/thumb/interwork/libc.a(lib_a-wsetup.o)
 .data          0x00000000        0x0 /vagrant/gnuarm/lib/gcc/arm-elf/4.4.2/../../../../arm-elf/lib/thumb/interwork/libc.a(lib_a-dtoa.o)
 .bss           0x00000000        0x0 /vagrant/gnuarm/lib/gcc/arm-elf/4.4.2/../../../../arm-elf/lib/thumb/interwork/libc.a(lib_a-dtoa.o)
 .eh_frame      0x00000000       0x70 /vagrant/gnuarm/lib/gcc/arm-elf/4.4.2/../../../../arm-elf/lib/thumb/interwork/libc.a(lib_a-dtoa.o)
 .data          0x00000000        0x0 /vagrant/gnuarm/lib/gcc/arm-elf/4.4.2/../../../../arm-elf/lib/thumb/interwork/libc.a(lib_a-errno.o)
 .bss           0x00000000        0x0 /vagrant/gnuarm/lib/gcc/arm-elf/4.4.2/../../../../arm-elf/lib/thumb/interwork/libc.a(lib_a-errno.o)
 .eh_frame      0x00000000       0x28 /vagrant/gnuarm/lib/gcc/arm-elf/4.4.2/../../../../arm-elf/lib/thumb/interwork/libc.a(lib_a-errno.o)
 .data          0x00000000        0x0 /vagrant/gnuarm/lib/gcc/arm-elf/4.4.2/../../../../arm-elf/lib/thumb/interwork/libc.a(lib_a-fflush.o)
 .bss           0x00000000        0x0 /vagrant/gnuarm/lib/gcc/arm-elf/4.4.2/../../../../arm-elf/lib/thumb/interwork/libc.a(lib_a-fflush.o)
 .eh_frame      0x00000000       0x4c /vagrant/gnuarm/lib/gcc/arm-elf/4.4.2/../../../../arm-elf/lib/thumb/interwork/libc.a(lib_a-fflush.o)
 .data          0x00000000        0x0 /vagrant/gnuarm/lib/gcc/arm-elf/4.4.2/../../../../arm-elf/lib/thumb/interwork/libc.a(lib_a-findfp.o)
 .bss           0x00000000        0x0 /vagrant/gnuarm/lib/gcc/arm-elf/4.4.2/../../../../arm-elf/lib/thumb/interwork/libc.a(lib_a-findfp.o)
 .eh_frame      0x00000000      0x154 /vagrant/gnuarm/lib/gcc/arm-elf/4.4.2/../../../../arm-elf/lib/thumb/interwork/libc.a(lib_a-findfp.o)
 .data          0x00000000        0x0 /vagrant/gnuarm/lib/gcc/arm-elf/4.4.2/../../../../arm-elf/lib/thumb/interwork/libc.a(lib_a-freer.o)
 .bss           0x00000000        0x0 /vagrant/gnuarm/lib/gcc/arm-elf/4.4.2/../../../../arm-elf/lib/thumb/interwork/libc.a(lib_a-freer.o)
 .eh_frame      0x00000000       0x5c /vagrant/gnuarm/lib/gcc/arm-elf/4.4.2/../../../../arm-elf/lib/thumb/interwork/libc.a(lib_a-freer.o)
 .data          0x00000000        0x0 /vagrant/gnuarm/lib/gcc/arm-elf/4.4.2/../../../../arm-elf/lib/thumb/interwork/libc.a(lib_a-fwalk.o)
 .bss           0x00000000        0x0 /vagrant/gnuarm/lib/gcc/arm-elf/4.4.2/../../../../arm-elf/lib/thumb/interwork/libc.a(lib_a-fwalk.o)
 .eh_frame      0x00000000       0x60 /vagrant/gnuarm/lib/gcc/arm-elf/4.4.2/../../../../arm-elf/lib/thumb/interwork/libc.a(lib_a-fwalk.o)
 .bss           0x00000000        0xc /vagrant/gnuarm/lib/gcc/arm-elf/4.4.2/../../../../arm-elf/lib/thumb/interwork/libc.a(lib_a-locale.o)
 .eh_frame      0x00000000       0xac /vagrant/gnuarm/lib/gcc/arm-elf/4.4.2/../../../../arm-elf/lib/thumb/interwork/libc.a(lib_a-locale.o)
 .data          0x00000000        0x0 /vagrant/gnuarm/lib/gcc/arm-elf/4.4.2/../../../../arm-elf/lib/thumb/interwork/libc.a(lib_a-makebuf.o)
 .bss           0x00000000        0x0 /vagrant/gnuarm/lib/gcc/arm-elf/4.4.2/../../../../arm-elf/lib/thumb/interwork/libc.a(lib_a-makebuf.o)
 .eh_frame      0x00000000       0x38 /vagrant/gnuarm/lib/gcc/arm-elf/4.4.2/../../../../arm-elf/lib/thumb/interwork/libc.a(lib_a-makebuf.o)
 .data          0x00000000        0x0 /vagrant/gnuarm/lib/gcc/arm-elf/4.4.2/../../../../arm-elf/lib/thumb/interwork/libc.a(lib_a-mprec.o)
 .bss           0x00000000        0x0 /vagrant/gnuarm/lib/gcc/arm-elf/4.4.2/../../../../arm-elf/lib/thumb/interwork/libc.a(lib_a-mprec.o)
 .eh_frame      0x00000000      0x26c /vagrant/gnuarm/lib/gcc/arm-elf/4.4.2/../../../../arm-elf/lib/thumb/interwork/libc.a(lib_a-mprec.o)
 .text          0x00000000      0x114 /vagrant/gnuarm/lib/gcc/arm-elf/4.4.2/../../../../arm-elf/lib/thumb/interwork/libc.a(lib_a-reent.o)
 .data          0x00000000        0x0 /vagrant/gnuarm/lib/gcc/arm-elf/4.4.2/../../../../arm-elf/lib/thumb/interwork/libc.a(lib_a-reent.o)
 .bss           0x00000000        0x0 /vagrant/gnuarm/lib/gcc/arm-elf/4.4.2/../../../../arm-elf/lib/thumb/interwork/libc.a(lib_a-reent.o)
 .eh_frame      0x00000000       0x6c /vagrant/gnuarm/lib/gcc/arm-elf/4.4.2/../../../../arm-elf/lib/thumb/interwork/libc.a(lib_a-reent.o)
 .data          0x00000000        0x0 /vagrant/gnuarm/lib/gcc/arm-elf/4.4.2/../../../../arm-elf/lib/thumb/interwork/libc.a(lib_a-s_fpclassify.o)
 .bss           0x00000000        0x0 /vagrant/gnuarm/lib/gcc/arm-elf/4.4.2/../../../../arm-elf/lib/thumb/interwork/libc.a(lib_a-s_fpclassify.o)
 .eh_frame      0x00000000       0x2c /vagrant/gnuarm/lib/gcc/arm-elf/4.4.2/../../../../arm-elf/lib/thumb/interwork/libc.a(lib_a-s_fpclassify.o)
 .data          0x00000000        0x0 /vagrant/gnuarm/lib/gcc/arm-elf/4.4.2/../../../../arm-elf/lib/thumb/interwork/libc.a(lib_a-stdio.o)
 .bss           0x00000000        0x0 /vagrant/gnuarm/lib/gcc/arm-elf/4.4.2/../../../../arm-elf/lib/thumb/interwork/libc.a(lib_a-stdio.o)
 .eh_frame      0x00000000       0x98 /vagrant/gnuarm/lib/gcc/arm-elf/4.4.2/../../../../arm-elf/lib/thumb/interwork/libc.a(lib_a-stdio.o)
 .data          0x00000000        0x0 /vagrant/gnuarm/lib/gcc/arm-elf/4.4.2/../../../../arm-elf/lib/thumb/interwork/libc.a(lib_a-svfiprintf.o)
 .bss           0x00000000        0x0 /vagrant/gnuarm/lib/gcc/arm-elf/4.4.2/../../../../arm-elf/lib/thumb/interwork/libc.a(lib_a-svfiprintf.o)
 .eh_frame      0x00000000       0x70 /vagrant/gnuarm/lib/gcc/arm-elf/4.4.2/../../../../arm-elf/lib/thumb/interwork/libc.a(lib_a-svfiprintf.o)
 .data          0x00000000        0x0 /vagrant/gnuarm/lib/gcc/arm-elf/4.4.2/../../../../arm-elf/lib/thumb/interwork/libc.a(lib_a-callocr.o)
 .bss           0x00000000        0x0 /vagrant/gnuarm/lib/gcc/arm-elf/4.4.2/../../../../arm-elf/lib/thumb/interwork/libc.a(lib_a-callocr.o)
 .eh_frame      0x00000000       0x2c /vagrant/gnuarm/lib/gcc/arm-elf/4.4.2/../../../../arm-elf/lib/thumb/interwork/libc.a(lib_a-callocr.o)
 .data          0x00000000        0x0 /vagrant/gnuarm/lib/gcc/arm-elf/4.4.2/../../../../arm-elf/lib/thumb/interwork/libc.a(lib_a-closer.o)
 .bss           0x00000000        0x0 /vagrant/gnuarm/lib/gcc/arm-elf/4.4.2/../../../../arm-elf/lib/thumb/interwork/libc.a(lib_a-closer.o)
 .eh_frame      0x00000000       0x30 /vagrant/gnuarm/lib/gcc/arm-elf/4.4.2/../../../../arm-elf/lib/thumb/interwork/libc.a(lib_a-closer.o)
 .data          0x00000000        0x0 /vagrant/gnuarm/lib/gcc/arm-elf/4.4.2/../../../../arm-elf/lib/thumb/interwork/libc.a(lib_a-fclose.o)
 .bss           0x00000000        0x0 /vagrant/gnuarm/lib/gcc/arm-elf/4.4.2/../../../../arm-elf/lib/thumb/interwork/libc.a(lib_a-fclose.o)
 .eh_frame      0x00000000       0x48 /vagrant/gnuarm/lib/gcc/arm-elf/4.4.2/../../../../arm-elf/lib/thumb/interwork/libc.a(lib_a-fclose.o)
 .data          0x00000000        0x0 /vagrant/gnuarm/lib/gcc/arm-elf/4.4.2/../../../../arm-elf/lib/thumb/interwork/libc.a(lib_a-fstatr.o)
 .bss           0x00000000        0x0 /vagrant/gnuarm/lib/gcc/arm-elf/4.4.2/../../../../arm-elf/lib/thumb/interwork/libc.a(lib_a-fstatr.o)
 .eh_frame      0x00000000       0x30 /vagrant/gnuarm/lib/gcc/arm-elf/4.4.2/../../../../arm-elf/lib/thumb/interwork/libc.a(lib_a-fstatr.o)
 .data          0x00000000        0x0 /vagrant/gnuarm/lib/gcc/arm-elf/4.4.2/../../../../arm-elf/lib/thumb/interwork/libc.a(lib_a-isattyr.o)
 .bss           0x00000000        0x0 /vagrant/gnuarm/lib/gcc/arm-elf/4.4.2/../../../../arm-elf/lib/thumb/interwork/libc.a(lib_a-isattyr.o)
 .eh_frame      0x00000000       0x30 /vagrant/gnuarm/lib/gcc/arm-elf/4.4.2/../../../../arm-elf/lib/thumb/interwork/libc.a(lib_a-isattyr.o)
 .data          0x00000000        0x0 /vagrant/gnuarm/lib/gcc/arm-elf/4.4.2/../../../../arm-elf/lib/thumb/interwork/libc.a(lib_a-lseekr.o)
 .bss           0x00000000        0x0 /vagrant/gnuarm/lib/gcc/arm-elf/4.4.2/../../../../arm-elf/lib/thumb/interwork/libc.a(lib_a-lseekr.o)
 .eh_frame      0x00000000       0x30 /vagrant/gnuarm/lib/gcc/arm-elf/4.4.2/../../../../arm-elf/lib/thumb/interwork/libc.a(lib_a-lseekr.o)
 .data          0x00000000        0x0 /vagrant/gnuarm/lib/gcc/arm-elf/4.4.2/../../../../arm-elf/lib/thumb/interwork/libc.a(lib_a-readr.o)
 .bss           0x00000000        0x0 /vagrant/gnuarm/lib/gcc/arm-elf/4.4.2/../../../../arm-elf/lib/thumb/interwork/libc.a(lib_a-readr.o)
 .eh_frame      0x00000000       0x30 /vagrant/gnuarm/lib/gcc/arm-elf/4.4.2/../../../../arm-elf/lib/thumb/interwork/libc.a(lib_a-readr.o)
 .data          0x00000000        0x0 /vagrant/gnuarm/lib/gcc/arm-elf/4.4.2/thumb/interwork/libgcc.a(_arm_fixdfsi.o)
 .bss           0x00000000        0x0 /vagrant/gnuarm/lib/gcc/arm-elf/4.4.2/thumb/interwork/libgcc.a(_arm_fixdfsi.o)
 .data          0x00000000        0x0 build/nxtvm/platform/nxt/vectors.o
 .bss           0x00000000        0x0 build/nxtvm/platform/nxt/vectors.o

Memory Configuration

Name             Origin             Length             Attributes
rom              0x00108000         0x00038000
vector_ram       0x00200000         0x00000040
ram              0x00200040         0x0000ffc0
*default*        0x00000000         0xffffffff

Linker script and memory map

LOAD build/kernel/banner.o
LOAD build/kernel/cyclic.o
LOAD build/kernel/dataqueue.o
LOAD build/kernel/eventflag.o
LOAD build/kernel/exception.o
LOAD build/kernel/interrupt.o
LOAD build/kernel/mailbox.o
LOAD build/kernel/mempfix.o
LOAD build/kernel/semaphore.o
LOAD build/kernel/startup.o
LOAD build/kernel/sys_manage.o
LOAD build/kernel/syslog.o
LOAD build/kernel/task.o
LOAD build/kernel/task_except.o
LOAD build/kernel/task_manage.o
LOAD build/kernel/task_sync.o
LOAD build/kernel/time_event.o
LOAD build/kernel/time_manage.o
LOAD build/kernel/wait.o
LOAD build/config/armv4/cpu_config.o
LOAD build/config/armv4/at91sam7s/sys_config.o
LOAD build/./kernel_cfg.o
LOAD build/rtoscalls.o
LOAD build/syscalls.o
LOAD build/ecrobot_bluetooth.o
LOAD build/ecrobot_base.o
LOAD build/ecrobot.o
LOAD build/library/log_output.oram
LOAD build/library/strerror.oram
LOAD build/library/t_perror.oram
LOAD build/library/vasyslog.oram
LOAD build/main.o
LOAD build/MEXU.o
LOAD build/stm.o
LOAD build/nxtvm/platform/nxt/vectors.o
LOAD build/nxt_binary_header.o
LOAD build/nxt_entry_point.o
LOAD build/ecrobot_init.o
LOAD build/config/armv4/cpu_support.oram
LOAD build/config/armv4/at91sam7s/irq.oram
LOAD ../ecrobot/../ecrobot/libecrobot++.a
LOAD ../ecrobot/../ecrobot/libecrobot.a
LOAD /vagrant/gnuarm/lib/gcc/arm-elf/4.4.2/../../../../arm-elf/lib/thumb/interwork/libstdc++.a
LOAD /vagrant/gnuarm/lib/gcc/arm-elf/4.4.2/../../../../arm-elf/lib/thumb/interwork/libm.a
START GROUP
LOAD /vagrant/gnuarm/lib/gcc/arm-elf/4.4.2/thumb/interwork/libgcc.a
LOAD /vagrant/gnuarm/lib/gcc/arm-elf/4.4.2/../../../../arm-elf/lib/thumb/interwork/libc.a
END GROUP
                0x00108000                ROM_BASE = 0x108000
                0x00038000                ROM_SIZE = 0x38000
                0x00200000                RAM_BASE = 0x200000
                0x00010000                RAM_SIZE = 0x10000

.vectors        0x00200000       0x40 load address 0x00108000
 vectors.o(*.text *.text.*)
 .text          0x00200000       0x38 build/nxtvm/platform/nxt/vectors.o
                0x00200040                . = ALIGN (0x10)
 *fill*         0x00200038        0x8 00
                0x00200000                __vectors_ram_start__ = ADDR (.vectors)
                0x00200040                __vectors_ram_end__ = (ADDR (.vectors) + SIZEOF (.vectors))
                0x00108000                __vectors_load_start__ = LOADADDR (.vectors)
                0x00108040                __vectors_load_end__ = (LOADADDR (.vectors) + SIZEOF (.vectors))

.init           0x00108040      0x280
 *ecrobot_init.o(*.text *.text.*)
 .text          0x00108040      0x280 build/ecrobot_init.o
                0x00108040                start
                0x001081ac                undef_handler
                0x001081b0                swi_handler
                0x001081b4                prefetch_abort_handler
                0x001081b8                data_abort_handler
                0x001081d4                reserved_handler
                0x001082c0                . = ALIGN (0x10)

.ram_text       0x00200040     0x3d30 load address 0x001082c0
                0x00200040                . = ALIGN (0x10)
 *.oram(*.text *.text.* *.glue*)
 .text.convert  0x00200040       0xa8 build/library/log_output.oram
 .text.syslog_printf
                0x002000e8      0x114 build/library/log_output.oram
                0x002000e8                syslog_printf
 .text.syslog_print
                0x002001fc       0x2c build/library/log_output.oram
                0x002001fc                syslog_print
 *fill*         0x00200228        0x8 00
 .text          0x00200230      0x1b0 build/config/armv4/cpu_support.oram
                0x00200230                _kernel_dispatch
                0x00200278                _kernel_exit_and_dispatch
                0x002002f8                _kernel_activate_r
                0x00200318                _kernel_ret_exc
                0x00200318                _kernel_ret_int
                0x00200354                _kernel_break_wait
                0x0020038c                sil_dly_nse
                0x002003ac                current_sr
                0x002003b4                set_sr
 .text          0x002003e0      0xcc8 build/config/armv4/at91sam7s/irq.oram
                0x002003e0                default_isr
                0x002003e0                default_fiq
                0x002003e0                spurious_isr
                0x002003e4                systick_isr_entry
                0x00200520                systick_low_priority_entry
                0x0020065c                udp_isr_entry
                0x00200798                spi_isr_entry
                0x002008d4                twi_isr_entry
                0x00200a10                sound_isr_entry
                0x00200b4c                uart_isr_entry_0
                0x00200c88                uart_isr_entry_1
                0x00200dc4                nxt_motor_isr_entry
                0x00200f00                i2c_timer_isr_entry
                0x0020103c                lejos_osek_run
                0x00201048                lejos_osek_stop
 .text.uart_process_isr
                0x002010a8       0x88 ../ecrobot/../ecrobot/libecrobot.a(uart.oram)
 .text.uart_isr_C_0
                0x00201130        0xc ../ecrobot/../ecrobot/libecrobot.a(uart.oram)
                0x00201130                uart_isr_C_0
 .text.uart_isr_C_1
                0x0020113c        0xc ../ecrobot/../ecrobot/libecrobot.a(uart.oram)
                0x0020113c                uart_isr_C_1
 .text.systick_low_priority_C
                0x00201148       0x1c ../ecrobot/../ecrobot/libecrobot.a(systick.oram)
                0x00201148                systick_low_priority_C
 .text.systick_isr_C
                0x00201164       0x24 ../ecrobot/../ecrobot/libecrobot.a(systick.oram)
                0x00201164                systick_isr_C
 .text.systick_get_ms
                0x00201188        0xc ../ecrobot/../ecrobot/libecrobot.a(systick.oram)
                0x00201188                systick_get_ms
 .text.systick_wait_ms
                0x00201194       0x1c ../ecrobot/../ecrobot/libecrobot.a(systick.oram)
                0x00201194                systick_wait_ms
 .text.systick_wait_ns
                0x002011b0       0x1c ../ecrobot/../ecrobot/libecrobot.a(systick.oram)
                0x002011b0                systick_wait_ns
 .text.systick_init
                0x002011cc       0x58 ../ecrobot/../ecrobot/libecrobot.a(systick.oram)
                0x002011cc                systick_init
 .text.systick_suspend
                0x00201224        0xc ../ecrobot/../ecrobot/libecrobot.a(systick.oram)
                0x00201224                systick_suspend
 .text.systick_resume
                0x00201230        0xc ../ecrobot/../ecrobot/libecrobot.a(systick.oram)
                0x00201230                systick_resume
 .text.byte_fifo_put
                0x0020123c       0x58 ../ecrobot/../ecrobot/libecrobot.a(byte_fifo.oram)
                0x0020123c                byte_fifo_put
 .text.byte_fifo_get
                0x00201294       0x2c ../ecrobot/../ecrobot/libecrobot.a(byte_fifo.oram)
                0x00201294                byte_fifo_get
 .text.aic_initialise
                0x002012c0       0x5c ../ecrobot/../ecrobot/libecrobot.a(aic.oram)
                0x002012c0                aic_initialise
 .text.aic_set_vector
                0x0020131c       0x30 ../ecrobot/../ecrobot/libecrobot.a(aic.oram)
                0x0020131c                aic_set_vector
 .text.aic_mask_on
                0x0020134c       0x24 ../ecrobot/../ecrobot/libecrobot.a(aic.oram)
                0x0020134c                aic_mask_on
 .text.aic_mask_off
                0x00201370       0x24 ../ecrobot/../ecrobot/libecrobot.a(aic.oram)
                0x00201370                aic_mask_off
 .text.aic_clear
                0x00201394       0x24 ../ecrobot/../ecrobot/libecrobot.a(aic.oram)
                0x00201394                aic_clear
 .text.reset    0x002013b8       0x4c ../ecrobot/../ecrobot/libecrobot.a(udp.oram)
 .text.udp_send_null
                0x00201404       0x2c ../ecrobot/../ecrobot/libecrobot.a(udp.oram)
 .text.udp_send_stall
                0x00201430       0x2c ../ecrobot/../ecrobot/libecrobot.a(udp.oram)
 .text.udp_send_control
                0x0020145c       0x60 ../ecrobot/../ecrobot/libecrobot.a(udp.oram)
 .text.udp_isr_C
                0x002014bc      0x7d0 ../ecrobot/../ecrobot/libecrobot.a(udp.oram)
                0x002014bc                udp_isr_C
 .text.twi_status
                0x00201c8c       0x20 ../ecrobot/../ecrobot/libecrobot.a(twi.oram)
                0x00201c8c                twi_status
 .text.twi_isr_C
                0x00201cac       0xc4 ../ecrobot/../ecrobot/libecrobot.a(twi.oram)
                0x00201cac                twi_isr_C
 .text.twi_reset
                0x00201d70       0xb4 ../ecrobot/../ecrobot/libecrobot.a(twi.oram)
                0x00201d70                twi_reset
 .text.twi_init
                0x00201e24       0x4c ../ecrobot/../ecrobot/libecrobot.a(twi.oram)
                0x00201e24                twi_init
 .text.twi_start_read
                0x00201e70       0x60 ../ecrobot/../ecrobot/libecrobot.a(twi.oram)
                0x00201e70                twi_start_read
 .text.twi_start_write
                0x00201ed0       0x64 ../ecrobot/../ecrobot/libecrobot.a(twi.oram)
                0x00201ed0                twi_start_write
 .text.spi_set_mode
                0x00201f34       0x40 ../ecrobot/../ecrobot/libecrobot.a(nxt_spi.oram)
 .text.spi_isr_C
                0x00201f74       0x8c ../ecrobot/../ecrobot/libecrobot.a(nxt_spi.oram)
                0x00201f74                spi_isr_C
 .text.nxt_spi_init
                0x00202000      0x12c ../ecrobot/../ecrobot/libecrobot.a(nxt_spi.oram)
                0x00202000                nxt_spi_init
 .text.nxt_spi_write
                0x0020212c       0x44 ../ecrobot/../ecrobot/libecrobot.a(nxt_spi.oram)
                0x0020212c                nxt_spi_write
 .text.nxt_spi_set_display
                0x00202170       0x10 ../ecrobot/../ecrobot/libecrobot.a(nxt_spi.oram)
                0x00202170                nxt_spi_set_display
 .text.nxt_spi_refresh
                0x00202180       0x24 ../ecrobot/../ecrobot/libecrobot.a(nxt_spi.oram)
                0x00202180                nxt_spi_refresh
 .text.nxt_motor_set_count
                0x002021a4       0x10 ../ecrobot/../ecrobot/libecrobot.a(nxt_motors.oram)
                0x002021a4                nxt_motor_set_count
 .text.nxt_motor_set_speed
                0x002021b4       0x34 ../ecrobot/../ecrobot/libecrobot.a(nxt_motors.oram)
                0x002021b4                nxt_motor_set_speed
 .text.nxt_motor_1kHz_process
                0x002021e8       0x28 ../ecrobot/../ecrobot/libecrobot.a(nxt_motors.oram)
                0x002021e8                nxt_motor_1kHz_process
 .text.nxt_motor_quad_decode
                0x00202210       0x30 ../ecrobot/../ecrobot/libecrobot.a(nxt_motors.oram)
                0x00202210                nxt_motor_quad_decode
 .text.nxt_motor_isr_C
                0x00202240       0x88 ../ecrobot/../ecrobot/libecrobot.a(nxt_motors.oram)
                0x00202240                nxt_motor_isr_C
 .text.nxt_motor_init
                0x002022c8       0x68 ../ecrobot/../ecrobot/libecrobot.a(nxt_motors.oram)
                0x002022c8                nxt_motor_init
 .text.data_abort_C
                0x00202330       0x7c ../ecrobot/../ecrobot/libecrobot.a(data_abort.oram)
                0x00202330                data_abort_C
 .text.display_update
                0x002023ac       0x14 ../ecrobot/../ecrobot/libecrobot.a(display.oram)
                0x002023ac                display_update
 .text.display_force_update
                0x002023c0        0xc ../ecrobot/../ecrobot/libecrobot.a(display.oram)
                0x002023c0                display_force_update
 .text.display_clear
                0x002023cc       0x24 ../ecrobot/../ecrobot/libecrobot.a(display.oram)
                0x002023cc                display_clear
 .text.display_goto_xy
                0x002023f0       0x14 ../ecrobot/../ecrobot/libecrobot.a(display.oram)
                0x002023f0                display_goto_xy
 .text.display_char
                0x00202404       0x60 ../ecrobot/../ecrobot/libecrobot.a(display.oram)
                0x00202404                display_char
 .text.display_string
                0x00202464       0x3c ../ecrobot/../ecrobot/libecrobot.a(display.oram)
                0x00202464                display_string
 .text.display_hex
                0x002024a0       0x50 ../ecrobot/../ecrobot/libecrobot.a(display.oram)
                0x002024a0                display_hex
 .text.display_unsigned_worker
                0x002024f0       0x70 ../ecrobot/../ecrobot/libecrobot.a(display.oram)
 .text.display_unsigned
                0x00202560        0xc ../ecrobot/../ecrobot/libecrobot.a(display.oram)
                0x00202560                display_unsigned
 .text.display_int
                0x0020256c       0x14 ../ecrobot/../ecrobot/libecrobot.a(display.oram)
                0x0020256c                display_int
 .text.display_bitmap_copy
                0x00202580       0x5c ../ecrobot/../ecrobot/libecrobot.a(display.oram)
                0x00202580                display_bitmap_copy
 .text.display_init
                0x002025dc       0x50 ../ecrobot/../ecrobot/libecrobot.a(display.oram)
                0x002025dc                display_init
 .text.i2c_timer_isr_C
                0x0020262c      0x314 ../ecrobot/../ecrobot/libecrobot.a(i2c.oram)
                0x0020262c                i2c_timer_isr_C
 .text.i2c_disable
                0x00202940       0x20 ../ecrobot/../ecrobot/libecrobot.a(i2c.oram)
                0x00202940                i2c_disable
 .text.i2c_enable
                0x00202960       0x40 ../ecrobot/../ecrobot/libecrobot.a(i2c.oram)
                0x00202960                i2c_enable
 .text.i2c_init
                0x002029a0       0xa4 ../ecrobot/../ecrobot/libecrobot.a(i2c.oram)
                0x002029a0                i2c_init
 .text.i2c_busy
                0x00202a44       0x24 ../ecrobot/../ecrobot/libecrobot.a(i2c.oram)
                0x00202a44                i2c_busy
 .text.i2c_start_transaction
                0x00202a68      0x108 ../ecrobot/../ecrobot/libecrobot.a(i2c.oram)
                0x00202a68                i2c_start_transaction
 .text.sound_fill_sample_buffer
                0x00202b70       0xe4 ../ecrobot/../ecrobot/libecrobot.a(sound.oram)
                0x00202b70                sound_fill_sample_buffer
 .text.sound_init
                0x00202c54       0xa0 ../ecrobot/../ecrobot/libecrobot.a(sound.oram)
                0x00202c54                sound_init
 .text.sound_isr_C
                0x00202cf4      0x180 ../ecrobot/../ecrobot/libecrobot.a(sound.oram)
                0x00202cf4                sound_isr_C
 .text.bt_init  0x00202e74      0x1c0 ../ecrobot/../ecrobot/libecrobot.a(bt.oram)
                0x00202e74                bt_init
 .text.nxt_avr_power_down
                0x00203034       0x10 ../ecrobot/../ecrobot/libecrobot.a(nxt_avr.oram)
                0x00203034                nxt_avr_power_down
 .text.nxt_avr_link_init
                0x00203044       0x20 ../ecrobot/../ecrobot/libecrobot.a(nxt_avr.oram)
                0x00203044                nxt_avr_link_init
 .text.nxt_avr_init
                0x00203064       0x6c ../ecrobot/../ecrobot/libecrobot.a(nxt_avr.oram)
                0x00203064                nxt_avr_init
 .text.nxt_avr_1kHz_update
                0x002030d0      0x1cc ../ecrobot/../ecrobot/libecrobot.a(nxt_avr.oram)
                0x002030d0                nxt_avr_1kHz_update
 .text.buttons_get
                0x0020329c        0xc ../ecrobot/../ecrobot/libecrobot.a(nxt_avr.oram)
                0x0020329c                buttons_get
 .text.battery_voltage
                0x002032a8       0x28 ../ecrobot/../ecrobot/libecrobot.a(nxt_avr.oram)
                0x002032a8                battery_voltage
 .text.sensor_adc
                0x002032d0       0x20 ../ecrobot/../ecrobot/libecrobot.a(nxt_avr.oram)
                0x002032d0                sensor_adc
 .text.nxt_avr_set_motor
                0x002032f0       0x34 ../ecrobot/../ecrobot/libecrobot.a(nxt_avr.oram)
                0x002032f0                nxt_avr_set_motor
 .text.nxt_avr_set_input_power
                0x00203324       0x3c ../ecrobot/../ecrobot/libecrobot.a(nxt_avr.oram)
                0x00203324                nxt_avr_set_input_power
 .text.unset_digi0
                0x00203360       0x44 ../ecrobot/../ecrobot/libecrobot.a(sensors.oram)
                0x00203360                unset_digi0
 .text.unset_digi1
                0x002033a4       0x44 ../ecrobot/../ecrobot/libecrobot.a(sensors.oram)
                0x002033a4                unset_digi1
 .text.init_sensors
                0x002033e8       0x4c ../ecrobot/../ecrobot/libecrobot.a(sensors.oram)
                0x002033e8                init_sensors
 .text.set_digi0
                0x00203434       0x44 ../ecrobot/../ecrobot/libecrobot.a(sensors.oram)
                0x00203434                set_digi0
 .text.nxt_lcd_command
                0x00203478       0x18 ../ecrobot/../ecrobot/libecrobot.a(nxt_lcd.oram)
                0x00203478                nxt_lcd_command
 .text.nxt_lcd_set_col
                0x00203490       0x24 ../ecrobot/../ecrobot/libecrobot.a(nxt_lcd.oram)
                0x00203490                nxt_lcd_set_col
 .text.nxt_lcd_set_multiplex_rate
                0x002034b4       0x18 ../ecrobot/../ecrobot/libecrobot.a(nxt_lcd.oram)
                0x002034b4                nxt_lcd_set_multiplex_rate
 .text.nxt_lcd_set_page_address
                0x002034cc       0x18 ../ecrobot/../ecrobot/libecrobot.a(nxt_lcd.oram)
                0x002034cc                nxt_lcd_set_page_address
 .text.nxt_lcd_set_pot
                0x002034e4       0x1c ../ecrobot/../ecrobot/libecrobot.a(nxt_lcd.oram)
                0x002034e4                nxt_lcd_set_pot
 .text.nxt_lcd_set_ram_address_control
                0x00203500       0x18 ../ecrobot/../ecrobot/libecrobot.a(nxt_lcd.oram)
                0x00203500                nxt_lcd_set_ram_address_control
 .text.nxt_lcd_enable
                0x00203518       0x14 ../ecrobot/../ecrobot/libecrobot.a(nxt_lcd.oram)
                0x00203518                nxt_lcd_enable
 .text.nxt_lcd_set_map_control
                0x0020352c       0x18 ../ecrobot/../ecrobot/libecrobot.a(nxt_lcd.oram)
                0x0020352c                nxt_lcd_set_map_control
 .text.nxt_lcd_reset
                0x00203544        0xc ../ecrobot/../ecrobot/libecrobot.a(nxt_lcd.oram)
                0x00203544                nxt_lcd_reset
 .text.nxt_lcd_set_bias_ratio
                0x00203550       0x18 ../ecrobot/../ecrobot/libecrobot.a(nxt_lcd.oram)
                0x00203550                nxt_lcd_set_bias_ratio
 .text.nxt_lcd_force_update
                0x00203568       0x30 ../ecrobot/../ecrobot/libecrobot.a(nxt_lcd.oram)
                0x00203568                nxt_lcd_force_update
 .text.nxt_lcd_update
                0x00203598        0xc ../ecrobot/../ecrobot/libecrobot.a(nxt_lcd.oram)
                0x00203598                nxt_lcd_update
 .text.nxt_lcd_power_up
                0x002035a4       0x48 ../ecrobot/../ecrobot/libecrobot.a(nxt_lcd.oram)
                0x002035a4                nxt_lcd_power_up
 .text.nxt_lcd_power_down
                0x002035ec        0xc ../ecrobot/../ecrobot/libecrobot.a(nxt_lcd.oram)
                0x002035ec                nxt_lcd_power_down
 .text.nxt_lcd_init
                0x002035f8       0x18 ../ecrobot/../ecrobot/libecrobot.a(nxt_lcd.oram)
                0x002035f8                nxt_lcd_init
 .text.verify_flash_page
                0x00203610       0x34 ../ecrobot/../ecrobot/libecrobot.a(flash_loader.oram)
 .text.set_flash_request
                0x00203644       0x38 ../ecrobot/../ecrobot/libecrobot.a(flash_loader.oram)
                0x00203644                set_flash_request
 .text.nxt_device_init
                0x0020367c       0x38 ../ecrobot/../ecrobot/libecrobot.a(flash_loader.oram)
                0x0020367c                nxt_device_init
 .text          0x002036b4       0x68 ../ecrobot/../ecrobot/libecrobot.a(interrupts.oram)
                0x002036b4                interrupts_get_and_disable
                0x002036d8                interrupts_enable
                0x002036e8                fiq_get_and_disable
                0x0020370c                fiq_enable
 .text.flash_write_page
                0x0020371c       0xc0 ../ecrobot/../ecrobot/libecrobot.a(flashprog.oram)
                0x0020371c                flash_write_page
                0x002037e0                . = ALIGN (0x10)
 *fill*         0x002037dc        0x4 00
 *.oram(*.rodata *.rodata.*)
 .rodata.radHEX
                0x002037e0       0x14 build/library/log_output.oram
 .rodata.str1.1
                0x002037f4       0x34 build/library/log_output.oram
 .rodata.radhex
                0x00203828       0x14 build/library/log_output.oram
 .rodata.raddec
                0x0020383c        0xc build/library/log_output.oram
 .rodata.ld     0x00203848        0x4 ../ecrobot/../ecrobot/libecrobot.a(udp.oram)
 .rodata.cfd    0x0020384c       0x20 ../ecrobot/../ecrobot/libecrobot.a(udp.oram)
 .rodata.dd     0x0020386c       0x12 ../ecrobot/../ecrobot/libecrobot.a(udp.oram)
 *fill*         0x0020387e        0x2 00
 .rodata.str1.4
                0x00203880       0x22 ../ecrobot/../ecrobot/libecrobot.a(data_abort.oram)
                                 0x24 (size before relaxing)
 .rodata.font   0x002038a2      0x280 ../ecrobot/../ecrobot/libecrobot.a(display.oram)
 *fill*         0x00203b22        0x2 00
 .rodata.str1.4
                0x00203b24       0x76 ../ecrobot/../ecrobot/libecrobot.a(display.oram)
                                 0x78 (size before relaxing)
 *fill*         0x00203b9a        0x2 00
 .rodata.i2c_pin
                0x00203b9c       0x20 ../ecrobot/../ecrobot/libecrobot.a(i2c.oram)
 .rodata.i2c_timer_isr_C
                0x00203bbc       0x38 ../ecrobot/../ecrobot/libecrobot.a(i2c.oram)
 .rodata.silence
                0x00203bf4       0x40 ../ecrobot/../ecrobot/libecrobot.a(sound.oram)
                0x00203bf4                silence
 .rodata.sample_pattern
                0x00203c34       0x84 ../ecrobot/../ecrobot/libecrobot.a(sound.oram)
                0x00203c34                sample_pattern
 .rodata        0x00203cb8        0xc ../ecrobot/../ecrobot/libecrobot.a(sound.oram)
 .rodata.avr_brainwash_string
                0x00203cc4       0x30 ../ecrobot/../ecrobot/libecrobot.a(nxt_avr.oram)
                0x00203cc4                avr_brainwash_string
 .rodata.nxt_avr_1kHz_update
                0x00203cf4       0x14 ../ecrobot/../ecrobot/libecrobot.a(nxt_avr.oram)
 .rodata.C.33.1823
                0x00203d08       0x10 ../ecrobot/../ecrobot/libecrobot.a(sensors.oram)
 .rodata.C.37.1857
                0x00203d18       0x10 ../ecrobot/../ecrobot/libecrobot.a(sensors.oram)
 .rodata.C.31.1806
                0x00203d28       0x10 ../ecrobot/../ecrobot/libecrobot.a(sensors.oram)
 .rodata.str1.4
                0x00203d38       0x24 ../ecrobot/../ecrobot/libecrobot.a(flash_loader.oram)
 *fill*         0x00203d5c        0x4 00
 .rodata.str1.4.stub
                0x00203d60       0x10 linker stubs
                0x00203d70                . = ALIGN (0x10)
 *fill*         0x00203d70        0x0 00
                0x00200040                __ramtext_ram_start__ = ADDR (.ram_text)
                0x00203d70                __ramtext_ram_end__ = (ADDR (.ram_text) + SIZEOF (.ram_text))
                0x001082c0                __ramtext_load_start__ = LOADADDR (.ram_text)
                0x0010bff0                __ramtext_load_end__ = (__ramtext_load_start__ + SIZEOF (.ram_text))

.wav_data       0x0010bff0        0x0
 *.owav(*.data *.data.*)
                0x0010bff0                . = ALIGN (0x10)

.bmp_data       0x0010bff0      0x440
 *.obmp(*.data *.data.*)
 .data          0x0010bff0      0x43e ../ecrobot/../ecrobot/libecrobot.a(nxtjsp_splash.obmp)
                0x0010bff0                nxtjsp_splash_bmp_start
                0x0010c42e                nxtjsp_splash_bmp_end
                0x0010c430                . = ALIGN (0x10)
 *fill*         0x0010c42e        0x2 00

.spr_data       0x0010c430        0x0
 *.ospr(*.data *.data.*)
                0x0010c430                . = ALIGN (0x10)

.data           0x00203d70      0x8e0 load address 0x0010c430
 *(*.data *.data.*)
 .data.prev_light_status
                0x00203d70        0x4 build/main.o
                0x00203d70                prev_light_status
 .data.prev_sonar_status
                0x00203d74        0x4 build/main.o
                0x00203d74                prev_sonar_status
 .data.deviceStatus
                0x00203d78        0x1 ../ecrobot/../ecrobot/libecrobot.a(ecrobot_interface.o)
 .data.named    0x00203d79       0x22 ../ecrobot/../ecrobot/libecrobot.a(udp.oram)
 .data.snd      0x00203d9b       0x1a ../ecrobot/../ecrobot/libecrobot.a(udp.oram)
 *fill*         0x00203db5        0x3 00
 .data.configured
                0x00203db8        0x4 ../ecrobot/../ecrobot/libecrobot.a(udp.oram)
 .data.mode     0x00203dbc        0x1 ../ecrobot/../ecrobot/libecrobot.a(nxt_spi.oram)
                0x00203dbc                mode
 *fill*         0x00203dbd        0x3 00
 .bss.data      0x00203dc0        0x4 ../ecrobot/../ecrobot/libecrobot.a(nxt_spi.oram)
                0x00203dc0                data
 .data.display_auto_update
                0x00203dc4        0x4 ../ecrobot/../ecrobot/libecrobot.a(display.oram)
                0x00203dc4                display_auto_update
 .data.display_buffer
                0x00203dc8        0x4 ../ecrobot/../ecrobot/libecrobot.a(display.oram)
 .data._ZN10__cxxabiv120__unexpected_handlerE
                0x00203dcc        0x4 /vagrant/gnuarm/lib/gcc/arm-elf/4.4.2/../../../../arm-elf/lib/thumb/interwork/libstdc++.a(eh_unex_handler.o)
                0x00203dcc                _ZN10__cxxabiv120__unexpected_handlerE
 .data._ZN10__cxxabiv119__terminate_handlerE
                0x00203dd0        0x4 /vagrant/gnuarm/lib/gcc/arm-elf/4.4.2/../../../../arm-elf/lib/thumb/interwork/libstdc++.a(eh_term_handler.o)
                0x00203dd0                _ZN10__cxxabiv119__terminate_handlerE
 .data          0x00203dd4      0x428 /vagrant/gnuarm/lib/gcc/arm-elf/4.4.2/../../../../arm-elf/lib/thumb/interwork/libc.a(lib_a-impure.o)
                0x00203dd4                _impure_ptr
 .data          0x002041fc      0x410 /vagrant/gnuarm/lib/gcc/arm-elf/4.4.2/../../../../arm-elf/lib/thumb/interwork/libc.a(lib_a-mallocr.o)
                0x002041fc                __malloc_av_
                0x00204604                __malloc_sbrk_base
                0x00204608                __malloc_trim_threshold
 .data          0x0020460c       0x44 /vagrant/gnuarm/lib/gcc/arm-elf/4.4.2/../../../../arm-elf/lib/thumb/interwork/libc.a(lib_a-locale.o)
                0x0020464c                __mb_cur_max
                0x00204650                . = ALIGN (0x10)
                0x00203d70                __data_ram_start__ = ADDR (.data)
                0x00204650                __data_ram_end__ = (ADDR (.data) + SIZEOF (.data))
                0x0010c430                __data_load_start__ = LOADADDR (.data)
                0x0010cd10                __data_load_end__ = (__data_load_start__ + SIZEOF (.data))

.text           0x0010cd10     0xee90
                0x0010cd10                . = ALIGN (0x10)
 *(*.text *.text.* *.glue*)
 .glue_7        0x0010cd10       0x18 linker stubs
                0x0010cd10                ___kernel_call_texrtn_from_arm
                0x0010cd1c                __kernel_start_from_arm
 .glue_7t       0x00000000        0x0 linker stubs
 .text._kernel_print_banner
                0x0010cd28       0x2c build/kernel/banner.o
                0x0010cd28                _kernel_print_banner
 .text.unlock_cpu
                0x0010cd54       0x14 build/kernel/cyclic.o
 .text.lock_cpu
                0x0010cd68       0x14 build/kernel/cyclic.o
 .text._kernel_tmevtb_enqueue_cyc
                0x0010cd7c       0x20 build/kernel/cyclic.o
                0x0010cd7c                _kernel_tmevtb_enqueue_cyc
 .text._kernel_call_cychdr
                0x0010cd9c       0x2c build/kernel/cyclic.o
                0x0010cd9c                _kernel_call_cychdr
 .text._kernel_cyclic_initialize
                0x0010cdc8       0x4c build/kernel/cyclic.o
                0x0010cdc8                _kernel_cyclic_initialize
 .text._kernel_interrupt_initialize
                0x0010ce14       0x2c build/kernel/interrupt.o
                0x0010ce14                _kernel_interrupt_initialize
 .text._kernel_semaphore_initialize
                0x0010ce40       0x34 build/kernel/semaphore.o
                0x0010ce40                _kernel_semaphore_initialize
 .text.kernel_start
                0x0010ce74       0x30 build/kernel/startup.o
                0x0010ce74                kernel_start
 .text.sense_lock
                0x0010cea4       0x10 build/kernel/sys_manage.o
 .text.lock_cpu
                0x0010ceb4       0x14 build/kernel/sys_manage.o
 .text.loc_cpu  0x0010cec8       0x28 build/kernel/sys_manage.o
                0x0010cec8                loc_cpu
 .text.unlock_cpu
                0x0010cef0       0x14 build/kernel/sys_manage.o
 .text.unl_cpu  0x0010cf04       0x28 build/kernel/sys_manage.o
                0x0010cf04                unl_cpu
 .text._kernel_syslog_initialize
                0x0010cf2c       0x38 build/kernel/syslog.o
                0x0010cf2c                _kernel_syslog_initialize
 .text.lock_cpu
                0x0010cf64       0x14 build/kernel/syslog.o
 .text.unlock_cpu
                0x0010cf78       0x14 build/kernel/syslog.o
 .text.vwri_log
                0x0010cf8c       0xc0 build/kernel/syslog.o
                0x0010cf8c                vwri_log
 .text._kernel_make_runnable
                0x0010d04c       0x54 build/kernel/task.o
                0x0010d04c                _kernel_make_runnable
 .text._kernel_make_active
                0x0010d0a0       0x2c build/kernel/task.o
                0x0010d0a0                _kernel_make_active
 .text._kernel_task_initialize
                0x0010d0cc       0xb0 build/kernel/task.o
                0x0010d0cc                _kernel_task_initialize
 .text._kernel_call_texrtn
                0x0010d17c       0x60 build/kernel/task.o
                0x0010d17c                _kernel_call_texrtn
 .text.queue_empty
                0x0010d1dc       0x40 build/kernel/task.o
 .text._kernel_search_schedtsk
                0x0010d21c       0x6c build/kernel/task.o
                0x0010d21c                _kernel_search_schedtsk
 .text._kernel_make_non_runnable
                0x0010d288       0x70 build/kernel/task.o
                0x0010d288                _kernel_make_non_runnable
 .text._kernel_exit_task
                0x0010d2f8       0x48 build/kernel/task.o
                0x0010d2f8                _kernel_exit_task
 .text.sense_lock
                0x0010d340       0x10 build/kernel/task_manage.o
 .text.lock_cpu
                0x0010d350       0x14 build/kernel/task_manage.o
 .text.ext_tsk  0x0010d364       0x78 build/kernel/task_manage.o
                0x0010d364                ext_tsk
 .text.sense_lock
                0x0010d3dc       0x10 build/kernel/task_sync.o
 .text.lock_cpu
                0x0010d3ec       0x14 build/kernel/task_sync.o
 .text.unlock_cpu
                0x0010d400       0x14 build/kernel/task_sync.o
 .text.dly_tsk  0x0010d414       0x80 build/kernel/task_sync.o
                0x0010d414                dly_tsk
 .text.wup_tsk  0x0010d494       0x90 build/kernel/task_sync.o
                0x0010d494                wup_tsk
 .text.tslp_tsk
                0x0010d524       0x7c build/kernel/task_sync.o
                0x0010d524                tslp_tsk
 .text._kernel_tmevt_initialize
                0x0010d5a0       0x28 build/kernel/time_event.o
                0x0010d5a0                _kernel_tmevt_initialize
 .text._kernel_tmevt_down
                0x0010d5c8       0x84 build/kernel/time_event.o
                0x0010d5c8                _kernel_tmevt_down
 .text._kernel_tmevtb_insert
                0x0010d64c       0x7c build/kernel/time_event.o
                0x0010d64c                _kernel_tmevtb_insert
 .text._kernel_tmevtb_delete
                0x0010d6c8       0xc4 build/kernel/time_event.o
                0x0010d6c8                _kernel_tmevtb_delete
 .text.lock_cpu
                0x0010d78c       0x14 build/kernel/time_event.o
 .text.unlock_cpu
                0x0010d7a0       0x14 build/kernel/time_event.o
 .text.isig_tim
                0x0010d7b4       0xb8 build/kernel/time_event.o
                0x0010d7b4                isig_tim
 .text.make_non_wait
                0x0010d86c       0x44 build/kernel/wait.o
 .text._kernel_wait_tmout_ok
                0x0010d8b0       0x20 build/kernel/wait.o
                0x0010d8b0                _kernel_wait_tmout_ok
 .text._kernel_wait_tmout
                0x0010d8d0       0x30 build/kernel/wait.o
                0x0010d8d0                _kernel_wait_tmout
 .text._kernel_wait_complete
                0x0010d900       0x24 build/kernel/wait.o
                0x0010d900                _kernel_wait_complete
 .text._kernel_make_wait_tmout
                0x0010d924       0x70 build/kernel/wait.o
                0x0010d924                _kernel_make_wait_tmout
 .text._kernel_cpu_initialize
                0x0010d994        0xc build/config/armv4/cpu_config.o
                0x0010d994                _kernel_cpu_initialize
 .text._kernel_sys_initialize
                0x0010d9a0        0x4 build/config/armv4/at91sam7s/sys_config.o
                0x0010d9a0                _kernel_sys_initialize
 .text._kernel_sys_putc
                0x0010d9a4        0x4 build/config/armv4/at91sam7s/sys_config.o
                0x0010d9a4                _kernel_sys_putc
 .text.define_inh
                0x0010d9a8       0x3c build/config/armv4/at91sam7s/sys_config.o
                0x0010d9a8                define_inh
 .text._kernel_call_inirtn
                0x0010d9e4        0x4 build/./kernel_cfg.o
                0x0010d9e4                _kernel_call_inirtn
 .text._kernel_object_initialize
                0x0010d9e8       0x18 build/./kernel_cfg.o
                0x0010d9e8                _kernel_object_initialize
 .text.AssertDeviceConstructor
                0x0010da00       0x2c build/rtoscalls.o
                0x0010da00                AssertDeviceConstructor
 .text.SleepI2C
                0x0010da2c       0x20 build/rtoscalls.o
                0x0010da2c                SleepI2C
 .text._sbrk_r  0x0010da4c       0x20 build/syscalls.o
                0x0010da4c                _sbrk_r
 .text.init_OS_flag
                0x0010da6c        0xc build/ecrobot_base.o
                0x0010da6c                init_OS_flag
 .text.set_OS_flag
                0x0010da78        0xc build/ecrobot_base.o
                0x0010da78                set_OS_flag
 .text.get_OS_flag
                0x0010da84        0xc build/ecrobot_base.o
                0x0010da84                get_OS_flag
 .text.cpp_constructor
                0x0010da90       0x28 build/ecrobot_base.o
                0x0010da90                cpp_constructor
 .text.cpp_destructor
                0x0010dab8       0x28 build/ecrobot_base.o
                0x0010dab8                cpp_destructor
 .text.execution_mode
                0x0010dae0       0x14 build/ecrobot_base.o
                0x0010dae0                execution_mode
 .text.shutdown_NXT
                0x0010daf4       0x2c build/ecrobot_base.o
                0x0010daf4                shutdown_NXT
 .text.restart_NXT
                0x0010db20       0x2c build/ecrobot_base.o
                0x0010db20                restart_NXT
 .text.check_NXT_buttons
                0x0010db4c       0x38 build/ecrobot_base.o
                0x0010db4c                check_NXT_buttons
 .text.add_status_info
                0x0010db84       0x68 build/ecrobot_base.o
                0x0010db84                add_status_info
 .text.show_main_screen
                0x0010dbec       0x48 build/ecrobot_base.o
                0x0010dbec                show_main_screen
 .text.display_status_bar
                0x0010dc34       0x5c build/ecrobot_base.o
                0x0010dc34                display_status_bar
 .text.show_splash_screen
                0x0010dc90       0x98 build/ecrobot_base.o
                0x0010dc90                show_splash_screen
 .text.main     0x0010dd28      0x108 build/ecrobot.o
                0x0010dd28                main
 .text._ZN7ecrobot11SonarSensorD1Ev
                0x0010de30       0x14 build/main.o
                0x0010de30                _ZN7ecrobot11SonarSensorD1Ev
 .text._ZN7ecrobot11SonarSensorD0Ev
                0x0010de44       0x1c build/main.o
                0x0010de44                _ZN7ecrobot11SonarSensorD0Ev
 .text._ZN7ecrobot11TouchSensorD1Ev
                0x0010de60       0x18 build/main.o
                0x0010de60                _ZN7ecrobot11TouchSensorD1Ev
 .text._ZN7ecrobot11TouchSensorD0Ev
                0x0010de78       0x20 build/main.o
                0x0010de78                _ZN7ecrobot11TouchSensorD0Ev
 .text._ZN7ecrobot6SensorD0Ev
                0x0010de98       0x20 build/main.o
                0x0010de98                _ZN7ecrobot6SensorD0Ev
 .text._ZN7ecrobot6SensorD1Ev
                0x0010deb8       0x18 build/main.o
                0x0010deb8                _ZN7ecrobot6SensorD1Ev
 .text.turnLeft
                0x0010ded0       0x20 build/main.o
                0x0010ded0                turnLeft
 .text.turnRight
                0x0010def0       0x20 build/main.o
                0x0010def0                turnRight
 .text.stop     0x0010df10       0x20 build/main.o
                0x0010df10                stop
 .text.tsk_main
                0x0010df30       0x10 build/main.o
                0x0010df30                tsk_main
 .text._Z11mexu_unlockv
                0x0010df40        0xc build/main.o
                0x0010df40                _Z11mexu_unlockv
 .text._Z9mexu_lockv
                0x0010df4c        0xc build/main.o
                0x0010df4c                _Z9mexu_lockv
 .text.tsk_timer
                0x0010df58       0x10 build/main.o
                0x0010df58                tsk_timer
 .text.jsp_systick_low_priority
                0x0010df68       0x18 build/main.o
                0x0010df68                jsp_systick_low_priority
 .text._Z23generate_external_sonarv
                0x0010df80       0x14 build/main.o
                0x0010df80                _Z23generate_external_sonarv
 .text._Z31generate_external_TouchRelease2v
                0x0010df94       0x14 build/main.o
                0x0010df94                _Z31generate_external_TouchRelease2v
 .text._Z29generate_external_TouchPress2v
                0x0010dfa8       0x14 build/main.o
                0x0010dfa8                _Z29generate_external_TouchPress2v
 .text._Z30generate_external_TouchReleasev
                0x0010dfbc       0x14 build/main.o
                0x0010dfbc                _Z30generate_external_TouchReleasev
 .text._Z28generate_external_TouchPressv
                0x0010dfd0       0x14 build/main.o
                0x0010dfd0                _Z28generate_external_TouchPressv
 .text._Z28generate_external_LightBlackv
                0x0010dfe4       0x14 build/main.o
                0x0010dfe4                _Z28generate_external_LightBlackv
 .text._Z28generate_external_LightWhitev
                0x0010dff8       0x14 build/main.o
                0x0010dff8                _Z28generate_external_LightWhitev
 .text.tsk_event
                0x0010e00c      0x15c build/main.o
                0x0010e00c                tsk_event
 .text.T.18     0x0010e168       0x98 build/main.o
 .text._GLOBAL__I__Z28generate_external_LightWhitev
                0x0010e200        0xc build/main.o
 .text._GLOBAL__D__Z28generate_external_LightWhitev
                0x0010e20c        0xc build/main.o
 .text._ZN12StateMachineC2Ev
                0x0010e218       0x2c build/MEXU.o
                0x0010e218                _ZN12StateMachineC2Ev
 .text._ZN12EventManagerC1Ev
                0x0010e244        0x8 build/MEXU.o
                0x0010e244                _ZN12EventManagerC1Ev
 .text._ZN12EventManager6addSTMEP12StateMachine
                0x0010e24c        0xc build/MEXU.o
                0x0010e24c                _ZN12EventManager6addSTMEP12StateMachine
 .text._ZN12EventManager9sendEventEP12StateMachinei
                0x0010e258       0x30 build/MEXU.o
                0x0010e258                _ZN12EventManager9sendEventEP12StateMachinei
 .text._ZN12StateMachine9sendEventEi
                0x0010e288       0x18 build/MEXU.o
                0x0010e288                _ZN12StateMachine9sendEventEi
 .text._ZN21MEXUTimerEventManager4tickEv
                0x0010e2a0       0x58 build/MEXU.o
                0x0010e2a0                _ZN21MEXUTimerEventManager4tickEv
 .text._ZN12EventManager7executeEv
                0x0010e2f8       0x30 build/MEXU.o
                0x0010e2f8                _ZN12EventManager7executeEv
 .text._ZN3foo6actionENS_6statesE
                0x0010e328       0x10 build/stm.o
                0x0010e328                _ZN3foo6actionENS_6statesE
 .text._ZN3foo7executeEP9MEXUEvent
                0x0010e338       0x2c build/stm.o
                0x0010e338                _ZN3foo7executeEP9MEXUEvent
 .text._ZN11Transporter6actionENS_6statesE
                0x0010e364       0x30 build/stm.o
                0x0010e364                _ZN11Transporter6actionENS_6statesE
 .text._ZN11Transporter7executeEP9MEXUEvent
                0x0010e394       0x2c build/stm.o
                0x0010e394                _ZN11Transporter7executeEP9MEXUEvent
 .text.T.11     0x0010e3c0       0x68 build/stm.o
 .text._GLOBAL__I__ZN11Transporter6matrixE
                0x0010e428        0xc build/stm.o
 .text._GLOBAL__D__ZN11Transporter6matrixE
                0x0010e434        0xc build/stm.o
 .text._ZN7ecrobot3I2cC2E6ePortS6ePower
                0x0010e440       0x30 ../ecrobot/../ecrobot/libecrobot++.a(I2c.o)
                0x0010e440                _ZN7ecrobot3I2cC2E6ePortS6ePower
 .text._ZN7ecrobot3I2cD2Ev
                0x0010e470       0x20 ../ecrobot/../ecrobot/libecrobot++.a(I2c.o)
                0x0010e470                _ZN7ecrobot3I2cD2Ev
 .text._ZN7ecrobot3I2cD1Ev
                0x0010e490       0x20 ../ecrobot/../ecrobot/libecrobot++.a(I2c.o)
                0x0010e490                _ZN7ecrobot3I2cD1Ev
 .text._ZN7ecrobot3I2cD0Ev
                0x0010e4b0       0x28 ../ecrobot/../ecrobot/libecrobot++.a(I2c.o)
                0x0010e4b0                _ZN7ecrobot3I2cD0Ev
 .text._ZNK7ecrobot3I2c7receiveEmPhm
                0x0010e4d8       0x40 ../ecrobot/../ecrobot/libecrobot++.a(I2c.o)
                0x0010e4d8                _ZNK7ecrobot3I2c7receiveEmPhm
 .text._ZN7ecrobot3LcdC1Ev
                0x0010e518        0x8 ../ecrobot/../ecrobot/libecrobot++.a(Lcd.o)
                0x0010e518                _ZN7ecrobot3LcdC1Ev
 .text._ZN7ecrobot3Lcd4putfEPKcz
                0x0010e520       0x98 ../ecrobot/../ecrobot/libecrobot++.a(Lcd.o)
                0x0010e520                _ZN7ecrobot3Lcd4putfEPKcz
 .text._ZN7ecrobot3Lcd4dispEv
                0x0010e5b8        0xc ../ecrobot/../ecrobot/libecrobot++.a(Lcd.o)
                0x0010e5b8                _ZN7ecrobot3Lcd4dispEv
 .text._ZN7ecrobot11LightSensorD0Ev
                0x0010e5c4       0x30 ../ecrobot/../ecrobot/libecrobot++.a(LightSensor.o)
                0x0010e5c4                _ZN7ecrobot11LightSensorD0Ev
 .text._ZNK7ecrobot11LightSensor13getBrightnessEv
                0x0010e5f4       0x1c ../ecrobot/../ecrobot/libecrobot++.a(LightSensor.o)
                0x0010e5f4                _ZNK7ecrobot11LightSensor13getBrightnessEv
 .text._ZN7ecrobot11LightSensor7setLampEb
                0x0010e610       0x1c ../ecrobot/../ecrobot/libecrobot++.a(LightSensor.o)
                0x0010e610                _ZN7ecrobot11LightSensor7setLampEb
 .text._ZN7ecrobot11LightSensorC1E6ePortSb
                0x0010e62c       0x3c ../ecrobot/../ecrobot/libecrobot++.a(LightSensor.o)
                0x0010e62c                _ZN7ecrobot11LightSensorC1E6ePortSb
 .text._ZN7ecrobot11LightSensorD1Ev
                0x0010e668       0x28 ../ecrobot/../ecrobot/libecrobot++.a(LightSensor.o)
                0x0010e668                _ZN7ecrobot11LightSensorD1Ev
 .text._ZN7ecrobot5MotorC1E6ePortMb
                0x0010e690       0x18 ../ecrobot/../ecrobot/libecrobot++.a(Motor.o)
                0x0010e690                _ZN7ecrobot5MotorC1E6ePortMb
 .text._ZN7ecrobot5MotorD1Ev
                0x0010e6a8       0x10 ../ecrobot/../ecrobot/libecrobot++.a(Motor.o)
                0x0010e6a8                _ZN7ecrobot5MotorD1Ev
 .text._ZN7ecrobot5Motor6setPWMEa
                0x0010e6b8       0x3c ../ecrobot/../ecrobot/libecrobot++.a(Motor.o)
                0x0010e6b8                _ZN7ecrobot5Motor6setPWMEa
 .text._ZN7ecrobot11SonarSensorC1E6ePortS
                0x0010e6f4       0x18 ../ecrobot/../ecrobot/libecrobot++.a(SonarSensor.o)
                0x0010e6f4                _ZN7ecrobot11SonarSensorC1E6ePortS
 .text._ZNK7ecrobot11SonarSensor11getDistanceEv
                0x0010e70c       0x1c ../ecrobot/../ecrobot/libecrobot++.a(SonarSensor.o)
                0x0010e70c                _ZNK7ecrobot11SonarSensor11getDistanceEv
 .text._ZN7ecrobot11TouchSensorC1E6ePortS
                0x0010e728       0x30 ../ecrobot/../ecrobot/libecrobot++.a(TouchSensor.o)
                0x0010e728                _ZN7ecrobot11TouchSensorC1E6ePortS
 .text._ZNK7ecrobot11TouchSensor9isPressedEv
                0x0010e758       0x20 ../ecrobot/../ecrobot/libecrobot++.a(TouchSensor.o)
                0x0010e758                _ZNK7ecrobot11TouchSensor9isPressedEv
 .text._Znwm    0x0010e778       0x10 ../ecrobot/../ecrobot/libecrobot++.a(New.o)
                0x0010e778                _Znwm
 .text._ZdlPv   0x0010e788        0xc ../ecrobot/../ecrobot/libecrobot++.a(New.o)
                0x0010e788                _ZdlPv
 .text.ecrobot_device_initialize
                0x0010e794        0x4 ../ecrobot/../ecrobot/libecrobot.a(ecrobot_device_hook.o)
                0x0010e794                ecrobot_device_initialize
 .text.ecrobot_device_terminate
                0x0010e798        0x4 ../ecrobot/../ecrobot/libecrobot.a(ecrobot_device_hook.o)
                0x0010e798                ecrobot_device_terminate
 .text.ecrobot_get_battery_voltage
                0x0010e79c        0xc ../ecrobot/../ecrobot/libecrobot.a(ecrobot_interface.o)
                0x0010e79c                ecrobot_get_battery_voltage
 .text.ecrobot_get_button_state
                0x0010e7a8        0xc ../ecrobot/../ecrobot/libecrobot.a(ecrobot_interface.o)
                0x0010e7a8                ecrobot_get_button_state
 .text.ecrobot_init_nxtstate
                0x0010e7b4       0x28 ../ecrobot/../ecrobot/libecrobot.a(ecrobot_interface.o)
                0x0010e7b4                ecrobot_init_nxtstate
 .text.ecrobot_poll_nxtstate
                0x0010e7dc       0x64 ../ecrobot/../ecrobot/libecrobot.a(ecrobot_interface.o)
                0x0010e7dc                ecrobot_poll_nxtstate
 .text.ecrobot_setDeviceInitialized
                0x0010e840       0x18 ../ecrobot/../ecrobot/libecrobot.a(ecrobot_interface.o)
                0x0010e840                ecrobot_setDeviceInitialized
 .text.ecrobot_initDeviceStatus
                0x0010e858        0xc ../ecrobot/../ecrobot/libecrobot.a(ecrobot_interface.o)
                0x0010e858                ecrobot_initDeviceStatus
 .text.ecrobot_bmp2lcd
                0x0010e864      0x1c8 ../ecrobot/../ecrobot/libecrobot.a(ecrobot_interface.o)
                0x0010e864                ecrobot_bmp2lcd
 .text.__cxa_pure_virtual
                0x0010ea2c       0x14 /vagrant/gnuarm/lib/gcc/arm-elf/4.4.2/../../../../arm-elf/lib/thumb/interwork/libstdc++.a(pure.o)
                0x0010ea2c                __cxa_pure_virtual
 .text._ZL16get_adjusted_ptrPKSt9type_infoS1_PPv
                0x0010ea40       0x48 /vagrant/gnuarm/lib/gcc/arm-elf/4.4.2/../../../../arm-elf/lib/thumb/interwork/libstdc++.a(eh_personality.o)
 .text._ZL21base_of_encoded_valuehP15_Unwind_Context
                0x0010ea88       0x50 /vagrant/gnuarm/lib/gcc/arm-elf/4.4.2/../../../../arm-elf/lib/thumb/interwork/libstdc++.a(eh_personality.o)
 .text._ZL28read_encoded_value_with_basehjPKhPj
                0x0010ead8       0xf0 /vagrant/gnuarm/lib/gcc/arm-elf/4.4.2/../../../../arm-elf/lib/thumb/interwork/libstdc++.a(eh_personality.o)
 .text._ZL17parse_lsda_headerP15_Unwind_ContextPKhP16lsda_header_info
                0x0010ebc8       0x98 /vagrant/gnuarm/lib/gcc/arm-elf/4.4.2/../../../../arm-elf/lib/thumb/interwork/libstdc++.a(eh_personality.o)
 .text._ZL15get_ttype_entryP16lsda_header_infom
                0x0010ec60       0x54 /vagrant/gnuarm/lib/gcc/arm-elf/4.4.2/../../../../arm-elf/lib/thumb/interwork/libstdc++.a(eh_personality.o)
 .text._ZL20check_exception_specP16lsda_header_infoPKSt9type_infoPvl
                0x0010ecb4       0x60 /vagrant/gnuarm/lib/gcc/arm-elf/4.4.2/../../../../arm-elf/lib/thumb/interwork/libstdc++.a(eh_personality.o)
 .text.__cxa_call_unexpected
                0x0010ed14      0x10c /vagrant/gnuarm/lib/gcc/arm-elf/4.4.2/../../../../arm-elf/lib/thumb/interwork/libstdc++.a(eh_personality.o)
                0x0010ed14                __cxa_call_unexpected
 .text.__gxx_personality_sj0
                0x0010ee20      0x3f4 /vagrant/gnuarm/lib/gcc/arm-elf/4.4.2/../../../../arm-elf/lib/thumb/interwork/libstdc++.a(eh_personality.o)
                0x0010ee20                __gxx_personality_sj0
 .text._ZN10__cxxabiv111__terminateEPFvvE
                0x0010f214       0x78 /vagrant/gnuarm/lib/gcc/arm-elf/4.4.2/../../../../arm-elf/lib/thumb/interwork/libstdc++.a(eh_terminate.o)
                0x0010f214                _ZN10__cxxabiv111__terminateEPFvvE
 .text._ZSt9terminatev
                0x0010f28c       0x10 /vagrant/gnuarm/lib/gcc/arm-elf/4.4.2/../../../../arm-elf/lib/thumb/interwork/libstdc++.a(eh_terminate.o)
                0x0010f28c                _ZSt9terminatev
 .text._ZN10__cxxabiv112__unexpectedEPFvvE
                0x0010f29c        0xc /vagrant/gnuarm/lib/gcc/arm-elf/4.4.2/../../../../arm-elf/lib/thumb/interwork/libstdc++.a(eh_terminate.o)
                0x0010f29c                _ZN10__cxxabiv112__unexpectedEPFvvE
 .text._ZSt10unexpectedv
                0x0010f2a8       0x10 /vagrant/gnuarm/lib/gcc/arm-elf/4.4.2/../../../../arm-elf/lib/thumb/interwork/libstdc++.a(eh_terminate.o)
                0x0010f2a8                _ZSt10unexpectedv
 .text.__cxa_rethrow
                0x0010f2b8       0x4c /vagrant/gnuarm/lib/gcc/arm-elf/4.4.2/../../../../arm-elf/lib/thumb/interwork/libstdc++.a(eh_throw.o)
                0x0010f2b8                __cxa_rethrow
 .text.__cxa_throw
                0x0010f304       0x50 /vagrant/gnuarm/lib/gcc/arm-elf/4.4.2/../../../../arm-elf/lib/thumb/interwork/libstdc++.a(eh_throw.o)
                0x0010f304                __cxa_throw
 .text._ZL23__gxx_exception_cleanup19_Unwind_Reason_CodeP17_Unwind_Exception
                0x0010f354       0x34 /vagrant/gnuarm/lib/gcc/arm-elf/4.4.2/../../../../arm-elf/lib/thumb/interwork/libstdc++.a(eh_throw.o)
 .text._GLOBAL__I___cxa_allocate_exception
                0x0010f388        0x4 /vagrant/gnuarm/lib/gcc/arm-elf/4.4.2/../../../../arm-elf/lib/thumb/interwork/libstdc++.a(eh_alloc.o)
 .text.__cxa_free_exception
                0x0010f38c       0x38 /vagrant/gnuarm/lib/gcc/arm-elf/4.4.2/../../../../arm-elf/lib/thumb/interwork/libstdc++.a(eh_alloc.o)
                0x0010f38c                __cxa_free_exception
 .text.__cxa_allocate_exception
                0x0010f3c4       0xec /vagrant/gnuarm/lib/gcc/arm-elf/4.4.2/../../../../arm-elf/lib/thumb/interwork/libstdc++.a(eh_alloc.o)
                0x0010f3c4                __cxa_allocate_exception
 .text.__cxa_call_terminate
                0x0010f4b0       0x34 /vagrant/gnuarm/lib/gcc/arm-elf/4.4.2/../../../../arm-elf/lib/thumb/interwork/libstdc++.a(eh_call.o)
                0x0010f4b0                __cxa_call_terminate
 .text.__cxa_end_catch
                0x0010f4e4       0x70 /vagrant/gnuarm/lib/gcc/arm-elf/4.4.2/../../../../arm-elf/lib/thumb/interwork/libstdc++.a(eh_catch.o)
                0x0010f4e4                __cxa_end_catch
 .text.__cxa_begin_catch
                0x0010f554       0xbc /vagrant/gnuarm/lib/gcc/arm-elf/4.4.2/../../../../arm-elf/lib/thumb/interwork/libstdc++.a(eh_catch.o)
                0x0010f554                __cxa_begin_catch
 .text._ZNSt9exceptionD1Ev
                0x0010f610        0xc /vagrant/gnuarm/lib/gcc/arm-elf/4.4.2/../../../../arm-elf/lib/thumb/interwork/libstdc++.a(eh_exception.o)
                0x0010f610                _ZNSt9exceptionD1Ev
 .text._ZNSt13bad_exceptionD1Ev
                0x0010f61c        0xc /vagrant/gnuarm/lib/gcc/arm-elf/4.4.2/../../../../arm-elf/lib/thumb/interwork/libstdc++.a(eh_exception.o)
                0x0010f61c                _ZNSt13bad_exceptionD1Ev
 .text._ZNKSt9exception4whatEv
                0x0010f628        0x8 /vagrant/gnuarm/lib/gcc/arm-elf/4.4.2/../../../../arm-elf/lib/thumb/interwork/libstdc++.a(eh_exception.o)
                0x0010f628                _ZNKSt9exception4whatEv
 .text._ZNKSt13bad_exception4whatEv
                0x0010f630        0x8 /vagrant/gnuarm/lib/gcc/arm-elf/4.4.2/../../../../arm-elf/lib/thumb/interwork/libstdc++.a(eh_exception.o)
                0x0010f630                _ZNKSt13bad_exception4whatEv
 .text._ZNSt9exceptionD0Ev
                0x0010f638       0x14 /vagrant/gnuarm/lib/gcc/arm-elf/4.4.2/../../../../arm-elf/lib/thumb/interwork/libstdc++.a(eh_exception.o)
                0x0010f638                _ZNSt9exceptionD0Ev
 .text._ZNSt13bad_exceptionD0Ev
                0x0010f64c       0x14 /vagrant/gnuarm/lib/gcc/arm-elf/4.4.2/../../../../arm-elf/lib/thumb/interwork/libstdc++.a(eh_exception.o)
                0x0010f64c                _ZNSt13bad_exceptionD0Ev
 .text.__cxa_get_globals_fast
                0x0010f660        0x8 /vagrant/gnuarm/lib/gcc/arm-elf/4.4.2/../../../../arm-elf/lib/thumb/interwork/libstdc++.a(eh_globals.o)
                0x0010f660                __cxa_get_globals_fast
 .text.__cxa_get_globals
                0x0010f668        0x8 /vagrant/gnuarm/lib/gcc/arm-elf/4.4.2/../../../../arm-elf/lib/thumb/interwork/libstdc++.a(eh_globals.o)
                0x0010f668                __cxa_get_globals
 .text._ZNK10__cxxabiv120__si_class_type_info20__do_find_public_srcElPKvPKNS_17__class_type_infoES2_
                0x0010f670       0x2c /vagrant/gnuarm/lib/gcc/arm-elf/4.4.2/../../../../arm-elf/lib/thumb/interwork/libstdc++.a(si_class_type_info.o)
                0x0010f670                _ZNK10__cxxabiv120__si_class_type_info20__do_find_public_srcElPKvPKNS_17__class_type_infoES2_
 .text._ZNK10__cxxabiv120__si_class_type_info12__do_dyncastElNS_17__class_type_info10__sub_kindEPKS1_PKvS4_S6_RNS1_16__dyncast_resultE
                0x0010f69c       0x88 /vagrant/gnuarm/lib/gcc/arm-elf/4.4.2/../../../../arm-elf/lib/thumb/interwork/libstdc++.a(si_class_type_info.o)
                0x0010f69c                _ZNK10__cxxabiv120__si_class_type_info12__do_dyncastElNS_17__class_type_info10__sub_kindEPKS1_PKvS4_S6_RNS1_16__dyncast_resultE
 .text._ZNK10__cxxabiv120__si_class_type_info11__do_upcastEPKNS_17__class_type_infoEPKvRNS1_15__upcast_resultE
                0x0010f724       0x30 /vagrant/gnuarm/lib/gcc/arm-elf/4.4.2/../../../../arm-elf/lib/thumb/interwork/libstdc++.a(si_class_type_info.o)
                0x0010f724                _ZNK10__cxxabiv120__si_class_type_info11__do_upcastEPKNS_17__class_type_infoEPKvRNS1_15__upcast_resultE
 .text._ZN10__cxxabiv120__si_class_type_infoD1Ev
                0x0010f754       0x14 /vagrant/gnuarm/lib/gcc/arm-elf/4.4.2/../../../../arm-elf/lib/thumb/interwork/libstdc++.a(si_class_type_info.o)
                0x0010f754                _ZN10__cxxabiv120__si_class_type_infoD1Ev
 .text._ZN10__cxxabiv120__si_class_type_infoD0Ev
                0x0010f768       0x1c /vagrant/gnuarm/lib/gcc/arm-elf/4.4.2/../../../../arm-elf/lib/thumb/interwork/libstdc++.a(si_class_type_info.o)
                0x0010f768                _ZN10__cxxabiv120__si_class_type_infoD0Ev
 .text._ZNSt9type_infoD2Ev
                0x0010f784        0xc /vagrant/gnuarm/lib/gcc/arm-elf/4.4.2/../../../../arm-elf/lib/thumb/interwork/libstdc++.a(tinfo.o)
                0x0010f784                _ZNSt9type_infoD2Ev
 .text._ZNSt9type_infoD1Ev
                0x0010f790        0xc /vagrant/gnuarm/lib/gcc/arm-elf/4.4.2/../../../../arm-elf/lib/thumb/interwork/libstdc++.a(tinfo.o)
                0x0010f790                _ZNSt9type_infoD1Ev
 .text._ZNKSt9type_info14__is_pointer_pEv
                0x0010f79c        0x4 /vagrant/gnuarm/lib/gcc/arm-elf/4.4.2/../../../../arm-elf/lib/thumb/interwork/libstdc++.a(tinfo.o)
                0x0010f79c                _ZNKSt9type_info14__is_pointer_pEv
 .text._ZNKSt9type_info15__is_function_pEv
                0x0010f7a0        0x4 /vagrant/gnuarm/lib/gcc/arm-elf/4.4.2/../../../../arm-elf/lib/thumb/interwork/libstdc++.a(tinfo.o)
                0x0010f7a0                _ZNKSt9type_info15__is_function_pEv
 .text._ZNKSt9type_info10__do_catchEPKS_PPvj
                0x0010f7a4        0xc /vagrant/gnuarm/lib/gcc/arm-elf/4.4.2/../../../../arm-elf/lib/thumb/interwork/libstdc++.a(tinfo.o)
                0x0010f7a4                _ZNKSt9type_info10__do_catchEPKS_PPvj
 .text._ZNKSt9type_info11__do_upcastEPKN10__cxxabiv117__class_type_infoEPPv
                0x0010f7b0        0x4 /vagrant/gnuarm/lib/gcc/arm-elf/4.4.2/../../../../arm-elf/lib/thumb/interwork/libstdc++.a(tinfo.o)
                0x0010f7b0                _ZNKSt9type_info11__do_upcastEPKN10__cxxabiv117__class_type_infoEPPv
 .text._ZNSt9type_infoD0Ev
                0x0010f7b4       0x14 /vagrant/gnuarm/lib/gcc/arm-elf/4.4.2/../../../../arm-elf/lib/thumb/interwork/libstdc++.a(tinfo.o)
                0x0010f7b4                _ZNSt9type_infoD0Ev
 .text._ZN9__gnu_cxx27__verbose_terminate_handlerEv
                0x0010f7c8      0x194 /vagrant/gnuarm/lib/gcc/arm-elf/4.4.2/../../../../arm-elf/lib/thumb/interwork/libstdc++.a(vterminate.o)
                0x0010f7c8                _ZN9__gnu_cxx27__verbose_terminate_handlerEv
 .text._ZNK10__cxxabiv117__class_type_info10__do_catchEPKSt9type_infoPPvj
                0x0010f95c       0x2c /vagrant/gnuarm/lib/gcc/arm-elf/4.4.2/../../../../arm-elf/lib/thumb/interwork/libstdc++.a(class_type_info.o)
                0x0010f95c                _ZNK10__cxxabiv117__class_type_info10__do_catchEPKSt9type_infoPPvj
 .text._ZNK10__cxxabiv117__class_type_info11__do_upcastEPKS0_PPv
                0x0010f988       0x3c /vagrant/gnuarm/lib/gcc/arm-elf/4.4.2/../../../../arm-elf/lib/thumb/interwork/libstdc++.a(class_type_info.o)
                0x0010f988                _ZNK10__cxxabiv117__class_type_info11__do_upcastEPKS0_PPv
 .text._ZNK10__cxxabiv117__class_type_info20__do_find_public_srcElPKvPKS0_S2_
                0x0010f9c4       0x10 /vagrant/gnuarm/lib/gcc/arm-elf/4.4.2/../../../../arm-elf/lib/thumb/interwork/libstdc++.a(class_type_info.o)
                0x0010f9c4                _ZNK10__cxxabiv117__class_type_info20__do_find_public_srcElPKvPKS0_S2_
 .text._ZNK10__cxxabiv117__class_type_info12__do_dyncastElNS0_10__sub_kindEPKS0_PKvS3_S5_RNS0_16__dyncast_resultE
                0x0010f9d4       0x34 /vagrant/gnuarm/lib/gcc/arm-elf/4.4.2/../../../../arm-elf/lib/thumb/interwork/libstdc++.a(class_type_info.o)
                0x0010f9d4                _ZNK10__cxxabiv117__class_type_info12__do_dyncastElNS0_10__sub_kindEPKS0_PKvS3_S5_RNS0_16__dyncast_resultE
 .text._ZNK10__cxxabiv117__class_type_info11__do_upcastEPKS0_PKvRNS0_15__upcast_resultE
                0x0010fa08       0x1c /vagrant/gnuarm/lib/gcc/arm-elf/4.4.2/../../../../arm-elf/lib/thumb/interwork/libstdc++.a(class_type_info.o)
                0x0010fa08                _ZNK10__cxxabiv117__class_type_info11__do_upcastEPKS0_PKvRNS0_15__upcast_resultE
 .text._ZN10__cxxabiv117__class_type_infoD1Ev
                0x0010fa24       0x14 /vagrant/gnuarm/lib/gcc/arm-elf/4.4.2/../../../../arm-elf/lib/thumb/interwork/libstdc++.a(class_type_info.o)
                0x0010fa24                _ZN10__cxxabiv117__class_type_infoD1Ev
 .text._ZN10__cxxabiv117__class_type_infoD2Ev
                0x0010fa38       0x14 /vagrant/gnuarm/lib/gcc/arm-elf/4.4.2/../../../../arm-elf/lib/thumb/interwork/libstdc++.a(class_type_info.o)
                0x0010fa38                _ZN10__cxxabiv117__class_type_infoD2Ev
 .text._ZN10__cxxabiv117__class_type_infoD0Ev
                0x0010fa4c       0x1c /vagrant/gnuarm/lib/gcc/arm-elf/4.4.2/../../../../arm-elf/lib/thumb/interwork/libstdc++.a(class_type_info.o)
                0x0010fa4c                _ZN10__cxxabiv117__class_type_infoD0Ev
 .text          0x0010fa68     0x2f08 /vagrant/gnuarm/lib/gcc/arm-elf/4.4.2/../../../../arm-elf/lib/thumb/interwork/libstdc++.a(cp-demangle.o)
                0x00112570                __gcclibcxx_demangle_callback
                0x001125a0                __cxa_demangle
 .text.__cxa_current_exception_type
                0x00112970       0x24 /vagrant/gnuarm/lib/gcc/arm-elf/4.4.2/../../../../arm-elf/lib/thumb/interwork/libstdc++.a(eh_type.o)
                0x00112970                __cxa_current_exception_type
 .text          0x00112994       0x8c /vagrant/gnuarm/lib/gcc/arm-elf/4.4.2/thumb/interwork/libgcc.a(_udivsi3.o)
                0x00112994                __udivsi3
                0x00112994                __aeabi_uidiv
                0x00112a10                __aeabi_uidivmod
 .text          0x00112a20       0xa4 /vagrant/gnuarm/lib/gcc/arm-elf/4.4.2/thumb/interwork/libgcc.a(_divsi3.o)
                0x00112a20                __aeabi_idiv
                0x00112a20                __divsi3
                0x00112ab4                __aeabi_idivmod
 .text          0x00112ac4       0xc8 /vagrant/gnuarm/lib/gcc/arm-elf/4.4.2/thumb/interwork/libgcc.a(_umodsi3.o)
                0x00112ac4                __umodsi3
 .text          0x00112b8c       0xd8 /vagrant/gnuarm/lib/gcc/arm-elf/4.4.2/thumb/interwork/libgcc.a(_modsi3.o)
                0x00112b8c                __modsi3
 .text          0x00112c64        0x4 /vagrant/gnuarm/lib/gcc/arm-elf/4.4.2/thumb/interwork/libgcc.a(_dvmd_tls.o)
                0x00112c64                __aeabi_ldiv0
                0x00112c64                __div0
                0x00112c64                __aeabi_idiv0
 .text          0x00112c68      0x430 /vagrant/gnuarm/lib/gcc/arm-elf/4.4.2/thumb/interwork/libgcc.a(_arm_addsubdf3.o)
                0x00112c68                __aeabi_drsub
                0x00112c70                __aeabi_dsub
                0x00112c70                __subdf3
                0x00112c74                __adddf3
                0x00112c74                __aeabi_dadd
                0x00112f84                __aeabi_ui2d
                0x00112f84                __floatunsidf
                0x00112fac                __floatsidf
                0x00112fac                __aeabi_i2d
                0x00112fd8                __extendsfdf2
                0x00112fd8                __aeabi_f2d
                0x00113018                __aeabi_ul2d
                0x00113018                __floatundidf
                0x0011302c                __floatdidf
                0x0011302c                __aeabi_l2d
 .text          0x00113098      0x49c /vagrant/gnuarm/lib/gcc/arm-elf/4.4.2/thumb/interwork/libgcc.a(_arm_muldivdf3.o)
                0x00113098                __aeabi_dmul
                0x00113098                __muldf3
                0x00113328                __aeabi_ddiv
                0x00113328                __divdf3
 .text          0x00113534      0x140 /vagrant/gnuarm/lib/gcc/arm-elf/4.4.2/thumb/interwork/libgcc.a(_arm_cmpdf2.o)
                0x00113534                __gtdf2
                0x00113534                __gedf2
                0x0011353c                __ltdf2
                0x0011353c                __ledf2
                0x00113544                __cmpdf2
                0x00113544                __eqdf2
                0x00113544                __nedf2
                0x001135c8                __aeabi_cdrcmple
                0x001135e4                __aeabi_cdcmple
                0x001135e4                __aeabi_cdcmpeq
                0x001135fc                __aeabi_dcmpeq
                0x00113614                __aeabi_dcmplt
                0x0011362c                __aeabi_dcmple
                0x00113644                __aeabi_dcmpge
                0x0011365c                __aeabi_dcmpgt
 .text          0x00113674      0x3c0 /vagrant/gnuarm/lib/gcc/arm-elf/4.4.2/thumb/interwork/libgcc.a(unwind-sjlj.o)
                0x00113674                _Unwind_SjLj_Register
                0x0011369c                _Unwind_SjLj_Unregister
                0x001136a8                _Unwind_GetGR
                0x001136b4                _Unwind_GetCFA
                0x001136c4                _Unwind_SetGR
                0x001136d0                _Unwind_GetIP
                0x001136d8                _Unwind_GetIPInfo
                0x001136ec                _Unwind_SetIP
                0x001136f4                _Unwind_GetLanguageSpecificData
                0x001136fc                _Unwind_GetRegionStart
                0x00113700                _Unwind_FindEnclosingFunction
                0x00113704                _Unwind_GetDataRelBase
                0x00113708                _Unwind_GetTextRelBase
                0x001137ec                _Unwind_DeleteException
                0x00113800                _Unwind_Backtrace
                0x001138e8                _Unwind_SjLj_Resume
                0x00113924                _Unwind_SjLj_ForcedUnwind
                0x0011395c                _Unwind_SjLj_RaiseException
                0x001139ec                _Unwind_SjLj_Resume_or_Rethrow
 .text          0x00113a34       0x10 /vagrant/gnuarm/lib/gcc/arm-elf/4.4.2/../../../../arm-elf/lib/thumb/interwork/libc.a(lib_a-abort.o)
                0x00113a34                abort
 .text          0x00113a44       0x54 /vagrant/gnuarm/lib/gcc/arm-elf/4.4.2/../../../../arm-elf/lib/thumb/interwork/libc.a(lib_a-fputc.o)
                0x00113a44                fputc
                0x00113a70                _fputc_r
 .text          0x00113a98       0x74 /vagrant/gnuarm/lib/gcc/arm-elf/4.4.2/../../../../arm-elf/lib/thumb/interwork/libc.a(lib_a-fputs.o)
                0x00113a98                _fputs_r
                0x00113af4                fputs
 .text          0x00113b0c      0x328 /vagrant/gnuarm/lib/gcc/arm-elf/4.4.2/../../../../arm-elf/lib/thumb/interwork/libc.a(lib_a-fvwrite.o)
                0x00113b0c                __sfvwrite_r
 .text          0x00113e34       0xa4 /vagrant/gnuarm/lib/gcc/arm-elf/4.4.2/../../../../arm-elf/lib/thumb/interwork/libc.a(lib_a-fwrite.o)
                0x00113e34                _fwrite_r
                0x00113eb0                fwrite
 .text          0x00113ed8       0x28 /vagrant/gnuarm/lib/gcc/arm-elf/4.4.2/../../../../arm-elf/lib/thumb/interwork/libc.a(lib_a-malloc.o)
                0x00113ed8                free
                0x00113eec                malloc
 .text          0x00113f00      0x51c /vagrant/gnuarm/lib/gcc/arm-elf/4.4.2/../../../../arm-elf/lib/thumb/interwork/libc.a(lib_a-mallocr.o)
                0x00113f00                _malloc_r
 .text          0x0011441c       0x80 /vagrant/gnuarm/lib/gcc/arm-elf/4.4.2/../../../../arm-elf/lib/thumb/interwork/libc.a(lib_a-memchr.o)
                0x0011441c                memchr
 .text          0x0011449c       0x58 /vagrant/gnuarm/lib/gcc/arm-elf/4.4.2/../../../../arm-elf/lib/thumb/interwork/libc.a(lib_a-memcmp.o)
                0x0011449c                memcmp
 .text          0x001144f4       0x80 /vagrant/gnuarm/lib/gcc/arm-elf/4.4.2/../../../../arm-elf/lib/thumb/interwork/libc.a(lib_a-memcpy.o)
                0x001144f4                memcpy
 .text          0x00114574       0xa0 /vagrant/gnuarm/lib/gcc/arm-elf/4.4.2/../../../../arm-elf/lib/thumb/interwork/libc.a(lib_a-memmove.o)
                0x00114574                memmove
 .text          0x00114614       0x94 /vagrant/gnuarm/lib/gcc/arm-elf/4.4.2/../../../../arm-elf/lib/thumb/interwork/libc.a(lib_a-memset.o)
                0x00114614                memset
 .text          0x001146a8        0x8 /vagrant/gnuarm/lib/gcc/arm-elf/4.4.2/../../../../arm-elf/lib/thumb/interwork/libc.a(lib_a-mlock.o)
                0x001146a8                __malloc_lock
                0x001146ac                __malloc_unlock
 .text          0x001146b0       0xc4 /vagrant/gnuarm/lib/gcc/arm-elf/4.4.2/../../../../arm-elf/lib/thumb/interwork/libc.a(lib_a-putc.o)
                0x001146b0                putc
                0x00114714                _putc_r
 .text          0x00114774       0x18 /vagrant/gnuarm/lib/gcc/arm-elf/4.4.2/../../../../arm-elf/lib/thumb/interwork/libc.a(lib_a-realloc.o)
                0x00114774                realloc
 .text          0x0011478c      0x354 /vagrant/gnuarm/lib/gcc/arm-elf/4.4.2/../../../../arm-elf/lib/thumb/interwork/libc.a(lib_a-reallocr.o)
                0x0011478c                _realloc_r
 .text          0x00114ae0      0x184 /vagrant/gnuarm/lib/gcc/arm-elf/4.4.2/../../../../arm-elf/lib/thumb/interwork/libc.a(lib_a-signal.o)
                0x00114ae0                _raise_r
                0x00114b3c                raise
                0x00114b50                _init_signal_r
                0x00114b88                _init_signal
                0x00114b9c                __sigtramp_r
                0x00114bf4                __sigtramp
                0x00114c08                _signal_r
                0x00114c48                signal
 .text          0x00114c64       0x38 /vagrant/gnuarm/lib/gcc/arm-elf/4.4.2/../../../../arm-elf/lib/thumb/interwork/libc.a(lib_a-signalr.o)
                0x00114c64                _getpid_r
                0x00114c70                _kill_r
 .text          0x00114c9c       0x84 /vagrant/gnuarm/lib/gcc/arm-elf/4.4.2/../../../../arm-elf/lib/thumb/interwork/libc.a(lib_a-sprintf.o)
                0x00114c9c                sprintf
                0x00114ce0                _sprintf_r
 .text          0x00114d20       0x14 /vagrant/gnuarm/lib/gcc/arm-elf/4.4.2/../../../../arm-elf/lib/thumb/interwork/libc.a(lib_a-strcmp.o)
                0x00114d20                strcmp
 .text          0x00114d34       0x10 /vagrant/gnuarm/lib/gcc/arm-elf/4.4.2/../../../../arm-elf/lib/thumb/interwork/libc.a(lib_a-strcpy.o)
                0x00114d34                strcpy
 .text          0x00114d44       0x10 /vagrant/gnuarm/lib/gcc/arm-elf/4.4.2/../../../../arm-elf/lib/thumb/interwork/libc.a(lib_a-strlen.o)
                0x00114d44                strlen
 .text          0x00114d54       0xac /vagrant/gnuarm/lib/gcc/arm-elf/4.4.2/../../../../arm-elf/lib/thumb/interwork/libc.a(lib_a-strncmp.o)
                0x00114d54                strncmp
 .text          0x00114e00     0x1338 /vagrant/gnuarm/lib/gcc/arm-elf/4.4.2/../../../../arm-elf/lib/thumb/interwork/libc.a(lib_a-svfprintf.o)
                0x00114e00                _svfprintf_r
 .text          0x00116138      0x5e8 /vagrant/gnuarm/lib/gcc/arm-elf/4.4.2/../../../../arm-elf/lib/thumb/interwork/libc.a(lib_a-syscalls.o)
                0x00116138                initialise_monitor_handles
                0x001161b0                _kill
                0x001161e0                _exit
                0x001161f8                _getpid
                0x001161fc                _link
                0x00116204                _raise
                0x00116208                _gettimeofday
                0x00116234                _times
                0x00116278                _rename
                0x001162c0                _system
                0x00116314                _unlink
                0x00116350                _swiopen
                0x001163dc                _open
                0x001163f8                _sbrk
                0x00116478                _isatty
                0x001164a8                _swiclose
                0x001164f0                _close
                0x00116504                _swiwrite
                0x0011652c                _write
                0x00116590                _swilseek
                0x00116624                _lseek
                0x00116638                _swiread
                0x00116660                _read
                0x001166c0                _stat
                0x001166fc                _fstat
 .text          0x00116720       0x20 /vagrant/gnuarm/lib/gcc/arm-elf/4.4.2/../../../../arm-elf/lib/thumb/interwork/libc.a(lib_a-syswrite.o)
                0x00116720                write
 .text          0x00116740       0xdc /vagrant/gnuarm/lib/gcc/arm-elf/4.4.2/../../../../arm-elf/lib/thumb/interwork/libc.a(lib_a-wbuf.o)
                0x00116740                __swbuf_r
                0x00116804                __swbuf
 .text          0x0011681c       0x2c /vagrant/gnuarm/lib/gcc/arm-elf/4.4.2/../../../../arm-elf/lib/thumb/interwork/libc.a(lib_a-writer.o)
                0x0011681c                _write_r
 .text          0x00116848       0xd0 /vagrant/gnuarm/lib/gcc/arm-elf/4.4.2/../../../../arm-elf/lib/thumb/interwork/libc.a(lib_a-wsetup.o)
                0x00116848                __swsetup_r
 .text          0x00116918     0x1020 /vagrant/gnuarm/lib/gcc/arm-elf/4.4.2/../../../../arm-elf/lib/thumb/interwork/libc.a(lib_a-dtoa.o)
                0x00116a78                _dtoa_r
 .text          0x00117938        0xc /vagrant/gnuarm/lib/gcc/arm-elf/4.4.2/../../../../arm-elf/lib/thumb/interwork/libc.a(lib_a-errno.o)
                0x00117938                __errno
 .text          0x00117944      0x180 /vagrant/gnuarm/lib/gcc/arm-elf/4.4.2/../../../../arm-elf/lib/thumb/interwork/libc.a(lib_a-fflush.o)
                0x00117944                _fflush_r
                0x00117a94                fflush
 .text          0x00117ac4      0x1d4 /vagrant/gnuarm/lib/gcc/arm-elf/4.4.2/../../../../arm-elf/lib/thumb/interwork/libc.a(lib_a-findfp.o)
                0x00117ac4                __sfp_lock_acquire
                0x00117ac8                __sfp_lock_release
                0x00117acc                __sinit_lock_acquire
                0x00117ad0                __sinit_lock_release
                0x00117adc                __fp_unlock_all
                0x00117af4                __fp_lock_all
                0x00117b0c                _cleanup_r
                0x00117b1c                _cleanup
                0x00117b7c                __sinit
                0x00117bd8                __sfmoreglue
                0x00117c08                __sfp
 .text          0x00117c98      0x250 /vagrant/gnuarm/lib/gcc/arm-elf/4.4.2/../../../../arm-elf/lib/thumb/interwork/libc.a(lib_a-freer.o)
                0x00117c98                _malloc_trim_r
                0x00117d3c                _free_r
 .text          0x00117ee8       0xc4 /vagrant/gnuarm/lib/gcc/arm-elf/4.4.2/../../../../arm-elf/lib/thumb/interwork/libc.a(lib_a-fwalk.o)
                0x00117ee8                _fwalk_reent
                0x00117f4c                _fwalk
 .text          0x00117fac       0x88 /vagrant/gnuarm/lib/gcc/arm-elf/4.4.2/../../../../arm-elf/lib/thumb/interwork/libc.a(lib_a-locale.o)
                0x00117fac                __locale_charset
                0x00117fb4                __locale_msgcharset
                0x00117fc0                __locale_cjk_lang
                0x00117fc4                _localeconv_r
                0x00117fcc                localeconv
                0x00117fd4                _setlocale_r
                0x0011801c                setlocale
 .text          0x00118034       0xe4 /vagrant/gnuarm/lib/gcc/arm-elf/4.4.2/../../../../arm-elf/lib/thumb/interwork/libc.a(lib_a-makebuf.o)
                0x00118034                __smakebuf_r
 .text          0x00118118      0x9a4 /vagrant/gnuarm/lib/gcc/arm-elf/4.4.2/../../../../arm-elf/lib/thumb/interwork/libc.a(lib_a-mprec.o)
                0x00118118                _Bfree
                0x0011812c                __hi0bits
                0x00118174                __lo0bits
                0x001181d8                __mcmp
                0x00118218                __ulp
                0x00118264                __b2d
                0x00118310                __ratio
                0x00118374                _mprec_log10
                0x001183b4                __copybits
                0x001183fc                __any_on
                0x00118448                _Balloc
                0x0011849c                __d2b
                0x0011857c                __mdiff
                0x00118690                __lshift
                0x00118750                __multiply
                0x001188b0                __i2b
                0x001188c8                __multadd
                0x00118968                __pow5mult
                0x00118a20                __s2b
 .text          0x00118abc       0x84 /vagrant/gnuarm/lib/gcc/arm-elf/4.4.2/../../../../arm-elf/lib/thumb/interwork/libc.a(lib_a-s_fpclassify.o)
                0x00118abc                __fpclassifyd
 .text          0x00118b40       0xac /vagrant/gnuarm/lib/gcc/arm-elf/4.4.2/../../../../arm-elf/lib/thumb/interwork/libc.a(lib_a-stdio.o)
                0x00118b40                __seofread
                0x00118b44                __sclose
                0x00118b54                __sseek
                0x00118b84                __swrite
                0x00118bc0                __sread
 .text          0x00118bec      0xa60 /vagrant/gnuarm/lib/gcc/arm-elf/4.4.2/../../../../arm-elf/lib/thumb/interwork/libc.a(lib_a-svfiprintf.o)
                0x00118bec                __ssprint_r
                0x00118d20                _svfiprintf_r
 .text          0x0011964c       0x5c /vagrant/gnuarm/lib/gcc/arm-elf/4.4.2/../../../../arm-elf/lib/thumb/interwork/libc.a(lib_a-callocr.o)
                0x0011964c                _calloc_r
 .text          0x001196a8       0x28 /vagrant/gnuarm/lib/gcc/arm-elf/4.4.2/../../../../arm-elf/lib/thumb/interwork/libc.a(lib_a-closer.o)
                0x001196a8                _close_r
 .text          0x001196d0       0xbc /vagrant/gnuarm/lib/gcc/arm-elf/4.4.2/../../../../arm-elf/lib/thumb/interwork/libc.a(lib_a-fclose.o)
                0x001196d0                _fclose_r
                0x00119774                fclose
 .text          0x0011978c       0x2c /vagrant/gnuarm/lib/gcc/arm-elf/4.4.2/../../../../arm-elf/lib/thumb/interwork/libc.a(lib_a-fstatr.o)
                0x0011978c                _fstat_r
 .text          0x001197b8       0x28 /vagrant/gnuarm/lib/gcc/arm-elf/4.4.2/../../../../arm-elf/lib/thumb/interwork/libc.a(lib_a-isattyr.o)
                0x001197b8                _isatty_r
 .text          0x001197e0       0x2c /vagrant/gnuarm/lib/gcc/arm-elf/4.4.2/../../../../arm-elf/lib/thumb/interwork/libc.a(lib_a-lseekr.o)
                0x001197e0                _lseek_r
 .text          0x0011980c       0x2c /vagrant/gnuarm/lib/gcc/arm-elf/4.4.2/../../../../arm-elf/lib/thumb/interwork/libc.a(lib_a-readr.o)
                0x0011980c                _read_r
 .text          0x00119838       0x5c /vagrant/gnuarm/lib/gcc/arm-elf/4.4.2/thumb/interwork/libgcc.a(_arm_fixdfsi.o)
                0x00119838                __fixdfsi
                0x00119838                __aeabi_d2iz
                0x001198a0                . = ALIGN (0x10)
 *fill*         0x00119894        0xc 00
 *(*.rodata *.rodata.*)
 .rodata.banner
                0x001198a0      0x200 build/kernel/banner.o
 .rodata.search_table.1413
                0x00119aa0       0x10 build/kernel/task.o
 .rodata.str1.1
                0x00119ab0       0x92 build/kernel/task.o
 .rodata.str1.1
                0x00119b42       0x83 build/kernel/task_manage.o
 .rodata.str1.1
                0x00119bc5       0x54 build/kernel/wait.o
 .rodata.str1.1
                0x00119c19       0x82 build/config/armv4/at91sam7s/sys_config.o
 *fill*         0x00119c9b        0x1 00
 .rodata._kernel_tinib_table
                0x00119c9c       0x40 build/./kernel_cfg.o
                0x00119c9c                _kernel_tinib_table
 .rodata._kernel_torder_table
                0x00119cdc        0x8 build/./kernel_cfg.o
                0x00119cdc                _kernel_torder_table
 .rodata._kernel_inhinib_table
                0x00119ce4        0xc build/./kernel_cfg.o
                0x00119ce4                _kernel_inhinib_table
 .rodata._kernel_tmax_tskid
                0x00119cf0        0x4 build/./kernel_cfg.o
                0x00119cf0                _kernel_tmax_tskid
 .rodata._kernel_seminib_table
                0x00119cf4        0xc build/./kernel_cfg.o
                0x00119cf4                _kernel_seminib_table
 .rodata._kernel_cycinib_table
                0x00119d00       0x14 build/./kernel_cfg.o
                0x00119d00                _kernel_cycinib_table
 .rodata._kernel_tmax_cycid
                0x00119d14        0x4 build/./kernel_cfg.o
                0x00119d14                _kernel_tmax_cycid
 .rodata._kernel_tmax_semid
                0x00119d18        0x4 build/./kernel_cfg.o
                0x00119d18                _kernel_tmax_semid
 .rodata._kernel_tnum_inhno
                0x00119d1c        0x4 build/./kernel_cfg.o
                0x00119d1c                _kernel_tnum_inhno
 .rodata.str1.1
                0x00119d20       0x6c build/ecrobot_base.o
 .rodata.exec_addr
                0x00119d8c        0x4 build/ecrobot_base.o
                0x00119d8c                exec_addr
 .rodata._ZTVN7ecrobot11SonarSensorE
                0x00119d90       0x10 build/main.o
                0x00119d90                _ZTVN7ecrobot11SonarSensorE
 .rodata._ZTVN7ecrobot11TouchSensorE
                0x00119da0       0x10 build/main.o
                0x00119da0                _ZTVN7ecrobot11TouchSensorE
 .rodata._ZTVN7ecrobot6SensorE
                0x00119db0       0x10 build/main.o
                0x00119db0                _ZTVN7ecrobot6SensorE
 .rodata.str1.1
                0x00119dc0       0x3a build/main.o
 *fill*         0x00119dfa        0x2 00
 .rodata._ZTV12StateMachine
                0x00119dfc        0xc build/MEXU.o
                0x00119dfc                _ZTV12StateMachine
 .rodata._ZTV3foo
                0x00119e08        0xc build/stm.o
                0x00119e08                _ZTV3foo
 .rodata._ZTV11Transporter
                0x00119e14        0xc build/stm.o
                0x00119e14                _ZTV11Transporter
 .rodata._ZN11Transporter6matrixE
                0x00119e20       0x70 build/stm.o
                0x00119e20                _ZN11Transporter6matrixE
 .rodata._ZN3foo6matrixE
                0x00119e90       0x1c build/stm.o
                0x00119e90                _ZN3foo6matrixE
 .rodata.str1.4
                0x00119eac        0xb ../ecrobot/../ecrobot/libecrobot++.a(I2c.o)
                                  0xc (size before relaxing)
 *fill*         0x00119eb7        0x1 00
 .rodata.str1.4
                0x00119eb8        0xe ../ecrobot/../ecrobot/libecrobot++.a(LightSensor.o)
                                 0x10 (size before relaxing)
 *fill*         0x00119ec6        0x2 00
 .rodata.str1.4
                0x00119ec8        0xd ../ecrobot/../ecrobot/libecrobot++.a(Motor.o)
                                 0x10 (size before relaxing)
 .rodata.str1.4
                0x00000000       0x10 ../ecrobot/../ecrobot/libecrobot++.a(TouchSensor.o)
 *fill*         0x00119ed5        0x3 00
 .rodata.str1.4
                0x00119ed8       0x1c /vagrant/gnuarm/lib/gcc/arm-elf/4.4.2/../../../../arm-elf/lib/thumb/interwork/libstdc++.a(pure.o)
 .rodata._ZL28read_encoded_value_with_basehjPKhPj
                0x00119ef4       0x34 /vagrant/gnuarm/lib/gcc/arm-elf/4.4.2/../../../../arm-elf/lib/thumb/interwork/libstdc++.a(eh_personality.o)
 .rodata._ZTVSt13bad_exception
                0x00119f28       0x14 /vagrant/gnuarm/lib/gcc/arm-elf/4.4.2/../../../../arm-elf/lib/thumb/interwork/libstdc++.a(eh_exception.o)
                0x00119f28                _ZTVSt13bad_exception
 .rodata._ZTVSt9exception
                0x00119f3c       0x14 /vagrant/gnuarm/lib/gcc/arm-elf/4.4.2/../../../../arm-elf/lib/thumb/interwork/libstdc++.a(eh_exception.o)
                0x00119f3c                _ZTVSt9exception
 .rodata._ZTSN10__cxxabiv119__foreign_exceptionE
                0x00119f50       0x24 /vagrant/gnuarm/lib/gcc/arm-elf/4.4.2/../../../../arm-elf/lib/thumb/interwork/libstdc++.a(eh_exception.o)
                0x00119f50                _ZTSN10__cxxabiv119__foreign_exceptionE
 .rodata._ZTIN10__cxxabiv119__foreign_exceptionE
                0x00119f74        0x8 /vagrant/gnuarm/lib/gcc/arm-elf/4.4.2/../../../../arm-elf/lib/thumb/interwork/libstdc++.a(eh_exception.o)
                0x00119f74                _ZTIN10__cxxabiv119__foreign_exceptionE
 .rodata._ZTSN10__cxxabiv115__forced_unwindE
                0x00119f7c       0x20 /vagrant/gnuarm/lib/gcc/arm-elf/4.4.2/../../../../arm-elf/lib/thumb/interwork/libstdc++.a(eh_exception.o)
                0x00119f7c                _ZTSN10__cxxabiv115__forced_unwindE
 .rodata._ZTIN10__cxxabiv115__forced_unwindE
                0x00119f9c        0x8 /vagrant/gnuarm/lib/gcc/arm-elf/4.4.2/../../../../arm-elf/lib/thumb/interwork/libstdc++.a(eh_exception.o)
                0x00119f9c                _ZTIN10__cxxabiv115__forced_unwindE
 .rodata._ZTSSt13bad_exception
                0x00119fa4       0x14 /vagrant/gnuarm/lib/gcc/arm-elf/4.4.2/../../../../arm-elf/lib/thumb/interwork/libstdc++.a(eh_exception.o)
                0x00119fa4                _ZTSSt13bad_exception
 .rodata._ZTISt13bad_exception
                0x00119fb8        0xc /vagrant/gnuarm/lib/gcc/arm-elf/4.4.2/../../../../arm-elf/lib/thumb/interwork/libstdc++.a(eh_exception.o)
                0x00119fb8                _ZTISt13bad_exception
 .rodata._ZTSSt9exception
                0x00119fc4       0x10 /vagrant/gnuarm/lib/gcc/arm-elf/4.4.2/../../../../arm-elf/lib/thumb/interwork/libstdc++.a(eh_exception.o)
                0x00119fc4                _ZTSSt9exception
 .rodata._ZTISt9exception
                0x00119fd4        0x8 /vagrant/gnuarm/lib/gcc/arm-elf/4.4.2/../../../../arm-elf/lib/thumb/interwork/libstdc++.a(eh_exception.o)
                0x00119fd4                _ZTISt9exception
 .rodata.str1.4
                0x00119fdc       0x23 /vagrant/gnuarm/lib/gcc/arm-elf/4.4.2/../../../../arm-elf/lib/thumb/interwork/libstdc++.a(eh_exception.o)
                                 0x24 (size before relaxing)
 *fill*         0x00119fff        0x1 00
 .rodata._ZTVN10__cxxabiv120__si_class_type_infoE
                0x0011a000       0x2c /vagrant/gnuarm/lib/gcc/arm-elf/4.4.2/../../../../arm-elf/lib/thumb/interwork/libstdc++.a(si_class_type_info.o)
                0x0011a000                _ZTVN10__cxxabiv120__si_class_type_infoE
 .rodata._ZTSN10__cxxabiv120__si_class_type_infoE
                0x0011a02c       0x28 /vagrant/gnuarm/lib/gcc/arm-elf/4.4.2/../../../../arm-elf/lib/thumb/interwork/libstdc++.a(si_class_type_info.o)
                0x0011a02c                _ZTSN10__cxxabiv120__si_class_type_infoE
 .rodata._ZTIN10__cxxabiv120__si_class_type_infoE
                0x0011a054        0xc /vagrant/gnuarm/lib/gcc/arm-elf/4.4.2/../../../../arm-elf/lib/thumb/interwork/libstdc++.a(si_class_type_info.o)
                0x0011a054                _ZTIN10__cxxabiv120__si_class_type_infoE
 .rodata._ZTVSt9type_info
                0x0011a060       0x20 /vagrant/gnuarm/lib/gcc/arm-elf/4.4.2/../../../../arm-elf/lib/thumb/interwork/libstdc++.a(tinfo.o)
                0x0011a060                _ZTVSt9type_info
 .rodata._ZTSSt9type_info
                0x0011a080       0x10 /vagrant/gnuarm/lib/gcc/arm-elf/4.4.2/../../../../arm-elf/lib/thumb/interwork/libstdc++.a(tinfo.o)
                0x0011a080                _ZTSSt9type_info
 .rodata._ZTISt9type_info
                0x0011a090        0x8 /vagrant/gnuarm/lib/gcc/arm-elf/4.4.2/../../../../arm-elf/lib/thumb/interwork/libstdc++.a(tinfo.o)
                0x0011a090                _ZTISt9type_info
 .rodata.str1.4
                0x0011a098       0x92 /vagrant/gnuarm/lib/gcc/arm-elf/4.4.2/../../../../arm-elf/lib/thumb/interwork/libstdc++.a(vterminate.o)
                                 0x94 (size before relaxing)
 *fill*         0x0011a12a        0x2 00
 .rodata._ZTVN10__cxxabiv117__class_type_infoE
                0x0011a12c       0x2c /vagrant/gnuarm/lib/gcc/arm-elf/4.4.2/../../../../arm-elf/lib/thumb/interwork/libstdc++.a(class_type_info.o)
                0x0011a12c                _ZTVN10__cxxabiv117__class_type_infoE
 .rodata._ZTSN10__cxxabiv117__class_type_infoE
                0x0011a158       0x24 /vagrant/gnuarm/lib/gcc/arm-elf/4.4.2/../../../../arm-elf/lib/thumb/interwork/libstdc++.a(class_type_info.o)
                0x0011a158                _ZTSN10__cxxabiv117__class_type_infoE
 .rodata._ZTIN10__cxxabiv117__class_type_infoE
                0x0011a17c        0xc /vagrant/gnuarm/lib/gcc/arm-elf/4.4.2/../../../../arm-elf/lib/thumb/interwork/libstdc++.a(class_type_info.o)
                0x0011a17c                _ZTIN10__cxxabiv117__class_type_infoE
 .rodata        0x0011a188      0xd78 /vagrant/gnuarm/lib/gcc/arm-elf/4.4.2/../../../../arm-elf/lib/thumb/interwork/libstdc++.a(cp-demangle.o)
 .rodata.str1.4
                0x0011af00      0x6a3 /vagrant/gnuarm/lib/gcc/arm-elf/4.4.2/../../../../arm-elf/lib/thumb/interwork/libstdc++.a(cp-demangle.o)
                                0x6d0 (size before relaxing)
 *fill*         0x0011b5a3        0x1 00
 .rodata        0x0011b5a4        0x4 /vagrant/gnuarm/lib/gcc/arm-elf/4.4.2/../../../../arm-elf/lib/thumb/interwork/libc.a(lib_a-impure.o)
                0x0011b5a4                _global_impure_ptr
 .rodata.str1.4
                0x0011b5a8        0x2 /vagrant/gnuarm/lib/gcc/arm-elf/4.4.2/../../../../arm-elf/lib/thumb/interwork/libc.a(lib_a-impure.o)
                                  0x4 (size before relaxing)
 *fill*         0x0011b5aa        0x2 00
 .rodata        0x0011b5ac      0x184 /vagrant/gnuarm/lib/gcc/arm-elf/4.4.2/../../../../arm-elf/lib/thumb/interwork/libc.a(lib_a-svfprintf.o)
 .rodata.str1.4
                0x0011b730       0x42 /vagrant/gnuarm/lib/gcc/arm-elf/4.4.2/../../../../arm-elf/lib/thumb/interwork/libc.a(lib_a-svfprintf.o)
                                 0x44 (size before relaxing)
 *fill*         0x0011b772        0x2 00
 .rodata.str1.4
                0x0011b774        0x4 /vagrant/gnuarm/lib/gcc/arm-elf/4.4.2/../../../../arm-elf/lib/thumb/interwork/libc.a(lib_a-syscalls.o)
 .rodata.str1.4
                0x0011b778       0x10 /vagrant/gnuarm/lib/gcc/arm-elf/4.4.2/../../../../arm-elf/lib/thumb/interwork/libc.a(lib_a-dtoa.o)
                                 0x14 (size before relaxing)
 .rodata        0x0011b788       0x38 /vagrant/gnuarm/lib/gcc/arm-elf/4.4.2/../../../../arm-elf/lib/thumb/interwork/libc.a(lib_a-locale.o)
 .rodata.str1.4
                0x0011b7c0        0x8 /vagrant/gnuarm/lib/gcc/arm-elf/4.4.2/../../../../arm-elf/lib/thumb/interwork/libc.a(lib_a-locale.o)
                                 0x14 (size before relaxing)
 .rodata        0x0011b7c8      0x124 /vagrant/gnuarm/lib/gcc/arm-elf/4.4.2/../../../../arm-elf/lib/thumb/interwork/libc.a(lib_a-mprec.o)
                0x0011b7c8                __mprec_tens
                0x0011b89c                __mprec_bigtens
                0x0011b8c4                __mprec_tinytens
 .rodata        0x0011b8ec      0x184 /vagrant/gnuarm/lib/gcc/arm-elf/4.4.2/../../../../arm-elf/lib/thumb/interwork/libc.a(lib_a-svfiprintf.o)
 .rodata.str1.4
                0x00000000       0x30 /vagrant/gnuarm/lib/gcc/arm-elf/4.4.2/../../../../arm-elf/lib/thumb/interwork/libc.a(lib_a-svfiprintf.o)
                0x0011ba70                . = ALIGN (0x10)
 *(*.gnu.linkonce.* .gcc_except_table)
 .gnu.linkonce.r._ZTVN7ecrobot3I2cE
                0x0011ba70       0x10 ../ecrobot/../ecrobot/libecrobot++.a(I2c.o)
                0x0011ba70                _ZTVN7ecrobot3I2cE
 .gnu.linkonce.r._ZTVN7ecrobot11LightSensorE
                0x0011ba80       0x10 ../ecrobot/../ecrobot/libecrobot++.a(LightSensor.o)
                0x0011ba80                _ZTVN7ecrobot11LightSensorE
 .gcc_except_table
                0x0011ba90       0x20 /vagrant/gnuarm/lib/gcc/arm-elf/4.4.2/../../../../arm-elf/lib/thumb/interwork/libstdc++.a(eh_personality.o)
 .gcc_except_table
                0x0011bab0       0x10 /vagrant/gnuarm/lib/gcc/arm-elf/4.4.2/../../../../arm-elf/lib/thumb/interwork/libstdc++.a(eh_terminate.o)
 .gcc_except_table
                0x0011bac0       0x20 /vagrant/gnuarm/lib/gcc/arm-elf/4.4.2/../../../../arm-elf/lib/thumb/interwork/libstdc++.a(eh_alloc.o)
 .gcc_except_table
                0x0011bae0       0x10 /vagrant/gnuarm/lib/gcc/arm-elf/4.4.2/../../../../arm-elf/lib/thumb/interwork/libstdc++.a(eh_catch.o)
 .gcc_except_table
                0x0011baf0       0x18 /vagrant/gnuarm/lib/gcc/arm-elf/4.4.2/../../../../arm-elf/lib/thumb/interwork/libstdc++.a(vterminate.o)
 .gcc_except_table.stub
                0x0011bb08       0x98 linker stubs
                0x0011bba0                . = ALIGN (0x10)
 *fill*         0x0011bba0        0x0 00

.vfp11_veneer   0x00204650        0x0
 .vfp11_veneer  0x00000000        0x0 linker stubs

.v4_bx          0x00204650        0x0
 .v4_bx         0x00000000        0x0 linker stubs

.tors           0x0011bba0       0x20
                0x0011bba0                . = ALIGN (0x10)
                0x0011bba0                __ctor_begin = .
 *(*.ctors*)
 .ctors         0x0011bba0        0x4 build/main.o
 .ctors         0x0011bba4        0x4 build/stm.o
 .ctors         0x0011bba8        0x4 /vagrant/gnuarm/lib/gcc/arm-elf/4.4.2/../../../../arm-elf/lib/thumb/interwork/libstdc++.a(eh_alloc.o)
                0x0011bbac                __ctor_end = .
                0x0011bbb0                . = ALIGN (0x10)
 *fill*         0x0011bbac        0x4 00
                0x0011bbb0                __dtor_begin = .
 *(*.dtors*)
 .dtors         0x0011bbb0        0x4 build/main.o
 .dtors         0x0011bbb4        0x4 build/stm.o
                0x0011bbb8                __dtor_end = .
                0x0011bbc0                . = ALIGN (0x10)
 *fill*         0x0011bbb8        0x8 00
                0x0011bbb8                __rom_end__ = __dtor_end

.bss            0x00204650     0x2754
 *(*.bss *.bss.*)
 .bss.__stack_TSK_MAIN
                0x00204650      0x400 build/./kernel_cfg.o
 .bss.__stack_TSK_EVENT
                0x00204a50      0x200 build/./kernel_cfg.o
 .bss.heap_ptr  0x00204c50        0x4 build/syscalls.o
 .bss.status_bar_position
                0x00204c54        0x4 build/ecrobot_base.o
 .bss.last_act_time.2849
                0x00204c58        0x4 build/ecrobot_base.o
 .bss.lcd.2771  0x00204c5c      0x320 build/ecrobot_base.o
 .bss.status_bar
                0x00204f7c       0x10 build/ecrobot_base.o
 .bss.OS_flag   0x00204f8c        0x4 build/ecrobot_base.o
 .bss.prev_touch_status
                0x00204f90        0x4 build/main.o
                0x00204f90                prev_touch_status
 .bss.sonacnt   0x00204f94        0x4 build/main.o
                0x00204f94                sonacnt
 .bss.lightSensor
                0x00204f98        0x8 build/main.o
                0x00204f98                lightSensor
 .bss.eventManager
                0x00204fa0       0x48 build/main.o
                0x00204fa0                eventManager
 .bss.prev_touch_status_2
                0x00204fe8        0x4 build/main.o
                0x00204fe8                prev_touch_status_2
 .bss.rightMotor
                0x00204fec        0x8 build/main.o
                0x00204fec                rightMotor
 .bss.touch2    0x00204ff4        0x8 build/main.o
                0x00204ff4                touch2
 .bss.timer     0x00204ffc        0x4 build/main.o
                0x00204ffc                timer
 .bss.touch1    0x00205000        0x8 build/main.o
                0x00205000                touch1
 .bss.leftMotor
                0x00205008        0x8 build/main.o
                0x00205008                leftMotor
 .bss.lcd       0x00205010        0x4 build/main.o
                0x00205010                lcd
 .bss.sonar     0x00205014        0x8 build/main.o
                0x00205014                sonar
 .bss._ZN10MEXUObject10_instancesE
                0x0020501c       0x28 build/MEXU.o
                0x0020501c                _ZN10MEXUObject10_instancesE
 .bss._ZN10MEXUObject14_instances_numE
                0x00205044        0x4 build/MEXU.o
                0x00205044                _ZN10MEXUObject14_instances_numE
 .bss.iTransporter
                0x00205048        0x8 build/stm.o
                0x00205048                iTransporter
 .bss.ifoo      0x00205050        0x8 build/stm.o
                0x00205050                ifoo
 .bss.buttons_i
                0x00205058        0x4 ../ecrobot/../ecrobot/libecrobot.a(ecrobot_interface.o)
 .bss.buttons_states
                0x0020505c       0x14 ../ecrobot/../ecrobot/libecrobot.a(ecrobot_interface.o)
 .bss.ecrobot_inputs
                0x00205070        0x8 ../ecrobot/../ecrobot/libecrobot.a(ecrobot_interface.o)
 .bss.systick_ms
                0x00205078        0x4 ../ecrobot/../ecrobot/libecrobot.a(systick.oram)
 .bss.delayedEnable
                0x0020507c        0x1 ../ecrobot/../ecrobot/libecrobot.a(udp.oram)
 *fill*         0x0020507d        0x3 00
 .bss.outCnt    0x00205080        0x4 ../ecrobot/../ecrobot/libecrobot.a(udp.oram)
 .bss.outPtr    0x00205084        0x4 ../ecrobot/../ecrobot/libecrobot.a(udp.oram)
 .bss.newAddress
                0x00205088        0x4 ../ecrobot/../ecrobot/libecrobot.a(udp.oram)
 .bss.currentRxBank
                0x0020508c        0x4 ../ecrobot/../ecrobot/libecrobot.a(udp.oram)
 .bss.currentFeatures
                0x00205090        0x4 ../ecrobot/../ecrobot/libecrobot.a(udp.oram)
 .bss.currentConfig
                0x00205094        0x1 ../ecrobot/../ecrobot/libecrobot.a(udp.oram)
 *fill*         0x00205095        0x3 00
 .bss.twi_mask  0x00205098        0x4 ../ecrobot/../ecrobot/libecrobot.a(twi.oram)
 .bss.twi_ptr   0x0020509c        0x4 ../ecrobot/../ecrobot/libecrobot.a(twi.oram)
 .bss.twi_pending
                0x002050a0        0x4 ../ecrobot/../ecrobot/libecrobot.a(twi.oram)
 .bss.twi_state
                0x002050a4        0x4 ../ecrobot/../ecrobot/libecrobot.a(twi.oram)
 .bss.page      0x002050a8        0x1 ../ecrobot/../ecrobot/libecrobot.a(nxt_spi.oram)
                0x002050a8                page
 .bss.dirty     0x002050a9        0x1 ../ecrobot/../ecrobot/libecrobot.a(nxt_spi.oram)
                0x002050a9                dirty
 *fill*         0x002050aa        0x2 00
 .bss.display   0x002050ac        0x4 ../ecrobot/../ecrobot/libecrobot.a(nxt_spi.oram)
                0x002050ac                display
 .bss.interrupts_this_period
                0x002050b0        0x4 ../ecrobot/../ecrobot/libecrobot.a(nxt_motors.oram)
 .bss.nxt_motor_initialised
                0x002050b4        0x4 ../ecrobot/../ecrobot/libecrobot.a(nxt_motors.oram)
 .bss.motor     0x002050b8       0x30 ../ecrobot/../ecrobot/libecrobot.a(nxt_motors.oram)
 .bss.display_tick
                0x002050e8        0x4 ../ecrobot/../ecrobot/libecrobot.a(display.oram)
                0x002050e8                display_tick
 .bss.display_array
                0x002050ec      0x388 ../ecrobot/../ecrobot/libecrobot.a(display.oram)
 .bss.i2c_int_count
                0x00205474        0x4 ../ecrobot/../ecrobot/libecrobot.a(i2c.oram)
 .bss.i2c_port  0x00205478      0x170 ../ecrobot/../ecrobot/libecrobot.a(i2c.oram)
 .bss.sound_mode
                0x002055e8        0x1 ../ecrobot/../ecrobot/libecrobot.a(sound.oram)
                0x002055e8                sound_mode
 *fill*         0x002055e9        0x3 00
 .bss.in_buf_idx
                0x002055ec        0x4 ../ecrobot/../ecrobot/libecrobot.a(bt.oram)
 .bss.buf_ptr   0x002055f0        0x4 ../ecrobot/../ecrobot/libecrobot.a(bt.oram)
 .bss.out_buf_ptr
                0x002055f4        0x1 ../ecrobot/../ecrobot/libecrobot.a(bt.oram)
 .bss.in_buf_in_ptr
                0x002055f5        0x1 ../ecrobot/../ecrobot/libecrobot.a(bt.oram)
 .bss.in_buf    0x002055f6      0x100 ../ecrobot/../ecrobot/libecrobot.a(bt.oram)
 *fill*         0x002056f6        0x2 00
 .bss.link_state
                0x002056f8        0x4 ../ecrobot/../ecrobot/libecrobot.a(nxt_avr.oram)
 .bss.update_count
                0x002056fc        0x4 ../ecrobot/../ecrobot/libecrobot.a(nxt_avr.oram)
 .bss.nxt_avr_stats
                0x00205700       0x14 ../ecrobot/../ecrobot/libecrobot.a(nxt_avr.oram)
 .bss.debounce_cnt
                0x00205714        0x2 ../ecrobot/../ecrobot/libecrobot.a(nxt_avr.oram)
 .bss.debounce_state
                0x00205716        0x2 ../ecrobot/../ecrobot/libecrobot.a(nxt_avr.oram)
 .bss.button_state
                0x00205718        0x2 ../ecrobot/../ecrobot/libecrobot.a(nxt_avr.oram)
 .bss.prev_buttons
                0x0020571a        0x2 ../ecrobot/../ecrobot/libecrobot.a(nxt_avr.oram)
 .bss.from_buf  0x0020571c        0x4 ../ecrobot/../ecrobot/libecrobot.a(nxt_avr.oram)
 .bss.io_from_avr
                0x00205720        0x4 ../ecrobot/../ecrobot/libecrobot.a(nxt_avr.oram)
 .bss.data_from_avr
                0x00205724       0x1a ../ecrobot/../ecrobot/libecrobot.a(nxt_avr.oram)
 .bss.data_to_avr
                0x0020573e        0x9 ../ecrobot/../ecrobot/libecrobot.a(nxt_avr.oram)
 .bss.io_to_avr
                0x00205747        0x8 ../ecrobot/../ecrobot/libecrobot.a(nxt_avr.oram)
 *fill*         0x0020574f        0x1 00
 .bss.display   0x00205750        0x4 ../ecrobot/../ecrobot/libecrobot.a(nxt_lcd.oram)
 .bss._ZL14emergency_used
                0x00205754        0x4 /vagrant/gnuarm/lib/gcc/arm-elf/4.4.2/../../../../arm-elf/lib/thumb/interwork/libstdc++.a(eh_alloc.o)
 .bss._ZL16emergency_buffer
                0x00205758      0x800 /vagrant/gnuarm/lib/gcc/arm-elf/4.4.2/../../../../arm-elf/lib/thumb/interwork/libstdc++.a(eh_alloc.o)
 .bss._ZL10eh_globals
                0x00205f58        0x8 /vagrant/gnuarm/lib/gcc/arm-elf/4.4.2/../../../../arm-elf/lib/thumb/interwork/libstdc++.a(eh_globals.o)
 .bss._ZZN9__gnu_cxx27__verbose_terminate_handlerEvE11terminating
                0x00205f60        0x1 /vagrant/gnuarm/lib/gcc/arm-elf/4.4.2/../../../../arm-elf/lib/thumb/interwork/libstdc++.a(vterminate.o)
 *fill*         0x00205f61        0x3 00
 .bss           0x00205f64        0x4 /vagrant/gnuarm/lib/gcc/arm-elf/4.4.2/thumb/interwork/libgcc.a(unwind-sjlj.o)
 .bss           0x00205f68       0x34 /vagrant/gnuarm/lib/gcc/arm-elf/4.4.2/../../../../arm-elf/lib/thumb/interwork/libc.a(lib_a-mallocr.o)
                0x00205f68                __malloc_top_pad
                0x00205f6c                __malloc_current_mallinfo
                0x00205f94                __malloc_max_sbrked_mem
                0x00205f98                __malloc_max_total_mem
 .bss           0x00205f9c       0xb0 /vagrant/gnuarm/lib/gcc/arm-elf/4.4.2/../../../../arm-elf/lib/thumb/interwork/libc.a(lib_a-syscalls.o)
                0x00206050                . = ALIGN (0x10)
 *fill*         0x0020604c        0x4 00
                0x00206050                __bss_end__ = .
 COMMON         0x00206050        0x4 build/kernel/startup.o
                0x00206050                _kernel_iniflg
 COMMON         0x00206054      0x418 build/kernel/syslog.o
                0x00206054                _kernel_syslog_count
                0x00206058                _kernel_syslog_logmask
                0x0020605c                _kernel_syslog_lowmask
                0x00206060                _kernel_syslog_head
                0x00206064                _kernel_syslog_tail
                0x00206068                _kernel_syslog_lost
                0x0020606c                _kernel_syslog_buffer
 COMMON         0x0020646c       0x94 build/kernel/task.o
                0x0020646c                _kernel_reqflg
                0x00206470                _kernel_ready_queue
                0x002064f0                _kernel_ready_primap
                0x002064f4                _kernel_runtsk
                0x002064f8                _kernel_enadsp
                0x002064fc                _kernel_schedtsk
 COMMON         0x00206500       0x10 build/kernel/time_event.o
                0x00206500                _kernel_current_time
                0x00206504                _kernel_next_time
                0x00206508                _kernel_systim_offset
                0x0020650c                _kernel_last_index
 COMMON         0x00206510       0x1c build/config/armv4/cpu_config.o
                0x00206510                _kernel_interrupt_count
                0x00206514                _kernel_int_stack
 COMMON         0x0020652c      0x480 build/config/armv4/at91sam7s/sys_config.o
                0x0020652c                nontask_stack
                0x0020692c                _kernel_int_table
 COMMON         0x002069ac       0x80 build/./kernel_cfg.o
                0x002069ac                _kernel_cyccb_table
                0x002069c4                _kernel_dtqinib_table
                0x002069c4                _kernel_dtqcb_table
                0x002069c4                _kernel_semcb_table
                0x002069d4                _kernel_mbxinib_table
                0x002069d4                _kernel_flginib_table
                0x002069d4                _kernel_tmevt_heap
                0x002069ec                _kernel_excinib_table
                0x002069ec                _kernel_mpfcb_table
                0x002069ec                _kernel_tcb_table
                0x00206a2c                _kernel_mpfinib_table
                0x00206a2c                _kernel_flgcb_table
                0x00206a2c                _kernel_mbxcb_table
 COMMON         0x00206a2c       0x44 ../ecrobot/../ecrobot/libecrobot.a(uart.oram)
                0x00206a2c                uart
 COMMON         0x00206a70        0x4 ../ecrobot/../ecrobot/libecrobot.a(data_abort.oram)
                0x00206a70                data_abort_pc
 COMMON         0x00206a74        0x8 ../ecrobot/../ecrobot/libecrobot.a(display.oram)
                0x00206a74                display_x
                0x00206a78                display_y
 COMMON         0x00206a7c      0x324 ../ecrobot/../ecrobot/libecrobot.a(sound.oram)
                0x00206a7c                sample
 COMMON         0x00206da0        0x4 /vagrant/gnuarm/lib/gcc/arm-elf/4.4.2/../../../../arm-elf/lib/thumb/interwork/libc.a(lib_a-reent.o)
                0x00206da0                errno
                0x00204650                __bss_start__ = ADDR (.bss)
                0x00206da4                __bss_end__ = (ADDR (.bss) + SIZEOF (.bss))
                0x00206da4                PROVIDE (end, .)

.heap_area      0x00206da4     0x8dd4
                0x0020fb78                . = (. + (0x20fb78 - end))
 *fill*         0x00206da4     0x8dd4 00

.stack          0x0020fb78      0x488
                0x0020fbf8                . = (. + 0x80)
 *fill*         0x0020fb78       0x80 00
                0x0020fc00                . = ALIGN (0x10)
 *fill*         0x0020fbf8        0x8 00
                0x0020fc00                __irq_stack__ = .
                0x0020fc00                __system_stack_bottom__ = .
                0x00210000                . = (. + 0x400)
 *fill*         0x0020fc00      0x400 00
                0x00210000                . = ALIGN (0x10)
                0x00210000                __system_stack__ = .
                0x00210000                __system_stack_top__ = .
                0x0020fb78                __stack_start__ = ADDR (.stack)
                0x00210000                __stack_end__ = (ADDR (.stack) + SIZEOF (.stack))
OUTPUT(main_rom.elf elf32-littlearm)

.comment        0x00000000      0x22d
 .comment       0x00000000       0x11 build/kernel/banner.o
                                 0x12 (size before relaxing)
 .comment       0x00000000       0x12 build/kernel/cyclic.o
 .comment       0x00000000       0x12 build/kernel/dataqueue.o
 .comment       0x00000000       0x12 build/kernel/eventflag.o
 .comment       0x00000000       0x12 build/kernel/exception.o
 .comment       0x00000000       0x12 build/kernel/interrupt.o
 .comment       0x00000000       0x12 build/kernel/mailbox.o
 .comment       0x00000000       0x12 build/kernel/mempfix.o
 .comment       0x00000000       0x12 build/kernel/semaphore.o
 .comment       0x00000000       0x12 build/kernel/startup.o
 .comment       0x00000000       0x12 build/kernel/sys_manage.o
 .comment       0x00000000       0x12 build/kernel/syslog.o
 .comment       0x00000000       0x12 build/kernel/task.o
 .comment       0x00000000       0x12 build/kernel/task_except.o
 .comment       0x00000000       0x12 build/kernel/task_manage.o
 .comment       0x00000000       0x12 build/kernel/task_sync.o
 .comment       0x00000000       0x12 build/kernel/time_event.o
 .comment       0x00000000       0x12 build/kernel/time_manage.o
 .comment       0x00000000       0x12 build/kernel/wait.o
 .comment       0x00000000       0x12 build/config/armv4/cpu_config.o
 .comment       0x00000000       0x12 build/config/armv4/at91sam7s/sys_config.o
 .comment       0x00000000       0x12 build/./kernel_cfg.o
 .comment       0x00000000       0x12 build/rtoscalls.o
 .comment       0x00000000       0x12 build/syscalls.o
 .comment       0x00000000       0x12 build/ecrobot_bluetooth.o
 .comment       0x00000000       0x12 build/ecrobot_base.o
 .comment       0x00000000       0x12 build/ecrobot.o
 .comment       0x00000000       0x12 build/library/log_output.oram
 .comment       0x00000000       0x12 build/library/strerror.oram
 .comment       0x00000000       0x12 build/library/t_perror.oram
 .comment       0x00000000       0x12 build/library/vasyslog.oram
 .comment       0x00000000       0x12 build/main.o
 .comment       0x00000000       0x12 build/MEXU.o
 .comment       0x00000000       0x12 build/stm.o
 .comment       0x00000011       0x12 ../ecrobot/../ecrobot/libecrobot++.a(I2c.o)
 .comment       0x00000023       0x12 ../ecrobot/../ecrobot/libecrobot++.a(Lcd.o)
 .comment       0x00000035       0x12 ../ecrobot/../ecrobot/libecrobot++.a(LightSensor.o)
 .comment       0x00000047       0x12 ../ecrobot/../ecrobot/libecrobot++.a(Motor.o)
 .comment       0x00000059       0x12 ../ecrobot/../ecrobot/libecrobot++.a(SonarSensor.o)
 .comment       0x0000006b       0x12 ../ecrobot/../ecrobot/libecrobot++.a(TouchSensor.o)
 .comment       0x0000007d       0x12 ../ecrobot/../ecrobot/libecrobot++.a(New.o)
 .comment       0x0000008f       0x12 ../ecrobot/../ecrobot/libecrobot.a(ecrobot_device_hook.o)
 .comment       0x000000a1       0x12 ../ecrobot/../ecrobot/libecrobot.a(ecrobot_interface.o)
 .comment       0x000000b3       0x12 ../ecrobot/../ecrobot/libecrobot.a(colorsensor.o)
 .comment       0x000000c5       0x12 ../ecrobot/../ecrobot/libecrobot.a(uart.oram)
 .comment       0x000000d7       0x12 ../ecrobot/../ecrobot/libecrobot.a(systick.oram)
 .comment       0x000000e9       0x12 ../ecrobot/../ecrobot/libecrobot.a(byte_fifo.oram)
 .comment       0x000000fb       0x12 ../ecrobot/../ecrobot/libecrobot.a(aic.oram)
 .comment       0x0000010d       0x12 ../ecrobot/../ecrobot/libecrobot.a(udp.oram)
 .comment       0x0000011f       0x12 ../ecrobot/../ecrobot/libecrobot.a(twi.oram)
 .comment       0x00000131       0x12 ../ecrobot/../ecrobot/libecrobot.a(nxt_spi.oram)
 .comment       0x00000143       0x12 ../ecrobot/../ecrobot/libecrobot.a(nxt_motors.oram)
 .comment       0x00000155       0x12 ../ecrobot/../ecrobot/libecrobot.a(data_abort.oram)
 .comment       0x00000167       0x12 ../ecrobot/../ecrobot/libecrobot.a(display.oram)
 .comment       0x00000179       0x12 ../ecrobot/../ecrobot/libecrobot.a(i2c.oram)
 .comment       0x0000018b       0x12 ../ecrobot/../ecrobot/libecrobot.a(sound.oram)
 .comment       0x0000019d       0x12 ../ecrobot/../ecrobot/libecrobot.a(bt.oram)
 .comment       0x000001af       0x12 ../ecrobot/../ecrobot/libecrobot.a(nxt_avr.oram)
 .comment       0x000001c1       0x12 ../ecrobot/../ecrobot/libecrobot.a(sensors.oram)
 .comment       0x000001d3       0x12 ../ecrobot/../ecrobot/libecrobot.a(sensors1.oram)
 .comment       0x000001e5       0x12 ../ecrobot/../ecrobot/libecrobot.a(nxt_lcd.oram)
 .comment       0x000001f7       0x12 ../ecrobot/../ecrobot/libecrobot.a(flash_loader.oram)
 .comment       0x00000209       0x12 ../ecrobot/../ecrobot/libecrobot.a(ecrobot_usb.o)
 .comment       0x0000021b       0x12 ../ecrobot/../ecrobot/libecrobot.a(flashprog.oram)
 .comment       0x00000000       0x12 /vagrant/gnuarm/lib/gcc/arm-elf/4.4.2/../../../../arm-elf/lib/thumb/interwork/libstdc++.a(pure.o)
 .comment       0x00000000       0x12 /vagrant/gnuarm/lib/gcc/arm-elf/4.4.2/../../../../arm-elf/lib/thumb/interwork/libstdc++.a(eh_personality.o)
 .comment       0x00000000       0x12 /vagrant/gnuarm/lib/gcc/arm-elf/4.4.2/../../../../arm-elf/lib/thumb/interwork/libstdc++.a(eh_terminate.o)
 .comment       0x00000000       0x12 /vagrant/gnuarm/lib/gcc/arm-elf/4.4.2/../../../../arm-elf/lib/thumb/interwork/libstdc++.a(eh_throw.o)
 .comment       0x00000000       0x12 /vagrant/gnuarm/lib/gcc/arm-elf/4.4.2/../../../../arm-elf/lib/thumb/interwork/libstdc++.a(eh_unex_handler.o)
 .comment       0x00000000       0x12 /vagrant/gnuarm/lib/gcc/arm-elf/4.4.2/../../../../arm-elf/lib/thumb/interwork/libstdc++.a(eh_alloc.o)
 .comment       0x00000000       0x12 /vagrant/gnuarm/lib/gcc/arm-elf/4.4.2/../../../../arm-elf/lib/thumb/interwork/libstdc++.a(eh_call.o)
 .comment       0x00000000       0x12 /vagrant/gnuarm/lib/gcc/arm-elf/4.4.2/../../../../arm-elf/lib/thumb/interwork/libstdc++.a(eh_catch.o)
 .comment       0x00000000       0x12 /vagrant/gnuarm/lib/gcc/arm-elf/4.4.2/../../../../arm-elf/lib/thumb/interwork/libstdc++.a(eh_exception.o)
 .comment       0x00000000       0x12 /vagrant/gnuarm/lib/gcc/arm-elf/4.4.2/../../../../arm-elf/lib/thumb/interwork/libstdc++.a(eh_globals.o)
 .comment       0x00000000       0x12 /vagrant/gnuarm/lib/gcc/arm-elf/4.4.2/../../../../arm-elf/lib/thumb/interwork/libstdc++.a(eh_term_handler.o)
 .comment       0x00000000       0x12 /vagrant/gnuarm/lib/gcc/arm-elf/4.4.2/../../../../arm-elf/lib/thumb/interwork/libstdc++.a(si_class_type_info.o)
 .comment       0x00000000       0x12 /vagrant/gnuarm/lib/gcc/arm-elf/4.4.2/../../../../arm-elf/lib/thumb/interwork/libstdc++.a(tinfo.o)
 .comment       0x00000000       0x12 /vagrant/gnuarm/lib/gcc/arm-elf/4.4.2/../../../../arm-elf/lib/thumb/interwork/libstdc++.a(vterminate.o)
 .comment       0x00000000       0x12 /vagrant/gnuarm/lib/gcc/arm-elf/4.4.2/../../../../arm-elf/lib/thumb/interwork/libstdc++.a(class_type_info.o)
 .comment       0x00000000       0x12 /vagrant/gnuarm/lib/gcc/arm-elf/4.4.2/../../../../arm-elf/lib/thumb/interwork/libstdc++.a(cp-demangle.o)
 .comment       0x00000000       0x12 /vagrant/gnuarm/lib/gcc/arm-elf/4.4.2/../../../../arm-elf/lib/thumb/interwork/libstdc++.a(eh_type.o)
 .comment       0x00000000       0x12 /vagrant/gnuarm/lib/gcc/arm-elf/4.4.2/thumb/interwork/libgcc.a(_muldi3.o)
 .comment       0x00000000       0x12 /vagrant/gnuarm/lib/gcc/arm-elf/4.4.2/thumb/interwork/libgcc.a(_divdi3.o)
 .comment       0x00000000       0x12 /vagrant/gnuarm/lib/gcc/arm-elf/4.4.2/thumb/interwork/libgcc.a(unwind-sjlj.o)
 .comment       0x00000000       0x12 /vagrant/gnuarm/lib/gcc/arm-elf/4.4.2/../../../../arm-elf/lib/thumb/interwork/libc.a(lib_a-abort.o)
 .comment       0x00000000       0x12 /vagrant/gnuarm/lib/gcc/arm-elf/4.4.2/../../../../arm-elf/lib/thumb/interwork/libc.a(lib_a-fputc.o)
 .comment       0x00000000       0x12 /vagrant/gnuarm/lib/gcc/arm-elf/4.4.2/../../../../arm-elf/lib/thumb/interwork/libc.a(lib_a-fputs.o)
 .comment       0x00000000       0x12 /vagrant/gnuarm/lib/gcc/arm-elf/4.4.2/../../../../arm-elf/lib/thumb/interwork/libc.a(lib_a-fvwrite.o)
 .comment       0x00000000       0x12 /vagrant/gnuarm/lib/gcc/arm-elf/4.4.2/../../../../arm-elf/lib/thumb/interwork/libc.a(lib_a-fwrite.o)
 .comment       0x00000000       0x12 /vagrant/gnuarm/lib/gcc/arm-elf/4.4.2/../../../../arm-elf/lib/thumb/interwork/libc.a(lib_a-impure.o)
 .comment       0x00000000       0x12 /vagrant/gnuarm/lib/gcc/arm-elf/4.4.2/../../../../arm-elf/lib/thumb/interwork/libc.a(lib_a-malloc.o)
 .comment       0x00000000       0x12 /vagrant/gnuarm/lib/gcc/arm-elf/4.4.2/../../../../arm-elf/lib/thumb/interwork/libc.a(lib_a-mallocr.o)
 .comment       0x00000000       0x12 /vagrant/gnuarm/lib/gcc/arm-elf/4.4.2/../../../../arm-elf/lib/thumb/interwork/libc.a(lib_a-memchr.o)
 .comment       0x00000000       0x12 /vagrant/gnuarm/lib/gcc/arm-elf/4.4.2/../../../../arm-elf/lib/thumb/interwork/libc.a(lib_a-memcmp.o)
 .comment       0x00000000       0x12 /vagrant/gnuarm/lib/gcc/arm-elf/4.4.2/../../../../arm-elf/lib/thumb/interwork/libc.a(lib_a-memcpy.o)
 .comment       0x00000000       0x12 /vagrant/gnuarm/lib/gcc/arm-elf/4.4.2/../../../../arm-elf/lib/thumb/interwork/libc.a(lib_a-memmove.o)
 .comment       0x00000000       0x12 /vagrant/gnuarm/lib/gcc/arm-elf/4.4.2/../../../../arm-elf/lib/thumb/interwork/libc.a(lib_a-memset.o)
 .comment       0x00000000       0x12 /vagrant/gnuarm/lib/gcc/arm-elf/4.4.2/../../../../arm-elf/lib/thumb/interwork/libc.a(lib_a-mlock.o)
 .comment       0x00000000       0x12 /vagrant/gnuarm/lib/gcc/arm-elf/4.4.2/../../../../arm-elf/lib/thumb/interwork/libc.a(lib_a-putc.o)
 .comment       0x00000000       0x12 /vagrant/gnuarm/lib/gcc/arm-elf/4.4.2/../../../../arm-elf/lib/thumb/interwork/libc.a(lib_a-realloc.o)
 .comment       0x00000000       0x12 /vagrant/gnuarm/lib/gcc/arm-elf/4.4.2/../../../../arm-elf/lib/thumb/interwork/libc.a(lib_a-reallocr.o)
 .comment       0x00000000       0x12 /vagrant/gnuarm/lib/gcc/arm-elf/4.4.2/../../../../arm-elf/lib/thumb/interwork/libc.a(lib_a-signal.o)
 .comment       0x00000000       0x12 /vagrant/gnuarm/lib/gcc/arm-elf/4.4.2/../../../../arm-elf/lib/thumb/interwork/libc.a(lib_a-signalr.o)
 .comment       0x00000000       0x12 /vagrant/gnuarm/lib/gcc/arm-elf/4.4.2/../../../../arm-elf/lib/thumb/interwork/libc.a(lib_a-sprintf.o)
 .comment       0x00000000       0x12 /vagrant/gnuarm/lib/gcc/arm-elf/4.4.2/../../../../arm-elf/lib/thumb/interwork/libc.a(lib_a-strcmp.o)
 .comment       0x00000000       0x12 /vagrant/gnuarm/lib/gcc/arm-elf/4.4.2/../../../../arm-elf/lib/thumb/interwork/libc.a(lib_a-strcpy.o)
 .comment       0x00000000       0x12 /vagrant/gnuarm/lib/gcc/arm-elf/4.4.2/../../../../arm-elf/lib/thumb/interwork/libc.a(lib_a-strlen.o)
 .comment       0x00000000       0x12 /vagrant/gnuarm/lib/gcc/arm-elf/4.4.2/../../../../arm-elf/lib/thumb/interwork/libc.a(lib_a-strncmp.o)
 .comment       0x00000000       0x12 /vagrant/gnuarm/lib/gcc/arm-elf/4.4.2/../../../../arm-elf/lib/thumb/interwork/libc.a(lib_a-strncpy.o)
 .comment       0x00000000       0x12 /vagrant/gnuarm/lib/gcc/arm-elf/4.4.2/../../../../arm-elf/lib/thumb/interwork/libc.a(lib_a-svfprintf.o)
 .comment       0x00000000       0x12 /vagrant/gnuarm/lib/gcc/arm-elf/4.4.2/../../../../arm-elf/lib/thumb/interwork/libc.a(lib_a-syscalls.o)
 .comment       0x00000000       0x12 /vagrant/gnuarm/lib/gcc/arm-elf/4.4.2/../../../../arm-elf/lib/thumb/interwork/libc.a(lib_a-syswrite.o)
 .comment       0x00000000       0x12 /vagrant/gnuarm/lib/gcc/arm-elf/4.4.2/../../../../arm-elf/lib/thumb/interwork/libc.a(lib_a-wbuf.o)
 .comment       0x00000000       0x12 /vagrant/gnuarm/lib/gcc/arm-elf/4.4.2/../../../../arm-elf/lib/thumb/interwork/libc.a(lib_a-writer.o)
 .comment       0x00000000       0x12 /vagrant/gnuarm/lib/gcc/arm-elf/4.4.2/../../../../arm-elf/lib/thumb/interwork/libc.a(lib_a-wsetup.o)
 .comment       0x00000000       0x12 /vagrant/gnuarm/lib/gcc/arm-elf/4.4.2/../../../../arm-elf/lib/thumb/interwork/libc.a(lib_a-dtoa.o)
 .comment       0x00000000       0x12 /vagrant/gnuarm/lib/gcc/arm-elf/4.4.2/../../../../arm-elf/lib/thumb/interwork/libc.a(lib_a-errno.o)
 .comment       0x00000000       0x12 /vagrant/gnuarm/lib/gcc/arm-elf/4.4.2/../../../../arm-elf/lib/thumb/interwork/libc.a(lib_a-fflush.o)
 .comment       0x00000000       0x12 /vagrant/gnuarm/lib/gcc/arm-elf/4.4.2/../../../../arm-elf/lib/thumb/interwork/libc.a(lib_a-findfp.o)
 .comment       0x00000000       0x12 /vagrant/gnuarm/lib/gcc/arm-elf/4.4.2/../../../../arm-elf/lib/thumb/interwork/libc.a(lib_a-freer.o)
 .comment       0x00000000       0x12 /vagrant/gnuarm/lib/gcc/arm-elf/4.4.2/../../../../arm-elf/lib/thumb/interwork/libc.a(lib_a-fwalk.o)
 .comment       0x00000000       0x12 /vagrant/gnuarm/lib/gcc/arm-elf/4.4.2/../../../../arm-elf/lib/thumb/interwork/libc.a(lib_a-locale.o)
 .comment       0x00000000       0x12 /vagrant/gnuarm/lib/gcc/arm-elf/4.4.2/../../../../arm-elf/lib/thumb/interwork/libc.a(lib_a-makebuf.o)
 .comment       0x00000000       0x12 /vagrant/gnuarm/lib/gcc/arm-elf/4.4.2/../../../../arm-elf/lib/thumb/interwork/libc.a(lib_a-mprec.o)
 .comment       0x00000000       0x12 /vagrant/gnuarm/lib/gcc/arm-elf/4.4.2/../../../../arm-elf/lib/thumb/interwork/libc.a(lib_a-reent.o)
 .comment       0x00000000       0x12 /vagrant/gnuarm/lib/gcc/arm-elf/4.4.2/../../../../arm-elf/lib/thumb/interwork/libc.a(lib_a-s_fpclassify.o)
 .comment       0x00000000       0x12 /vagrant/gnuarm/lib/gcc/arm-elf/4.4.2/../../../../arm-elf/lib/thumb/interwork/libc.a(lib_a-stdio.o)
 .comment       0x00000000       0x12 /vagrant/gnuarm/lib/gcc/arm-elf/4.4.2/../../../../arm-elf/lib/thumb/interwork/libc.a(lib_a-svfiprintf.o)
 .comment       0x00000000       0x12 /vagrant/gnuarm/lib/gcc/arm-elf/4.4.2/../../../../arm-elf/lib/thumb/interwork/libc.a(lib_a-callocr.o)
 .comment       0x00000000       0x12 /vagrant/gnuarm/lib/gcc/arm-elf/4.4.2/../../../../arm-elf/lib/thumb/interwork/libc.a(lib_a-closer.o)
 .comment       0x00000000       0x12 /vagrant/gnuarm/lib/gcc/arm-elf/4.4.2/../../../../arm-elf/lib/thumb/interwork/libc.a(lib_a-fclose.o)
 .comment       0x00000000       0x12 /vagrant/gnuarm/lib/gcc/arm-elf/4.4.2/../../../../arm-elf/lib/thumb/interwork/libc.a(lib_a-fstatr.o)
 .comment       0x00000000       0x12 /vagrant/gnuarm/lib/gcc/arm-elf/4.4.2/../../../../arm-elf/lib/thumb/interwork/libc.a(lib_a-isattyr.o)
 .comment       0x00000000       0x12 /vagrant/gnuarm/lib/gcc/arm-elf/4.4.2/../../../../arm-elf/lib/thumb/interwork/libc.a(lib_a-lseekr.o)
 .comment       0x00000000       0x12 /vagrant/gnuarm/lib/gcc/arm-elf/4.4.2/../../../../arm-elf/lib/thumb/interwork/libc.a(lib_a-readr.o)

.ARM.attributes
                0x00000000       0x10
 .ARM.attributes
                0x00000000       0x10 build/kernel/banner.o
 .ARM.attributes
                0x00000010       0x10 build/kernel/cyclic.o
 .ARM.attributes
                0x00000020       0x10 build/kernel/dataqueue.o
 .ARM.attributes
                0x00000030       0x10 build/kernel/eventflag.o
 .ARM.attributes
                0x00000040       0x10 build/kernel/exception.o
 .ARM.attributes
                0x00000050       0x10 build/kernel/interrupt.o
 .ARM.attributes
                0x00000060       0x10 build/kernel/mailbox.o
 .ARM.attributes
                0x00000070       0x10 build/kernel/mempfix.o
 .ARM.attributes
                0x00000080       0x10 build/kernel/semaphore.o
 .ARM.attributes
                0x00000090       0x10 build/kernel/startup.o
 .ARM.attributes
                0x000000a0       0x10 build/kernel/sys_manage.o
 .ARM.attributes
                0x000000b0       0x10 build/kernel/syslog.o
 .ARM.attributes
                0x000000c0       0x10 build/kernel/task.o
 .ARM.attributes
                0x000000d0       0x10 build/kernel/task_except.o
 .ARM.attributes
                0x000000e0       0x10 build/kernel/task_manage.o
 .ARM.attributes
                0x000000f0       0x10 build/kernel/task_sync.o
 .ARM.attributes
                0x00000100       0x10 build/kernel/time_event.o
 .ARM.attributes
                0x00000110       0x10 build/kernel/time_manage.o
 .ARM.attributes
                0x00000120       0x10 build/kernel/wait.o
 .ARM.attributes
                0x00000130       0x10 build/config/armv4/cpu_config.o
 .ARM.attributes
                0x00000140       0x10 build/config/armv4/at91sam7s/sys_config.o
 .ARM.attributes
                0x00000150       0x10 build/./kernel_cfg.o
 .ARM.attributes
                0x00000160       0x10 build/rtoscalls.o
 .ARM.attributes
                0x00000170       0x10 build/syscalls.o
 .ARM.attributes
                0x00000180       0x10 build/ecrobot_bluetooth.o
 .ARM.attributes
                0x00000190       0x10 build/ecrobot_base.o
 .ARM.attributes
                0x000001a0       0x10 build/ecrobot.o
 .ARM.attributes
                0x000001b0       0x10 build/library/log_output.oram
 .ARM.attributes
                0x000001c0       0x10 build/library/strerror.oram
 .ARM.attributes
                0x000001d0       0x10 build/library/t_perror.oram
 .ARM.attributes
                0x000001e0       0x10 build/library/vasyslog.oram
 .ARM.attributes
                0x000001f0       0x10 build/main.o
 .ARM.attributes
                0x00000200       0x10 build/MEXU.o
 .ARM.attributes
                0x00000210       0x10 build/stm.o
 .ARM.attributes
                0x00000220       0x10 build/nxtvm/platform/nxt/vectors.o
 .ARM.attributes
                0x00000230       0x10 build/nxt_binary_header.o
 .ARM.attributes
                0x00000240       0x10 build/nxt_entry_point.o
 .ARM.attributes
                0x00000250       0x10 build/ecrobot_init.o
 .ARM.attributes
                0x00000260       0x10 build/config/armv4/cpu_support.oram
 .ARM.attributes
                0x00000270       0x10 build/config/armv4/at91sam7s/irq.oram
 .ARM.attributes
                0x00000280       0x10 /vagrant/gnuarm/lib/gcc/arm-elf/4.4.2/../../../../arm-elf/lib/thumb/interwork/libstdc++.a(pure.o)
 .ARM.attributes
                0x00000290       0x10 /vagrant/gnuarm/lib/gcc/arm-elf/4.4.2/../../../../arm-elf/lib/thumb/interwork/libstdc++.a(eh_personality.o)
 .ARM.attributes
                0x000002a0       0x10 /vagrant/gnuarm/lib/gcc/arm-elf/4.4.2/../../../../arm-elf/lib/thumb/interwork/libstdc++.a(eh_terminate.o)
 .ARM.attributes
                0x000002b0       0x10 /vagrant/gnuarm/lib/gcc/arm-elf/4.4.2/../../../../arm-elf/lib/thumb/interwork/libstdc++.a(eh_throw.o)
 .ARM.attributes
                0x000002c0       0x10 /vagrant/gnuarm/lib/gcc/arm-elf/4.4.2/../../../../arm-elf/lib/thumb/interwork/libstdc++.a(eh_unex_handler.o)
 .ARM.attributes
                0x000002d0       0x10 /vagrant/gnuarm/lib/gcc/arm-elf/4.4.2/../../../../arm-elf/lib/thumb/interwork/libstdc++.a(eh_alloc.o)
 .ARM.attributes
                0x000002e0       0x10 /vagrant/gnuarm/lib/gcc/arm-elf/4.4.2/../../../../arm-elf/lib/thumb/interwork/libstdc++.a(eh_call.o)
 .ARM.attributes
                0x000002f0       0x10 /vagrant/gnuarm/lib/gcc/arm-elf/4.4.2/../../../../arm-elf/lib/thumb/interwork/libstdc++.a(eh_catch.o)
 .ARM.attributes
                0x00000300       0x10 /vagrant/gnuarm/lib/gcc/arm-elf/4.4.2/../../../../arm-elf/lib/thumb/interwork/libstdc++.a(eh_exception.o)
 .ARM.attributes
                0x00000310       0x10 /vagrant/gnuarm/lib/gcc/arm-elf/4.4.2/../../../../arm-elf/lib/thumb/interwork/libstdc++.a(eh_globals.o)
 .ARM.attributes
                0x00000320       0x10 /vagrant/gnuarm/lib/gcc/arm-elf/4.4.2/../../../../arm-elf/lib/thumb/interwork/libstdc++.a(eh_term_handler.o)
 .ARM.attributes
                0x00000330       0x10 /vagrant/gnuarm/lib/gcc/arm-elf/4.4.2/../../../../arm-elf/lib/thumb/interwork/libstdc++.a(si_class_type_info.o)
 .ARM.attributes
                0x00000340       0x10 /vagrant/gnuarm/lib/gcc/arm-elf/4.4.2/../../../../arm-elf/lib/thumb/interwork/libstdc++.a(tinfo.o)
 .ARM.attributes
                0x00000350       0x10 /vagrant/gnuarm/lib/gcc/arm-elf/4.4.2/../../../../arm-elf/lib/thumb/interwork/libstdc++.a(vterminate.o)
 .ARM.attributes
                0x00000360       0x10 /vagrant/gnuarm/lib/gcc/arm-elf/4.4.2/../../../../arm-elf/lib/thumb/interwork/libstdc++.a(class_type_info.o)
 .ARM.attributes
                0x00000370       0x10 /vagrant/gnuarm/lib/gcc/arm-elf/4.4.2/../../../../arm-elf/lib/thumb/interwork/libstdc++.a(cp-demangle.o)
 .ARM.attributes
                0x00000380       0x10 /vagrant/gnuarm/lib/gcc/arm-elf/4.4.2/../../../../arm-elf/lib/thumb/interwork/libstdc++.a(eh_type.o)
 .ARM.attributes
                0x00000390       0x10 /vagrant/gnuarm/lib/gcc/arm-elf/4.4.2/thumb/interwork/libgcc.a(_udivsi3.o)
 .ARM.attributes
                0x000003a0       0x10 /vagrant/gnuarm/lib/gcc/arm-elf/4.4.2/thumb/interwork/libgcc.a(_divsi3.o)
 .ARM.attributes
                0x000003b0       0x10 /vagrant/gnuarm/lib/gcc/arm-elf/4.4.2/thumb/interwork/libgcc.a(_umodsi3.o)
 .ARM.attributes
                0x000003c0       0x10 /vagrant/gnuarm/lib/gcc/arm-elf/4.4.2/thumb/interwork/libgcc.a(_modsi3.o)
 .ARM.attributes
                0x000003d0       0x10 /vagrant/gnuarm/lib/gcc/arm-elf/4.4.2/thumb/interwork/libgcc.a(_dvmd_tls.o)
 .ARM.attributes
                0x000003e0       0x10 /vagrant/gnuarm/lib/gcc/arm-elf/4.4.2/thumb/interwork/libgcc.a(_arm_addsubdf3.o)
 .ARM.attributes
                0x000003f0       0x10 /vagrant/gnuarm/lib/gcc/arm-elf/4.4.2/thumb/interwork/libgcc.a(_arm_muldivdf3.o)
 .ARM.attributes
                0x00000400       0x10 /vagrant/gnuarm/lib/gcc/arm-elf/4.4.2/thumb/interwork/libgcc.a(_arm_cmpdf2.o)
 .ARM.attributes
                0x00000410       0x10 /vagrant/gnuarm/lib/gcc/arm-elf/4.4.2/thumb/interwork/libgcc.a(_muldi3.o)
 .ARM.attributes
                0x00000420       0x10 /vagrant/gnuarm/lib/gcc/arm-elf/4.4.2/thumb/interwork/libgcc.a(_divdi3.o)
 .ARM.attributes
                0x00000430       0x10 /vagrant/gnuarm/lib/gcc/arm-elf/4.4.2/thumb/interwork/libgcc.a(unwind-sjlj.o)
 .ARM.attributes
                0x00000440       0x10 /vagrant/gnuarm/lib/gcc/arm-elf/4.4.2/thumb/interwork/libgcc.a(_clzsi2.o)
 .ARM.attributes
                0x00000450       0x10 /vagrant/gnuarm/lib/gcc/arm-elf/4.4.2/../../../../arm-elf/lib/thumb/interwork/libc.a(lib_a-abort.o)
 .ARM.attributes
                0x00000460       0x10 /vagrant/gnuarm/lib/gcc/arm-elf/4.4.2/../../../../arm-elf/lib/thumb/interwork/libc.a(lib_a-fputc.o)
 .ARM.attributes
                0x00000470       0x10 /vagrant/gnuarm/lib/gcc/arm-elf/4.4.2/../../../../arm-elf/lib/thumb/interwork/libc.a(lib_a-fputs.o)
 .ARM.attributes
                0x00000480       0x10 /vagrant/gnuarm/lib/gcc/arm-elf/4.4.2/../../../../arm-elf/lib/thumb/interwork/libc.a(lib_a-fvwrite.o)
 .ARM.attributes
                0x00000490       0x10 /vagrant/gnuarm/lib/gcc/arm-elf/4.4.2/../../../../arm-elf/lib/thumb/interwork/libc.a(lib_a-fwrite.o)
 .ARM.attributes
                0x000004a0       0x10 /vagrant/gnuarm/lib/gcc/arm-elf/4.4.2/../../../../arm-elf/lib/thumb/interwork/libc.a(lib_a-impure.o)
 .ARM.attributes
                0x000004b0       0x10 /vagrant/gnuarm/lib/gcc/arm-elf/4.4.2/../../../../arm-elf/lib/thumb/interwork/libc.a(lib_a-malloc.o)
 .ARM.attributes
                0x000004c0       0x10 /vagrant/gnuarm/lib/gcc/arm-elf/4.4.2/../../../../arm-elf/lib/thumb/interwork/libc.a(lib_a-mallocr.o)
 .ARM.attributes
                0x000004d0       0x10 /vagrant/gnuarm/lib/gcc/arm-elf/4.4.2/../../../../arm-elf/lib/thumb/interwork/libc.a(lib_a-memchr.o)
 .ARM.attributes
                0x000004e0       0x10 /vagrant/gnuarm/lib/gcc/arm-elf/4.4.2/../../../../arm-elf/lib/thumb/interwork/libc.a(lib_a-memcmp.o)
 .ARM.attributes
                0x000004f0       0x10 /vagrant/gnuarm/lib/gcc/arm-elf/4.4.2/../../../../arm-elf/lib/thumb/interwork/libc.a(lib_a-memcpy.o)
 .ARM.attributes
                0x00000500       0x10 /vagrant/gnuarm/lib/gcc/arm-elf/4.4.2/../../../../arm-elf/lib/thumb/interwork/libc.a(lib_a-memmove.o)
 .ARM.attributes
                0x00000510       0x10 /vagrant/gnuarm/lib/gcc/arm-elf/4.4.2/../../../../arm-elf/lib/thumb/interwork/libc.a(lib_a-memset.o)
 .ARM.attributes
                0x00000520       0x10 /vagrant/gnuarm/lib/gcc/arm-elf/4.4.2/../../../../arm-elf/lib/thumb/interwork/libc.a(lib_a-mlock.o)
 .ARM.attributes
                0x00000530       0x10 /vagrant/gnuarm/lib/gcc/arm-elf/4.4.2/../../../../arm-elf/lib/thumb/interwork/libc.a(lib_a-putc.o)
 .ARM.attributes
                0x00000540       0x10 /vagrant/gnuarm/lib/gcc/arm-elf/4.4.2/../../../../arm-elf/lib/thumb/interwork/libc.a(lib_a-realloc.o)
 .ARM.attributes
                0x00000550       0x10 /vagrant/gnuarm/lib/gcc/arm-elf/4.4.2/../../../../arm-elf/lib/thumb/interwork/libc.a(lib_a-reallocr.o)
 .ARM.attributes
                0x00000560       0x10 /vagrant/gnuarm/lib/gcc/arm-elf/4.4.2/../../../../arm-elf/lib/thumb/interwork/libc.a(lib_a-signal.o)
 .ARM.attributes
                0x00000570       0x10 /vagrant/gnuarm/lib/gcc/arm-elf/4.4.2/../../../../arm-elf/lib/thumb/interwork/libc.a(lib_a-signalr.o)
 .ARM.attributes
                0x00000580       0x10 /vagrant/gnuarm/lib/gcc/arm-elf/4.4.2/../../../../arm-elf/lib/thumb/interwork/libc.a(lib_a-sprintf.o)
 .ARM.attributes
                0x00000590       0x10 /vagrant/gnuarm/lib/gcc/arm-elf/4.4.2/../../../../arm-elf/lib/thumb/interwork/libc.a(lib_a-strcmp.o)
 .ARM.attributes
                0x000005a0       0x10 /vagrant/gnuarm/lib/gcc/arm-elf/4.4.2/../../../../arm-elf/lib/thumb/interwork/libc.a(lib_a-strcpy.o)
 .ARM.attributes
                0x000005b0       0x10 /vagrant/gnuarm/lib/gcc/arm-elf/4.4.2/../../../../arm-elf/lib/thumb/interwork/libc.a(lib_a-strlen.o)
 .ARM.attributes
                0x000005c0       0x10 /vagrant/gnuarm/lib/gcc/arm-elf/4.4.2/../../../../arm-elf/lib/thumb/interwork/libc.a(lib_a-strncmp.o)
 .ARM.attributes
                0x000005d0       0x10 /vagrant/gnuarm/lib/gcc/arm-elf/4.4.2/../../../../arm-elf/lib/thumb/interwork/libc.a(lib_a-strncpy.o)
 .ARM.attributes
                0x000005e0       0x10 /vagrant/gnuarm/lib/gcc/arm-elf/4.4.2/../../../../arm-elf/lib/thumb/interwork/libc.a(lib_a-svfprintf.o)
 .ARM.attributes
                0x000005f0       0x10 /vagrant/gnuarm/lib/gcc/arm-elf/4.4.2/../../../../arm-elf/lib/thumb/interwork/libc.a(lib_a-syscalls.o)
 .ARM.attributes
                0x00000600       0x10 /vagrant/gnuarm/lib/gcc/arm-elf/4.4.2/../../../../arm-elf/lib/thumb/interwork/libc.a(lib_a-syswrite.o)
 .ARM.attributes
                0x00000610       0x10 /vagrant/gnuarm/lib/gcc/arm-elf/4.4.2/../../../../arm-elf/lib/thumb/interwork/libc.a(lib_a-wbuf.o)
 .ARM.attributes
                0x00000620       0x10 /vagrant/gnuarm/lib/gcc/arm-elf/4.4.2/../../../../arm-elf/lib/thumb/interwork/libc.a(lib_a-writer.o)
 .ARM.attributes
                0x00000630       0x10 /vagrant/gnuarm/lib/gcc/arm-elf/4.4.2/../../../../arm-elf/lib/thumb/interwork/libc.a(lib_a-wsetup.o)
 .ARM.attributes
                0x00000640       0x10 /vagrant/gnuarm/lib/gcc/arm-elf/4.4.2/../../../../arm-elf/lib/thumb/interwork/libc.a(lib_a-dtoa.o)
 .ARM.attributes
                0x00000650       0x10 /vagrant/gnuarm/lib/gcc/arm-elf/4.4.2/../../../../arm-elf/lib/thumb/interwork/libc.a(lib_a-errno.o)
 .ARM.attributes
                0x00000660       0x10 /vagrant/gnuarm/lib/gcc/arm-elf/4.4.2/../../../../arm-elf/lib/thumb/interwork/libc.a(lib_a-fflush.o)
 .ARM.attributes
                0x00000670       0x10 /vagrant/gnuarm/lib/gcc/arm-elf/4.4.2/../../../../arm-elf/lib/thumb/interwork/libc.a(lib_a-findfp.o)
 .ARM.attributes
                0x00000680       0x10 /vagrant/gnuarm/lib/gcc/arm-elf/4.4.2/../../../../arm-elf/lib/thumb/interwork/libc.a(lib_a-freer.o)
 .ARM.attributes
                0x00000690       0x10 /vagrant/gnuarm/lib/gcc/arm-elf/4.4.2/../../../../arm-elf/lib/thumb/interwork/libc.a(lib_a-fwalk.o)
 .ARM.attributes
                0x000006a0       0x10 /vagrant/gnuarm/lib/gcc/arm-elf/4.4.2/../../../../arm-elf/lib/thumb/interwork/libc.a(lib_a-locale.o)
 .ARM.attributes
                0x000006b0       0x10 /vagrant/gnuarm/lib/gcc/arm-elf/4.4.2/../../../../arm-elf/lib/thumb/interwork/libc.a(lib_a-makebuf.o)
 .ARM.attributes
                0x000006c0       0x10 /vagrant/gnuarm/lib/gcc/arm-elf/4.4.2/../../../../arm-elf/lib/thumb/interwork/libc.a(lib_a-mprec.o)
 .ARM.attributes
                0x000006d0       0x10 /vagrant/gnuarm/lib/gcc/arm-elf/4.4.2/../../../../arm-elf/lib/thumb/interwork/libc.a(lib_a-reent.o)
 .ARM.attributes
                0x000006e0       0x10 /vagrant/gnuarm/lib/gcc/arm-elf/4.4.2/../../../../arm-elf/lib/thumb/interwork/libc.a(lib_a-s_fpclassify.o)
 .ARM.attributes
                0x000006f0       0x10 /vagrant/gnuarm/lib/gcc/arm-elf/4.4.2/../../../../arm-elf/lib/thumb/interwork/libc.a(lib_a-stdio.o)
 .ARM.attributes
                0x00000700       0x10 /vagrant/gnuarm/lib/gcc/arm-elf/4.4.2/../../../../arm-elf/lib/thumb/interwork/libc.a(lib_a-svfiprintf.o)
 .ARM.attributes
                0x00000710       0x10 /vagrant/gnuarm/lib/gcc/arm-elf/4.4.2/../../../../arm-elf/lib/thumb/interwork/libc.a(lib_a-callocr.o)
 .ARM.attributes
                0x00000720       0x10 /vagrant/gnuarm/lib/gcc/arm-elf/4.4.2/../../../../arm-elf/lib/thumb/interwork/libc.a(lib_a-closer.o)
 .ARM.attributes
                0x00000730       0x10 /vagrant/gnuarm/lib/gcc/arm-elf/4.4.2/../../../../arm-elf/lib/thumb/interwork/libc.a(lib_a-fclose.o)
 .ARM.attributes
                0x00000740       0x10 /vagrant/gnuarm/lib/gcc/arm-elf/4.4.2/../../../../arm-elf/lib/thumb/interwork/libc.a(lib_a-fstatr.o)
 .ARM.attributes
                0x00000750       0x10 /vagrant/gnuarm/lib/gcc/arm-elf/4.4.2/../../../../arm-elf/lib/thumb/interwork/libc.a(lib_a-isattyr.o)
 .ARM.attributes
                0x00000760       0x10 /vagrant/gnuarm/lib/gcc/arm-elf/4.4.2/../../../../arm-elf/lib/thumb/interwork/libc.a(lib_a-lseekr.o)
 .ARM.attributes
                0x00000770       0x10 /vagrant/gnuarm/lib/gcc/arm-elf/4.4.2/../../../../arm-elf/lib/thumb/interwork/libc.a(lib_a-readr.o)
 .ARM.attributes
                0x00000780       0x10 /vagrant/gnuarm/lib/gcc/arm-elf/4.4.2/thumb/interwork/libgcc.a(_arm_fixdfsi.o)
 .ARM.attributes
                0x00000790       0x10 build/nxtvm/platform/nxt/vectors.o

.debug_abbrev   0x00000000     0x7abf
 .debug_abbrev  0x00000000       0xb1 /vagrant/gnuarm/lib/gcc/arm-elf/4.4.2/../../../../arm-elf/lib/thumb/interwork/libstdc++.a(pure.o)
 .debug_abbrev  0x000000b1      0x486 /vagrant/gnuarm/lib/gcc/arm-elf/4.4.2/../../../../arm-elf/lib/thumb/interwork/libstdc++.a(eh_personality.o)
 .debug_abbrev  0x00000537      0x1d2 /vagrant/gnuarm/lib/gcc/arm-elf/4.4.2/../../../../arm-elf/lib/thumb/interwork/libstdc++.a(eh_terminate.o)
 .debug_abbrev  0x00000709      0x20c /vagrant/gnuarm/lib/gcc/arm-elf/4.4.2/../../../../arm-elf/lib/thumb/interwork/libstdc++.a(eh_throw.o)
 .debug_abbrev  0x00000915       0xb1 /vagrant/gnuarm/lib/gcc/arm-elf/4.4.2/../../../../arm-elf/lib/thumb/interwork/libstdc++.a(eh_unex_handler.o)
 .debug_abbrev  0x000009c6      0x317 /vagrant/gnuarm/lib/gcc/arm-elf/4.4.2/../../../../arm-elf/lib/thumb/interwork/libstdc++.a(eh_alloc.o)
 .debug_abbrev  0x00000cdd      0x1f3 /vagrant/gnuarm/lib/gcc/arm-elf/4.4.2/../../../../arm-elf/lib/thumb/interwork/libstdc++.a(eh_call.o)
 .debug_abbrev  0x00000ed0      0x284 /vagrant/gnuarm/lib/gcc/arm-elf/4.4.2/../../../../arm-elf/lib/thumb/interwork/libstdc++.a(eh_catch.o)
 .debug_abbrev  0x00001154      0x206 /vagrant/gnuarm/lib/gcc/arm-elf/4.4.2/../../../../arm-elf/lib/thumb/interwork/libstdc++.a(eh_exception.o)
 .debug_abbrev  0x0000135a      0x19b /vagrant/gnuarm/lib/gcc/arm-elf/4.4.2/../../../../arm-elf/lib/thumb/interwork/libstdc++.a(eh_globals.o)
 .debug_abbrev  0x000014f5       0xb1 /vagrant/gnuarm/lib/gcc/arm-elf/4.4.2/../../../../arm-elf/lib/thumb/interwork/libstdc++.a(eh_term_handler.o)
 .debug_abbrev  0x000015a6      0x2f5 /vagrant/gnuarm/lib/gcc/arm-elf/4.4.2/../../../../arm-elf/lib/thumb/interwork/libstdc++.a(si_class_type_info.o)
 .debug_abbrev  0x0000189b      0x248 /vagrant/gnuarm/lib/gcc/arm-elf/4.4.2/../../../../arm-elf/lib/thumb/interwork/libstdc++.a(tinfo.o)
 .debug_abbrev  0x00001ae3      0x2c6 /vagrant/gnuarm/lib/gcc/arm-elf/4.4.2/../../../../arm-elf/lib/thumb/interwork/libstdc++.a(vterminate.o)
 .debug_abbrev  0x00001da9      0x365 /vagrant/gnuarm/lib/gcc/arm-elf/4.4.2/../../../../arm-elf/lib/thumb/interwork/libstdc++.a(class_type_info.o)
 .debug_abbrev  0x0000210e      0x2fb /vagrant/gnuarm/lib/gcc/arm-elf/4.4.2/../../../../arm-elf/lib/thumb/interwork/libstdc++.a(cp-demangle.o)
 .debug_abbrev  0x00002409      0x1b8 /vagrant/gnuarm/lib/gcc/arm-elf/4.4.2/../../../../arm-elf/lib/thumb/interwork/libstdc++.a(eh_type.o)
 .debug_abbrev  0x000025c1       0x14 /vagrant/gnuarm/lib/gcc/arm-elf/4.4.2/thumb/interwork/libgcc.a(_udivsi3.o)
 .debug_abbrev  0x000025d5       0x14 /vagrant/gnuarm/lib/gcc/arm-elf/4.4.2/thumb/interwork/libgcc.a(_divsi3.o)
 .debug_abbrev  0x000025e9       0x14 /vagrant/gnuarm/lib/gcc/arm-elf/4.4.2/thumb/interwork/libgcc.a(_umodsi3.o)
 .debug_abbrev  0x000025fd       0x14 /vagrant/gnuarm/lib/gcc/arm-elf/4.4.2/thumb/interwork/libgcc.a(_modsi3.o)
 .debug_abbrev  0x00002611       0x14 /vagrant/gnuarm/lib/gcc/arm-elf/4.4.2/thumb/interwork/libgcc.a(_dvmd_tls.o)
 .debug_abbrev  0x00002625       0x14 /vagrant/gnuarm/lib/gcc/arm-elf/4.4.2/thumb/interwork/libgcc.a(_arm_addsubdf3.o)
 .debug_abbrev  0x00002639       0x14 /vagrant/gnuarm/lib/gcc/arm-elf/4.4.2/thumb/interwork/libgcc.a(_arm_muldivdf3.o)
 .debug_abbrev  0x0000264d       0x14 /vagrant/gnuarm/lib/gcc/arm-elf/4.4.2/thumb/interwork/libgcc.a(_arm_cmpdf2.o)
 .debug_abbrev  0x00002661       0xf5 /vagrant/gnuarm/lib/gcc/arm-elf/4.4.2/thumb/interwork/libgcc.a(_muldi3.o)
 .debug_abbrev  0x00002756      0x169 /vagrant/gnuarm/lib/gcc/arm-elf/4.4.2/thumb/interwork/libgcc.a(_divdi3.o)
 .debug_abbrev  0x000028bf      0x298 /vagrant/gnuarm/lib/gcc/arm-elf/4.4.2/thumb/interwork/libgcc.a(unwind-sjlj.o)
 .debug_abbrev  0x00002b57       0x14 /vagrant/gnuarm/lib/gcc/arm-elf/4.4.2/thumb/interwork/libgcc.a(_clzsi2.o)
 .debug_abbrev  0x00002b6b       0x46 /vagrant/gnuarm/lib/gcc/arm-elf/4.4.2/../../../../arm-elf/lib/thumb/interwork/libc.a(lib_a-abort.o)
 .debug_abbrev  0x00002bb1      0x1ae /vagrant/gnuarm/lib/gcc/arm-elf/4.4.2/../../../../arm-elf/lib/thumb/interwork/libc.a(lib_a-fputc.o)
 .debug_abbrev  0x00002d5f      0x1b3 /vagrant/gnuarm/lib/gcc/arm-elf/4.4.2/../../../../arm-elf/lib/thumb/interwork/libc.a(lib_a-fputs.o)
 .debug_abbrev  0x00002f12      0x1b9 /vagrant/gnuarm/lib/gcc/arm-elf/4.4.2/../../../../arm-elf/lib/thumb/interwork/libc.a(lib_a-fvwrite.o)
 .debug_abbrev  0x000030cb      0x1c2 /vagrant/gnuarm/lib/gcc/arm-elf/4.4.2/../../../../arm-elf/lib/thumb/interwork/libc.a(lib_a-fwrite.o)
 .debug_abbrev  0x0000328d      0x15e /vagrant/gnuarm/lib/gcc/arm-elf/4.4.2/../../../../arm-elf/lib/thumb/interwork/libc.a(lib_a-impure.o)
 .debug_abbrev  0x000033eb      0x18e /vagrant/gnuarm/lib/gcc/arm-elf/4.4.2/../../../../arm-elf/lib/thumb/interwork/libc.a(lib_a-malloc.o)
 .debug_abbrev  0x00003579      0x228 /vagrant/gnuarm/lib/gcc/arm-elf/4.4.2/../../../../arm-elf/lib/thumb/interwork/libc.a(lib_a-mallocr.o)
 .debug_abbrev  0x000037a1       0xcb /vagrant/gnuarm/lib/gcc/arm-elf/4.4.2/../../../../arm-elf/lib/thumb/interwork/libc.a(lib_a-memchr.o)
 .debug_abbrev  0x0000386c       0x83 /vagrant/gnuarm/lib/gcc/arm-elf/4.4.2/../../../../arm-elf/lib/thumb/interwork/libc.a(lib_a-memcmp.o)
 .debug_abbrev  0x000038ef       0xa0 /vagrant/gnuarm/lib/gcc/arm-elf/4.4.2/../../../../arm-elf/lib/thumb/interwork/libc.a(lib_a-memcpy.o)
 .debug_abbrev  0x0000398f       0xa0 /vagrant/gnuarm/lib/gcc/arm-elf/4.4.2/../../../../arm-elf/lib/thumb/interwork/libc.a(lib_a-memmove.o)
 .debug_abbrev  0x00003a2f       0xa1 /vagrant/gnuarm/lib/gcc/arm-elf/4.4.2/../../../../arm-elf/lib/thumb/interwork/libc.a(lib_a-memset.o)
 .debug_abbrev  0x00003ad0      0x171 /vagrant/gnuarm/lib/gcc/arm-elf/4.4.2/../../../../arm-elf/lib/thumb/interwork/libc.a(lib_a-mlock.o)
 .debug_abbrev  0x00003c41      0x19f /vagrant/gnuarm/lib/gcc/arm-elf/4.4.2/../../../../arm-elf/lib/thumb/interwork/libc.a(lib_a-putc.o)
 .debug_abbrev  0x00003de0      0x186 /vagrant/gnuarm/lib/gcc/arm-elf/4.4.2/../../../../arm-elf/lib/thumb/interwork/libc.a(lib_a-realloc.o)
 .debug_abbrev  0x00003f66      0x1ed /vagrant/gnuarm/lib/gcc/arm-elf/4.4.2/../../../../arm-elf/lib/thumb/interwork/libc.a(lib_a-reallocr.o)
 .debug_abbrev  0x00004153      0x1b9 /vagrant/gnuarm/lib/gcc/arm-elf/4.4.2/../../../../arm-elf/lib/thumb/interwork/libc.a(lib_a-signal.o)
 .debug_abbrev  0x0000430c      0x195 /vagrant/gnuarm/lib/gcc/arm-elf/4.4.2/../../../../arm-elf/lib/thumb/interwork/libc.a(lib_a-signalr.o)
 .debug_abbrev  0x000044a1      0x1bc /vagrant/gnuarm/lib/gcc/arm-elf/4.4.2/../../../../arm-elf/lib/thumb/interwork/libc.a(lib_a-sprintf.o)
 .debug_abbrev  0x0000465d       0x76 /vagrant/gnuarm/lib/gcc/arm-elf/4.4.2/../../../../arm-elf/lib/thumb/interwork/libc.a(lib_a-strcmp.o)
 .debug_abbrev  0x000046d3       0x76 /vagrant/gnuarm/lib/gcc/arm-elf/4.4.2/../../../../arm-elf/lib/thumb/interwork/libc.a(lib_a-strcpy.o)
 .debug_abbrev  0x00004749       0x92 /vagrant/gnuarm/lib/gcc/arm-elf/4.4.2/../../../../arm-elf/lib/thumb/interwork/libc.a(lib_a-strlen.o)
 .debug_abbrev  0x000047db       0x94 /vagrant/gnuarm/lib/gcc/arm-elf/4.4.2/../../../../arm-elf/lib/thumb/interwork/libc.a(lib_a-strncmp.o)
 .debug_abbrev  0x0000486f       0xa3 /vagrant/gnuarm/lib/gcc/arm-elf/4.4.2/../../../../arm-elf/lib/thumb/interwork/libc.a(lib_a-strncpy.o)
 .debug_abbrev  0x00004912      0x2d6 /vagrant/gnuarm/lib/gcc/arm-elf/4.4.2/../../../../arm-elf/lib/thumb/interwork/libc.a(lib_a-svfprintf.o)
 .debug_abbrev  0x00004be8      0x3ff /vagrant/gnuarm/lib/gcc/arm-elf/4.4.2/../../../../arm-elf/lib/thumb/interwork/libc.a(lib_a-syscalls.o)
 .debug_abbrev  0x00004fe7      0x17c /vagrant/gnuarm/lib/gcc/arm-elf/4.4.2/../../../../arm-elf/lib/thumb/interwork/libc.a(lib_a-syswrite.o)
 .debug_abbrev  0x00005163      0x19f /vagrant/gnuarm/lib/gcc/arm-elf/4.4.2/../../../../arm-elf/lib/thumb/interwork/libc.a(lib_a-wbuf.o)
 .debug_abbrev  0x00005302      0x18b /vagrant/gnuarm/lib/gcc/arm-elf/4.4.2/../../../../arm-elf/lib/thumb/interwork/libc.a(lib_a-writer.o)
 .debug_abbrev  0x0000548d      0x177 /vagrant/gnuarm/lib/gcc/arm-elf/4.4.2/../../../../arm-elf/lib/thumb/interwork/libc.a(lib_a-wsetup.o)
 .debug_abbrev  0x00005604      0x239 /vagrant/gnuarm/lib/gcc/arm-elf/4.4.2/../../../../arm-elf/lib/thumb/interwork/libc.a(lib_a-dtoa.o)
 .debug_abbrev  0x0000583d      0x166 /vagrant/gnuarm/lib/gcc/arm-elf/4.4.2/../../../../arm-elf/lib/thumb/interwork/libc.a(lib_a-errno.o)
 .debug_abbrev  0x000059a3      0x1b5 /vagrant/gnuarm/lib/gcc/arm-elf/4.4.2/../../../../arm-elf/lib/thumb/interwork/libc.a(lib_a-fflush.o)
 .debug_abbrev  0x00005b58      0x24b /vagrant/gnuarm/lib/gcc/arm-elf/4.4.2/../../../../arm-elf/lib/thumb/interwork/libc.a(lib_a-findfp.o)
 .debug_abbrev  0x00005da3      0x1e0 /vagrant/gnuarm/lib/gcc/arm-elf/4.4.2/../../../../arm-elf/lib/thumb/interwork/libc.a(lib_a-freer.o)
 .debug_abbrev  0x00005f83      0x1ec /vagrant/gnuarm/lib/gcc/arm-elf/4.4.2/../../../../arm-elf/lib/thumb/interwork/libc.a(lib_a-fwalk.o)
 .debug_abbrev  0x0000616f      0x235 /vagrant/gnuarm/lib/gcc/arm-elf/4.4.2/../../../../arm-elf/lib/thumb/interwork/libc.a(lib_a-locale.o)
 .debug_abbrev  0x000063a4      0x191 /vagrant/gnuarm/lib/gcc/arm-elf/4.4.2/../../../../arm-elf/lib/thumb/interwork/libc.a(lib_a-makebuf.o)
 .debug_abbrev  0x00006535      0x32f /vagrant/gnuarm/lib/gcc/arm-elf/4.4.2/../../../../arm-elf/lib/thumb/interwork/libc.a(lib_a-mprec.o)
 .debug_abbrev  0x00006864      0x1f8 /vagrant/gnuarm/lib/gcc/arm-elf/4.4.2/../../../../arm-elf/lib/thumb/interwork/libc.a(lib_a-reent.o)
 .debug_abbrev  0x00006a5c       0xce /vagrant/gnuarm/lib/gcc/arm-elf/4.4.2/../../../../arm-elf/lib/thumb/interwork/libc.a(lib_a-s_fpclassify.o)
 .debug_abbrev  0x00006b2a      0x1ee /vagrant/gnuarm/lib/gcc/arm-elf/4.4.2/../../../../arm-elf/lib/thumb/interwork/libc.a(lib_a-stdio.o)
 .debug_abbrev  0x00006d18      0x26a /vagrant/gnuarm/lib/gcc/arm-elf/4.4.2/../../../../arm-elf/lib/thumb/interwork/libc.a(lib_a-svfiprintf.o)
 .debug_abbrev  0x00006f82      0x1bf /vagrant/gnuarm/lib/gcc/arm-elf/4.4.2/../../../../arm-elf/lib/thumb/interwork/libc.a(lib_a-callocr.o)
 .debug_abbrev  0x00007141      0x186 /vagrant/gnuarm/lib/gcc/arm-elf/4.4.2/../../../../arm-elf/lib/thumb/interwork/libc.a(lib_a-closer.o)
 .debug_abbrev  0x000072c7      0x1ae /vagrant/gnuarm/lib/gcc/arm-elf/4.4.2/../../../../arm-elf/lib/thumb/interwork/libc.a(lib_a-fclose.o)
 .debug_abbrev  0x00007475      0x195 /vagrant/gnuarm/lib/gcc/arm-elf/4.4.2/../../../../arm-elf/lib/thumb/interwork/libc.a(lib_a-fstatr.o)
 .debug_abbrev  0x0000760a      0x186 /vagrant/gnuarm/lib/gcc/arm-elf/4.4.2/../../../../arm-elf/lib/thumb/interwork/libc.a(lib_a-isattyr.o)
 .debug_abbrev  0x00007790      0x195 /vagrant/gnuarm/lib/gcc/arm-elf/4.4.2/../../../../arm-elf/lib/thumb/interwork/libc.a(lib_a-lseekr.o)
 .debug_abbrev  0x00007925      0x186 /vagrant/gnuarm/lib/gcc/arm-elf/4.4.2/../../../../arm-elf/lib/thumb/interwork/libc.a(lib_a-readr.o)
 .debug_abbrev  0x00007aab       0x14 /vagrant/gnuarm/lib/gcc/arm-elf/4.4.2/thumb/interwork/libgcc.a(_arm_fixdfsi.o)

.debug_info     0x00000000    0x28974
 .debug_info    0x00000000      0x12b /vagrant/gnuarm/lib/gcc/arm-elf/4.4.2/../../../../arm-elf/lib/thumb/interwork/libstdc++.a(pure.o)
 .debug_info    0x0000012b     0x164f /vagrant/gnuarm/lib/gcc/arm-elf/4.4.2/../../../../arm-elf/lib/thumb/interwork/libstdc++.a(eh_personality.o)
 .debug_info    0x0000177a      0x634 /vagrant/gnuarm/lib/gcc/arm-elf/4.4.2/../../../../arm-elf/lib/thumb/interwork/libstdc++.a(eh_terminate.o)
 .debug_info    0x00001dae      0x525 /vagrant/gnuarm/lib/gcc/arm-elf/4.4.2/../../../../arm-elf/lib/thumb/interwork/libstdc++.a(eh_throw.o)
 .debug_info    0x000022d3      0x102 /vagrant/gnuarm/lib/gcc/arm-elf/4.4.2/../../../../arm-elf/lib/thumb/interwork/libstdc++.a(eh_unex_handler.o)
 .debug_info    0x000023d5      0xce9 /vagrant/gnuarm/lib/gcc/arm-elf/4.4.2/../../../../arm-elf/lib/thumb/interwork/libstdc++.a(eh_alloc.o)
 .debug_info    0x000030be      0x6e3 /vagrant/gnuarm/lib/gcc/arm-elf/4.4.2/../../../../arm-elf/lib/thumb/interwork/libstdc++.a(eh_call.o)
 .debug_info    0x000037a1      0x8b1 /vagrant/gnuarm/lib/gcc/arm-elf/4.4.2/../../../../arm-elf/lib/thumb/interwork/libstdc++.a(eh_catch.o)
 .debug_info    0x00004052      0x512 /vagrant/gnuarm/lib/gcc/arm-elf/4.4.2/../../../../arm-elf/lib/thumb/interwork/libstdc++.a(eh_exception.o)
 .debug_info    0x00004564      0x6d9 /vagrant/gnuarm/lib/gcc/arm-elf/4.4.2/../../../../arm-elf/lib/thumb/interwork/libstdc++.a(eh_globals.o)
 .debug_info    0x00004c3d      0x102 /vagrant/gnuarm/lib/gcc/arm-elf/4.4.2/../../../../arm-elf/lib/thumb/interwork/libstdc++.a(eh_term_handler.o)
 .debug_info    0x00004d3f      0x69c /vagrant/gnuarm/lib/gcc/arm-elf/4.4.2/../../../../arm-elf/lib/thumb/interwork/libstdc++.a(si_class_type_info.o)
 .debug_info    0x000053db      0x467 /vagrant/gnuarm/lib/gcc/arm-elf/4.4.2/../../../../arm-elf/lib/thumb/interwork/libstdc++.a(tinfo.o)
 .debug_info    0x00005842     0x119e /vagrant/gnuarm/lib/gcc/arm-elf/4.4.2/../../../../arm-elf/lib/thumb/interwork/libstdc++.a(vterminate.o)
 .debug_info    0x000069e0      0x7bd /vagrant/gnuarm/lib/gcc/arm-elf/4.4.2/../../../../arm-elf/lib/thumb/interwork/libstdc++.a(class_type_info.o)
 .debug_info    0x0000719d     0x3588 /vagrant/gnuarm/lib/gcc/arm-elf/4.4.2/../../../../arm-elf/lib/thumb/interwork/libstdc++.a(cp-demangle.o)
 .debug_info    0x0000a725      0x494 /vagrant/gnuarm/lib/gcc/arm-elf/4.4.2/../../../../arm-elf/lib/thumb/interwork/libstdc++.a(eh_type.o)
 .debug_info    0x0000abb9       0x9e /vagrant/gnuarm/lib/gcc/arm-elf/4.4.2/thumb/interwork/libgcc.a(_udivsi3.o)
 .debug_info    0x0000ac57       0x9e /vagrant/gnuarm/lib/gcc/arm-elf/4.4.2/thumb/interwork/libgcc.a(_divsi3.o)
 .debug_info    0x0000acf5       0x9e /vagrant/gnuarm/lib/gcc/arm-elf/4.4.2/thumb/interwork/libgcc.a(_umodsi3.o)
 .debug_info    0x0000ad93       0x9e /vagrant/gnuarm/lib/gcc/arm-elf/4.4.2/thumb/interwork/libgcc.a(_modsi3.o)
 .debug_info    0x0000ae31       0x9e /vagrant/gnuarm/lib/gcc/arm-elf/4.4.2/thumb/interwork/libgcc.a(_dvmd_tls.o)
 .debug_info    0x0000aecf       0x9d /vagrant/gnuarm/lib/gcc/arm-elf/4.4.2/thumb/interwork/libgcc.a(_arm_addsubdf3.o)
 .debug_info    0x0000af6c       0x9d /vagrant/gnuarm/lib/gcc/arm-elf/4.4.2/thumb/interwork/libgcc.a(_arm_muldivdf3.o)
 .debug_info    0x0000b009       0x9d /vagrant/gnuarm/lib/gcc/arm-elf/4.4.2/thumb/interwork/libgcc.a(_arm_cmpdf2.o)
 .debug_info    0x0000b0a6      0x20e /vagrant/gnuarm/lib/gcc/arm-elf/4.4.2/thumb/interwork/libgcc.a(_muldi3.o)
 .debug_info    0x0000b2b4      0x669 /vagrant/gnuarm/lib/gcc/arm-elf/4.4.2/thumb/interwork/libgcc.a(_divdi3.o)
 .debug_info    0x0000b91d      0x9d8 /vagrant/gnuarm/lib/gcc/arm-elf/4.4.2/thumb/interwork/libgcc.a(unwind-sjlj.o)
 .debug_info    0x0000c2f5       0x9e /vagrant/gnuarm/lib/gcc/arm-elf/4.4.2/thumb/interwork/libgcc.a(_clzsi2.o)
 .debug_info    0x0000c393       0x87 /vagrant/gnuarm/lib/gcc/arm-elf/4.4.2/../../../../arm-elf/lib/thumb/interwork/libc.a(lib_a-abort.o)
 .debug_info    0x0000c41a      0x9e6 /vagrant/gnuarm/lib/gcc/arm-elf/4.4.2/../../../../arm-elf/lib/thumb/interwork/libc.a(lib_a-fputc.o)
 .debug_info    0x0000ce00      0xa69 /vagrant/gnuarm/lib/gcc/arm-elf/4.4.2/../../../../arm-elf/lib/thumb/interwork/libc.a(lib_a-fputs.o)
 .debug_info    0x0000d869      0xaa6 /vagrant/gnuarm/lib/gcc/arm-elf/4.4.2/../../../../arm-elf/lib/thumb/interwork/libc.a(lib_a-fvwrite.o)
 .debug_info    0x0000e30f      0xaa9 /vagrant/gnuarm/lib/gcc/arm-elf/4.4.2/../../../../arm-elf/lib/thumb/interwork/libc.a(lib_a-fwrite.o)
 .debug_info    0x0000edb8      0x963 /vagrant/gnuarm/lib/gcc/arm-elf/4.4.2/../../../../arm-elf/lib/thumb/interwork/libc.a(lib_a-impure.o)
 .debug_info    0x0000f71b      0x996 /vagrant/gnuarm/lib/gcc/arm-elf/4.4.2/../../../../arm-elf/lib/thumb/interwork/libc.a(lib_a-malloc.o)
 .debug_info    0x000100b1      0xcf7 /vagrant/gnuarm/lib/gcc/arm-elf/4.4.2/../../../../arm-elf/lib/thumb/interwork/libc.a(lib_a-mallocr.o)
 .debug_info    0x00010da8      0x121 /vagrant/gnuarm/lib/gcc/arm-elf/4.4.2/../../../../arm-elf/lib/thumb/interwork/libc.a(lib_a-memchr.o)
 .debug_info    0x00010ec9      0x10f /vagrant/gnuarm/lib/gcc/arm-elf/4.4.2/../../../../arm-elf/lib/thumb/interwork/libc.a(lib_a-memcmp.o)
 .debug_info    0x00010fd8      0x13e /vagrant/gnuarm/lib/gcc/arm-elf/4.4.2/../../../../arm-elf/lib/thumb/interwork/libc.a(lib_a-memcpy.o)
 .debug_info    0x00011116      0x13e /vagrant/gnuarm/lib/gcc/arm-elf/4.4.2/../../../../arm-elf/lib/thumb/interwork/libc.a(lib_a-memmove.o)
 .debug_info    0x00011254      0x111 /vagrant/gnuarm/lib/gcc/arm-elf/4.4.2/../../../../arm-elf/lib/thumb/interwork/libc.a(lib_a-memset.o)
 .debug_info    0x00011365      0x97b /vagrant/gnuarm/lib/gcc/arm-elf/4.4.2/../../../../arm-elf/lib/thumb/interwork/libc.a(lib_a-mlock.o)
 .debug_info    0x00011ce0      0x9e6 /vagrant/gnuarm/lib/gcc/arm-elf/4.4.2/../../../../arm-elf/lib/thumb/interwork/libc.a(lib_a-putc.o)
 .debug_info    0x000126c6      0x97b /vagrant/gnuarm/lib/gcc/arm-elf/4.4.2/../../../../arm-elf/lib/thumb/interwork/libc.a(lib_a-realloc.o)
 .debug_info    0x00013041      0xbdb /vagrant/gnuarm/lib/gcc/arm-elf/4.4.2/../../../../arm-elf/lib/thumb/interwork/libc.a(lib_a-reallocr.o)
 .debug_info    0x00013c1c      0xb15 /vagrant/gnuarm/lib/gcc/arm-elf/4.4.2/../../../../arm-elf/lib/thumb/interwork/libc.a(lib_a-signal.o)
 .debug_info    0x00014731      0x9c8 /vagrant/gnuarm/lib/gcc/arm-elf/4.4.2/../../../../arm-elf/lib/thumb/interwork/libc.a(lib_a-signalr.o)
 .debug_info    0x000150f9      0xa3f /vagrant/gnuarm/lib/gcc/arm-elf/4.4.2/../../../../arm-elf/lib/thumb/interwork/libc.a(lib_a-sprintf.o)
 .debug_info    0x00015b38       0xaf /vagrant/gnuarm/lib/gcc/arm-elf/4.4.2/../../../../arm-elf/lib/thumb/interwork/libc.a(lib_a-strcmp.o)
 .debug_info    0x00015be7       0xb7 /vagrant/gnuarm/lib/gcc/arm-elf/4.4.2/../../../../arm-elf/lib/thumb/interwork/libc.a(lib_a-strcpy.o)
 .debug_info    0x00015c9e       0xcb /vagrant/gnuarm/lib/gcc/arm-elf/4.4.2/../../../../arm-elf/lib/thumb/interwork/libc.a(lib_a-strlen.o)
 .debug_info    0x00015d69       0xef /vagrant/gnuarm/lib/gcc/arm-elf/4.4.2/../../../../arm-elf/lib/thumb/interwork/libc.a(lib_a-strncmp.o)
 .debug_info    0x00015e58      0x124 /vagrant/gnuarm/lib/gcc/arm-elf/4.4.2/../../../../arm-elf/lib/thumb/interwork/libc.a(lib_a-strncpy.o)
 .debug_info    0x00015f7c      0xf4d /vagrant/gnuarm/lib/gcc/arm-elf/4.4.2/../../../../arm-elf/lib/thumb/interwork/libc.a(lib_a-svfprintf.o)
 .debug_info    0x00016ec9     0x194c /vagrant/gnuarm/lib/gcc/arm-elf/4.4.2/../../../../arm-elf/lib/thumb/interwork/libc.a(lib_a-syscalls.o)
 .debug_info    0x00018815      0x991 /vagrant/gnuarm/lib/gcc/arm-elf/4.4.2/../../../../arm-elf/lib/thumb/interwork/libc.a(lib_a-syswrite.o)
 .debug_info    0x000191a6      0x9d5 /vagrant/gnuarm/lib/gcc/arm-elf/4.4.2/../../../../arm-elf/lib/thumb/interwork/libc.a(lib_a-wbuf.o)
 .debug_info    0x00019b7b      0x9b9 /vagrant/gnuarm/lib/gcc/arm-elf/4.4.2/../../../../arm-elf/lib/thumb/interwork/libc.a(lib_a-writer.o)
 .debug_info    0x0001a534      0x981 /vagrant/gnuarm/lib/gcc/arm-elf/4.4.2/../../../../arm-elf/lib/thumb/interwork/libc.a(lib_a-wsetup.o)
 .debug_info    0x0001aeb5      0xd8f /vagrant/gnuarm/lib/gcc/arm-elf/4.4.2/../../../../arm-elf/lib/thumb/interwork/libc.a(lib_a-dtoa.o)
 .debug_info    0x0001bc44      0x952 /vagrant/gnuarm/lib/gcc/arm-elf/4.4.2/../../../../arm-elf/lib/thumb/interwork/libc.a(lib_a-errno.o)
 .debug_info    0x0001c596      0xa21 /vagrant/gnuarm/lib/gcc/arm-elf/4.4.2/../../../../arm-elf/lib/thumb/interwork/libc.a(lib_a-fflush.o)
 .debug_info    0x0001cfb7      0xbc3 /vagrant/gnuarm/lib/gcc/arm-elf/4.4.2/../../../../arm-elf/lib/thumb/interwork/libc.a(lib_a-findfp.o)
 .debug_info    0x0001db7a      0xbed /vagrant/gnuarm/lib/gcc/arm-elf/4.4.2/../../../../arm-elf/lib/thumb/interwork/libc.a(lib_a-freer.o)
 .debug_info    0x0001e767      0xb19 /vagrant/gnuarm/lib/gcc/arm-elf/4.4.2/../../../../arm-elf/lib/thumb/interwork/libc.a(lib_a-fwalk.o)
 .debug_info    0x0001f280      0xc5f /vagrant/gnuarm/lib/gcc/arm-elf/4.4.2/../../../../arm-elf/lib/thumb/interwork/libc.a(lib_a-locale.o)
 .debug_info    0x0001fedf      0xb42 /vagrant/gnuarm/lib/gcc/arm-elf/4.4.2/../../../../arm-elf/lib/thumb/interwork/libc.a(lib_a-makebuf.o)
 .debug_info    0x00020a21     0x153f /vagrant/gnuarm/lib/gcc/arm-elf/4.4.2/../../../../arm-elf/lib/thumb/interwork/libc.a(lib_a-mprec.o)
 .debug_info    0x00021f60      0xa4b /vagrant/gnuarm/lib/gcc/arm-elf/4.4.2/../../../../arm-elf/lib/thumb/interwork/libc.a(lib_a-reent.o)
 .debug_info    0x000229ab      0x146 /vagrant/gnuarm/lib/gcc/arm-elf/4.4.2/../../../../arm-elf/lib/thumb/interwork/libc.a(lib_a-s_fpclassify.o)
 .debug_info    0x00022af1      0xb28 /vagrant/gnuarm/lib/gcc/arm-elf/4.4.2/../../../../arm-elf/lib/thumb/interwork/libc.a(lib_a-stdio.o)
 .debug_info    0x00023619      0xd4d /vagrant/gnuarm/lib/gcc/arm-elf/4.4.2/../../../../arm-elf/lib/thumb/interwork/libc.a(lib_a-svfiprintf.o)
 .debug_info    0x00024366      0xa3f /vagrant/gnuarm/lib/gcc/arm-elf/4.4.2/../../../../arm-elf/lib/thumb/interwork/libc.a(lib_a-callocr.o)
 .debug_info    0x00024da5      0x97e /vagrant/gnuarm/lib/gcc/arm-elf/4.4.2/../../../../arm-elf/lib/thumb/interwork/libc.a(lib_a-closer.o)
 .debug_info    0x00025723      0x9bb /vagrant/gnuarm/lib/gcc/arm-elf/4.4.2/../../../../arm-elf/lib/thumb/interwork/libc.a(lib_a-fclose.o)
 .debug_info    0x000260de      0xb22 /vagrant/gnuarm/lib/gcc/arm-elf/4.4.2/../../../../arm-elf/lib/thumb/interwork/libc.a(lib_a-fstatr.o)
 .debug_info    0x00026c00      0x97e /vagrant/gnuarm/lib/gcc/arm-elf/4.4.2/../../../../arm-elf/lib/thumb/interwork/libc.a(lib_a-isattyr.o)
 .debug_info    0x0002757e      0x9a7 /vagrant/gnuarm/lib/gcc/arm-elf/4.4.2/../../../../arm-elf/lib/thumb/interwork/libc.a(lib_a-lseekr.o)
 .debug_info    0x00027f25      0x9b2 /vagrant/gnuarm/lib/gcc/arm-elf/4.4.2/../../../../arm-elf/lib/thumb/interwork/libc.a(lib_a-readr.o)
 .debug_info    0x000288d7       0x9d /vagrant/gnuarm/lib/gcc/arm-elf/4.4.2/thumb/interwork/libgcc.a(_arm_fixdfsi.o)

.debug_line     0x00000000     0x82e9
 .debug_line    0x00000000      0x115 /vagrant/gnuarm/lib/gcc/arm-elf/4.4.2/../../../../arm-elf/lib/thumb/interwork/libstdc++.a(pure.o)
 .debug_line    0x00000115      0x4cb /vagrant/gnuarm/lib/gcc/arm-elf/4.4.2/../../../../arm-elf/lib/thumb/interwork/libstdc++.a(eh_personality.o)
 .debug_line    0x000005e0      0x1bd /vagrant/gnuarm/lib/gcc/arm-elf/4.4.2/../../../../arm-elf/lib/thumb/interwork/libstdc++.a(eh_terminate.o)
 .debug_line    0x0000079d      0x1db /vagrant/gnuarm/lib/gcc/arm-elf/4.4.2/../../../../arm-elf/lib/thumb/interwork/libstdc++.a(eh_throw.o)
 .debug_line    0x00000978      0x110 /vagrant/gnuarm/lib/gcc/arm-elf/4.4.2/../../../../arm-elf/lib/thumb/interwork/libstdc++.a(eh_unex_handler.o)
 .debug_line    0x00000a88      0x2c5 /vagrant/gnuarm/lib/gcc/arm-elf/4.4.2/../../../../arm-elf/lib/thumb/interwork/libstdc++.a(eh_alloc.o)
 .debug_line    0x00000d4d      0x165 /vagrant/gnuarm/lib/gcc/arm-elf/4.4.2/../../../../arm-elf/lib/thumb/interwork/libstdc++.a(eh_call.o)
 .debug_line    0x00000eb2      0x1e5 /vagrant/gnuarm/lib/gcc/arm-elf/4.4.2/../../../../arm-elf/lib/thumb/interwork/libstdc++.a(eh_catch.o)
 .debug_line    0x00001097      0x17f /vagrant/gnuarm/lib/gcc/arm-elf/4.4.2/../../../../arm-elf/lib/thumb/interwork/libstdc++.a(eh_exception.o)
 .debug_line    0x00001216      0x17c /vagrant/gnuarm/lib/gcc/arm-elf/4.4.2/../../../../arm-elf/lib/thumb/interwork/libstdc++.a(eh_globals.o)
 .debug_line    0x00001392      0x110 /vagrant/gnuarm/lib/gcc/arm-elf/4.4.2/../../../../arm-elf/lib/thumb/interwork/libstdc++.a(eh_term_handler.o)
 .debug_line    0x000014a2      0x1a9 /vagrant/gnuarm/lib/gcc/arm-elf/4.4.2/../../../../arm-elf/lib/thumb/interwork/libstdc++.a(si_class_type_info.o)
 .debug_line    0x0000164b      0x153 /vagrant/gnuarm/lib/gcc/arm-elf/4.4.2/../../../../arm-elf/lib/thumb/interwork/libstdc++.a(tinfo.o)
 .debug_line    0x0000179e      0x1ed /vagrant/gnuarm/lib/gcc/arm-elf/4.4.2/../../../../arm-elf/lib/thumb/interwork/libstdc++.a(vterminate.o)
 .debug_line    0x0000198b      0x1e3 /vagrant/gnuarm/lib/gcc/arm-elf/4.4.2/../../../../arm-elf/lib/thumb/interwork/libstdc++.a(class_type_info.o)
 .debug_line    0x00001b6e      0xe76 /vagrant/gnuarm/lib/gcc/arm-elf/4.4.2/../../../../arm-elf/lib/thumb/interwork/libstdc++.a(cp-demangle.o)
 .debug_line    0x000029e4      0x135 /vagrant/gnuarm/lib/gcc/arm-elf/4.4.2/../../../../arm-elf/lib/thumb/interwork/libstdc++.a(eh_type.o)
 .debug_line    0x00002b19       0x84 /vagrant/gnuarm/lib/gcc/arm-elf/4.4.2/thumb/interwork/libgcc.a(_udivsi3.o)
 .debug_line    0x00002b9d       0x90 /vagrant/gnuarm/lib/gcc/arm-elf/4.4.2/thumb/interwork/libgcc.a(_divsi3.o)
 .debug_line    0x00002c2d       0x7c /vagrant/gnuarm/lib/gcc/arm-elf/4.4.2/thumb/interwork/libgcc.a(_umodsi3.o)
 .debug_line    0x00002ca9       0x85 /vagrant/gnuarm/lib/gcc/arm-elf/4.4.2/thumb/interwork/libgcc.a(_modsi3.o)
 .debug_line    0x00002d2e       0x6e /vagrant/gnuarm/lib/gcc/arm-elf/4.4.2/thumb/interwork/libgcc.a(_dvmd_tls.o)
 .debug_line    0x00002d9c      0x176 /vagrant/gnuarm/lib/gcc/arm-elf/4.4.2/thumb/interwork/libgcc.a(_arm_addsubdf3.o)
 .debug_line    0x00002f12      0x18b /vagrant/gnuarm/lib/gcc/arm-elf/4.4.2/thumb/interwork/libgcc.a(_arm_muldivdf3.o)
 .debug_line    0x0000309d       0xb8 /vagrant/gnuarm/lib/gcc/arm-elf/4.4.2/thumb/interwork/libgcc.a(_arm_cmpdf2.o)
 .debug_line    0x00003155       0x79 /vagrant/gnuarm/lib/gcc/arm-elf/4.4.2/thumb/interwork/libgcc.a(_muldi3.o)
 .debug_line    0x000031ce       0xda /vagrant/gnuarm/lib/gcc/arm-elf/4.4.2/thumb/interwork/libgcc.a(_divdi3.o)
 .debug_line    0x000032a8      0x1d0 /vagrant/gnuarm/lib/gcc/arm-elf/4.4.2/thumb/interwork/libgcc.a(unwind-sjlj.o)
 .debug_line    0x00003478       0x7b /vagrant/gnuarm/lib/gcc/arm-elf/4.4.2/thumb/interwork/libgcc.a(_clzsi2.o)
 .debug_line    0x000034f3       0xa2 /vagrant/gnuarm/lib/gcc/arm-elf/4.4.2/../../../../arm-elf/lib/thumb/interwork/libc.a(lib_a-abort.o)
 .debug_line    0x00003595      0x13b /vagrant/gnuarm/lib/gcc/arm-elf/4.4.2/../../../../arm-elf/lib/thumb/interwork/libc.a(lib_a-fputc.o)
 .debug_line    0x000036d0      0x154 /vagrant/gnuarm/lib/gcc/arm-elf/4.4.2/../../../../arm-elf/lib/thumb/interwork/libc.a(lib_a-fputs.o)
 .debug_line    0x00003824      0x213 /vagrant/gnuarm/lib/gcc/arm-elf/4.4.2/../../../../arm-elf/lib/thumb/interwork/libc.a(lib_a-fvwrite.o)
 .debug_line    0x00003a37      0x157 /vagrant/gnuarm/lib/gcc/arm-elf/4.4.2/../../../../arm-elf/lib/thumb/interwork/libc.a(lib_a-fwrite.o)
 .debug_line    0x00003b8e       0xe4 /vagrant/gnuarm/lib/gcc/arm-elf/4.4.2/../../../../arm-elf/lib/thumb/interwork/libc.a(lib_a-impure.o)
 .debug_line    0x00003c72      0x13b /vagrant/gnuarm/lib/gcc/arm-elf/4.4.2/../../../../arm-elf/lib/thumb/interwork/libc.a(lib_a-malloc.o)
 .debug_line    0x00003dad      0x255 /vagrant/gnuarm/lib/gcc/arm-elf/4.4.2/../../../../arm-elf/lib/thumb/interwork/libc.a(lib_a-mallocr.o)
 .debug_line    0x00004002      0x102 /vagrant/gnuarm/lib/gcc/arm-elf/4.4.2/../../../../arm-elf/lib/thumb/interwork/libc.a(lib_a-memchr.o)
 .debug_line    0x00004104       0xf8 /vagrant/gnuarm/lib/gcc/arm-elf/4.4.2/../../../../arm-elf/lib/thumb/interwork/libc.a(lib_a-memcmp.o)
 .debug_line    0x000041fc      0x123 /vagrant/gnuarm/lib/gcc/arm-elf/4.4.2/../../../../arm-elf/lib/thumb/interwork/libc.a(lib_a-memcpy.o)
 .debug_line    0x0000431f      0x131 /vagrant/gnuarm/lib/gcc/arm-elf/4.4.2/../../../../arm-elf/lib/thumb/interwork/libc.a(lib_a-memmove.o)
 .debug_line    0x00004450      0x11e /vagrant/gnuarm/lib/gcc/arm-elf/4.4.2/../../../../arm-elf/lib/thumb/interwork/libc.a(lib_a-memset.o)
 .debug_line    0x0000456e       0xf6 /vagrant/gnuarm/lib/gcc/arm-elf/4.4.2/../../../../arm-elf/lib/thumb/interwork/libc.a(lib_a-mlock.o)
 .debug_line    0x00004664      0x142 /vagrant/gnuarm/lib/gcc/arm-elf/4.4.2/../../../../arm-elf/lib/thumb/interwork/libc.a(lib_a-putc.o)
 .debug_line    0x000047a6      0x135 /vagrant/gnuarm/lib/gcc/arm-elf/4.4.2/../../../../arm-elf/lib/thumb/interwork/libc.a(lib_a-realloc.o)
 .debug_line    0x000048db      0x194 /vagrant/gnuarm/lib/gcc/arm-elf/4.4.2/../../../../arm-elf/lib/thumb/interwork/libc.a(lib_a-reallocr.o)
 .debug_line    0x00004a6f      0x1aa /vagrant/gnuarm/lib/gcc/arm-elf/4.4.2/../../../../arm-elf/lib/thumb/interwork/libc.a(lib_a-signal.o)
 .debug_line    0x00004c19      0x13b /vagrant/gnuarm/lib/gcc/arm-elf/4.4.2/../../../../arm-elf/lib/thumb/interwork/libc.a(lib_a-signalr.o)
 .debug_line    0x00004d54      0x16c /vagrant/gnuarm/lib/gcc/arm-elf/4.4.2/../../../../arm-elf/lib/thumb/interwork/libc.a(lib_a-sprintf.o)
 .debug_line    0x00004ec0       0xa7 /vagrant/gnuarm/lib/gcc/arm-elf/4.4.2/../../../../arm-elf/lib/thumb/interwork/libc.a(lib_a-strcmp.o)
 .debug_line    0x00004f67       0xa7 /vagrant/gnuarm/lib/gcc/arm-elf/4.4.2/../../../../arm-elf/lib/thumb/interwork/libc.a(lib_a-strcpy.o)
 .debug_line    0x0000500e       0xe4 /vagrant/gnuarm/lib/gcc/arm-elf/4.4.2/../../../../arm-elf/lib/thumb/interwork/libc.a(lib_a-strlen.o)
 .debug_line    0x000050f2      0x107 /vagrant/gnuarm/lib/gcc/arm-elf/4.4.2/../../../../arm-elf/lib/thumb/interwork/libc.a(lib_a-strncmp.o)
 .debug_line    0x000051f9       0xf8 /vagrant/gnuarm/lib/gcc/arm-elf/4.4.2/../../../../arm-elf/lib/thumb/interwork/libc.a(lib_a-strncpy.o)
 .debug_line    0x000052f1      0x4cf /vagrant/gnuarm/lib/gcc/arm-elf/4.4.2/../../../../arm-elf/lib/thumb/interwork/libc.a(lib_a-svfprintf.o)
 .debug_line    0x000057c0      0x389 /vagrant/gnuarm/lib/gcc/arm-elf/4.4.2/../../../../arm-elf/lib/thumb/interwork/libc.a(lib_a-syscalls.o)
 .debug_line    0x00005b49      0x109 /vagrant/gnuarm/lib/gcc/arm-elf/4.4.2/../../../../arm-elf/lib/thumb/interwork/libc.a(lib_a-syswrite.o)
 .debug_line    0x00005c52      0x161 /vagrant/gnuarm/lib/gcc/arm-elf/4.4.2/../../../../arm-elf/lib/thumb/interwork/libc.a(lib_a-wbuf.o)
 .debug_line    0x00005db3      0x134 /vagrant/gnuarm/lib/gcc/arm-elf/4.4.2/../../../../arm-elf/lib/thumb/interwork/libc.a(lib_a-writer.o)
 .debug_line    0x00005ee7      0x159 /vagrant/gnuarm/lib/gcc/arm-elf/4.4.2/../../../../arm-elf/lib/thumb/interwork/libc.a(lib_a-wsetup.o)
 .debug_line    0x00006040      0x491 /vagrant/gnuarm/lib/gcc/arm-elf/4.4.2/../../../../arm-elf/lib/thumb/interwork/libc.a(lib_a-dtoa.o)
 .debug_line    0x000064d1      0x101 /vagrant/gnuarm/lib/gcc/arm-elf/4.4.2/../../../../arm-elf/lib/thumb/interwork/libc.a(lib_a-errno.o)
 .debug_line    0x000065d2      0x19f /vagrant/gnuarm/lib/gcc/arm-elf/4.4.2/../../../../arm-elf/lib/thumb/interwork/libc.a(lib_a-fflush.o)
 .debug_line    0x00006771      0x1bb /vagrant/gnuarm/lib/gcc/arm-elf/4.4.2/../../../../arm-elf/lib/thumb/interwork/libc.a(lib_a-findfp.o)
 .debug_line    0x0000692c      0x169 /vagrant/gnuarm/lib/gcc/arm-elf/4.4.2/../../../../arm-elf/lib/thumb/interwork/libc.a(lib_a-freer.o)
 .debug_line    0x00006a95      0x154 /vagrant/gnuarm/lib/gcc/arm-elf/4.4.2/../../../../arm-elf/lib/thumb/interwork/libc.a(lib_a-fwalk.o)
 .debug_line    0x00006be9      0x163 /vagrant/gnuarm/lib/gcc/arm-elf/4.4.2/../../../../arm-elf/lib/thumb/interwork/libc.a(lib_a-locale.o)
 .debug_line    0x00006d4c      0x17f /vagrant/gnuarm/lib/gcc/arm-elf/4.4.2/../../../../arm-elf/lib/thumb/interwork/libc.a(lib_a-makebuf.o)
 .debug_line    0x00006ecb      0x421 /vagrant/gnuarm/lib/gcc/arm-elf/4.4.2/../../../../arm-elf/lib/thumb/interwork/libc.a(lib_a-mprec.o)
 .debug_line    0x000072ec      0x12f /vagrant/gnuarm/lib/gcc/arm-elf/4.4.2/../../../../arm-elf/lib/thumb/interwork/libc.a(lib_a-reent.o)
 .debug_line    0x0000741b      0x10a /vagrant/gnuarm/lib/gcc/arm-elf/4.4.2/../../../../arm-elf/lib/thumb/interwork/libc.a(lib_a-s_fpclassify.o)
 .debug_line    0x00007525      0x15a /vagrant/gnuarm/lib/gcc/arm-elf/4.4.2/../../../../arm-elf/lib/thumb/interwork/libc.a(lib_a-stdio.o)
 .debug_line    0x0000767f      0x378 /vagrant/gnuarm/lib/gcc/arm-elf/4.4.2/../../../../arm-elf/lib/thumb/interwork/libc.a(lib_a-svfiprintf.o)
 .debug_line    0x000079f7      0x100 /vagrant/gnuarm/lib/gcc/arm-elf/4.4.2/../../../../arm-elf/lib/thumb/interwork/libc.a(lib_a-callocr.o)
 .debug_line    0x00007af7      0x134 /vagrant/gnuarm/lib/gcc/arm-elf/4.4.2/../../../../arm-elf/lib/thumb/interwork/libc.a(lib_a-closer.o)
 .debug_line    0x00007c2b      0x156 /vagrant/gnuarm/lib/gcc/arm-elf/4.4.2/../../../../arm-elf/lib/thumb/interwork/libc.a(lib_a-fclose.o)
 .debug_line    0x00007d81      0x149 /vagrant/gnuarm/lib/gcc/arm-elf/4.4.2/../../../../arm-elf/lib/thumb/interwork/libc.a(lib_a-fstatr.o)
 .debug_line    0x00007eca      0x135 /vagrant/gnuarm/lib/gcc/arm-elf/4.4.2/../../../../arm-elf/lib/thumb/interwork/libc.a(lib_a-isattyr.o)
 .debug_line    0x00007fff      0x134 /vagrant/gnuarm/lib/gcc/arm-elf/4.4.2/../../../../arm-elf/lib/thumb/interwork/libc.a(lib_a-lseekr.o)
 .debug_line    0x00008133      0x133 /vagrant/gnuarm/lib/gcc/arm-elf/4.4.2/../../../../arm-elf/lib/thumb/interwork/libc.a(lib_a-readr.o)
 .debug_line    0x00008266       0x83 /vagrant/gnuarm/lib/gcc/arm-elf/4.4.2/thumb/interwork/libgcc.a(_arm_fixdfsi.o)

.debug_loc      0x00000000    0x10949
 .debug_loc     0x00000000       0x1f /vagrant/gnuarm/lib/gcc/arm-elf/4.4.2/../../../../arm-elf/lib/thumb/interwork/libstdc++.a(pure.o)
 .debug_loc     0x0000001f      0xe24 /vagrant/gnuarm/lib/gcc/arm-elf/4.4.2/../../../../arm-elf/lib/thumb/interwork/libstdc++.a(eh_personality.o)
 .debug_loc     0x00000e43       0xe2 /vagrant/gnuarm/lib/gcc/arm-elf/4.4.2/../../../../arm-elf/lib/thumb/interwork/libstdc++.a(eh_terminate.o)
 .debug_loc     0x00000f25      0x160 /vagrant/gnuarm/lib/gcc/arm-elf/4.4.2/../../../../arm-elf/lib/thumb/interwork/libstdc++.a(eh_throw.o)
 .debug_loc     0x00001085      0x22c /vagrant/gnuarm/lib/gcc/arm-elf/4.4.2/../../../../arm-elf/lib/thumb/interwork/libstdc++.a(eh_alloc.o)
 .debug_loc     0x000012b1       0x3d /vagrant/gnuarm/lib/gcc/arm-elf/4.4.2/../../../../arm-elf/lib/thumb/interwork/libstdc++.a(eh_call.o)
 .debug_loc     0x000012ee      0x19b /vagrant/gnuarm/lib/gcc/arm-elf/4.4.2/../../../../arm-elf/lib/thumb/interwork/libstdc++.a(eh_catch.o)
 .debug_loc     0x00001489       0xee /vagrant/gnuarm/lib/gcc/arm-elf/4.4.2/../../../../arm-elf/lib/thumb/interwork/libstdc++.a(eh_exception.o)
 .debug_loc     0x00001577      0x411 /vagrant/gnuarm/lib/gcc/arm-elf/4.4.2/../../../../arm-elf/lib/thumb/interwork/libstdc++.a(si_class_type_info.o)
 .debug_loc     0x00001988       0x7e /vagrant/gnuarm/lib/gcc/arm-elf/4.4.2/../../../../arm-elf/lib/thumb/interwork/libstdc++.a(tinfo.o)
 .debug_loc     0x00001a06       0xc1 /vagrant/gnuarm/lib/gcc/arm-elf/4.4.2/../../../../arm-elf/lib/thumb/interwork/libstdc++.a(vterminate.o)
 .debug_loc     0x00001ac7      0x351 /vagrant/gnuarm/lib/gcc/arm-elf/4.4.2/../../../../arm-elf/lib/thumb/interwork/libstdc++.a(class_type_info.o)
 .debug_loc     0x00001e18     0x3ae0 /vagrant/gnuarm/lib/gcc/arm-elf/4.4.2/../../../../arm-elf/lib/thumb/interwork/libstdc++.a(cp-demangle.o)
 .debug_loc     0x000058f8       0x5b /vagrant/gnuarm/lib/gcc/arm-elf/4.4.2/../../../../arm-elf/lib/thumb/interwork/libstdc++.a(eh_type.o)
 .debug_loc     0x00005953      0x156 /vagrant/gnuarm/lib/gcc/arm-elf/4.4.2/thumb/interwork/libgcc.a(_muldi3.o)
 .debug_loc     0x00005aa9      0x800 /vagrant/gnuarm/lib/gcc/arm-elf/4.4.2/thumb/interwork/libgcc.a(_divdi3.o)
 .debug_loc     0x000062a9      0x7c3 /vagrant/gnuarm/lib/gcc/arm-elf/4.4.2/thumb/interwork/libgcc.a(unwind-sjlj.o)
 .debug_loc     0x00006a6c       0x1f /vagrant/gnuarm/lib/gcc/arm-elf/4.4.2/../../../../arm-elf/lib/thumb/interwork/libc.a(lib_a-abort.o)
 .debug_loc     0x00006a8b       0xd4 /vagrant/gnuarm/lib/gcc/arm-elf/4.4.2/../../../../arm-elf/lib/thumb/interwork/libc.a(lib_a-fputc.o)
 .debug_loc     0x00006b5f       0xeb /vagrant/gnuarm/lib/gcc/arm-elf/4.4.2/../../../../arm-elf/lib/thumb/interwork/libc.a(lib_a-fputs.o)
 .debug_loc     0x00006c4a      0x2ef /vagrant/gnuarm/lib/gcc/arm-elf/4.4.2/../../../../arm-elf/lib/thumb/interwork/libc.a(lib_a-fvwrite.o)
 .debug_loc     0x00006f39      0x1c7 /vagrant/gnuarm/lib/gcc/arm-elf/4.4.2/../../../../arm-elf/lib/thumb/interwork/libc.a(lib_a-fwrite.o)
 .debug_loc     0x00007100       0x7a /vagrant/gnuarm/lib/gcc/arm-elf/4.4.2/../../../../arm-elf/lib/thumb/interwork/libc.a(lib_a-malloc.o)
 .debug_loc     0x0000717a      0x7ee /vagrant/gnuarm/lib/gcc/arm-elf/4.4.2/../../../../arm-elf/lib/thumb/interwork/libc.a(lib_a-mallocr.o)
 .debug_loc     0x00007968      0x115 /vagrant/gnuarm/lib/gcc/arm-elf/4.4.2/../../../../arm-elf/lib/thumb/interwork/libc.a(lib_a-memchr.o)
 .debug_loc     0x00007a7d      0x128 /vagrant/gnuarm/lib/gcc/arm-elf/4.4.2/../../../../arm-elf/lib/thumb/interwork/libc.a(lib_a-memcmp.o)
 .debug_loc     0x00007ba5      0x13b /vagrant/gnuarm/lib/gcc/arm-elf/4.4.2/../../../../arm-elf/lib/thumb/interwork/libc.a(lib_a-memcpy.o)
 .debug_loc     0x00007ce0      0x1ca /vagrant/gnuarm/lib/gcc/arm-elf/4.4.2/../../../../arm-elf/lib/thumb/interwork/libc.a(lib_a-memmove.o)
 .debug_loc     0x00007eaa       0xfc /vagrant/gnuarm/lib/gcc/arm-elf/4.4.2/../../../../arm-elf/lib/thumb/interwork/libc.a(lib_a-memset.o)
 .debug_loc     0x00007fa6      0x168 /vagrant/gnuarm/lib/gcc/arm-elf/4.4.2/../../../../arm-elf/lib/thumb/interwork/libc.a(lib_a-putc.o)
 .debug_loc     0x0000810e       0x5b /vagrant/gnuarm/lib/gcc/arm-elf/4.4.2/../../../../arm-elf/lib/thumb/interwork/libc.a(lib_a-realloc.o)
 .debug_loc     0x00008169      0x7dc /vagrant/gnuarm/lib/gcc/arm-elf/4.4.2/../../../../arm-elf/lib/thumb/interwork/libc.a(lib_a-reallocr.o)
 .debug_loc     0x00008945      0x40f /vagrant/gnuarm/lib/gcc/arm-elf/4.4.2/../../../../arm-elf/lib/thumb/interwork/libc.a(lib_a-signal.o)
 .debug_loc     0x00008d54       0xbe /vagrant/gnuarm/lib/gcc/arm-elf/4.4.2/../../../../arm-elf/lib/thumb/interwork/libc.a(lib_a-signalr.o)
 .debug_loc     0x00008e12       0xb4 /vagrant/gnuarm/lib/gcc/arm-elf/4.4.2/../../../../arm-elf/lib/thumb/interwork/libc.a(lib_a-sprintf.o)
 .debug_loc     0x00008ec6       0x13 /vagrant/gnuarm/lib/gcc/arm-elf/4.4.2/../../../../arm-elf/lib/thumb/interwork/libc.a(lib_a-strcmp.o)
 .debug_loc     0x00008ed9       0x13 /vagrant/gnuarm/lib/gcc/arm-elf/4.4.2/../../../../arm-elf/lib/thumb/interwork/libc.a(lib_a-strcpy.o)
 .debug_loc     0x00008eec       0x26 /vagrant/gnuarm/lib/gcc/arm-elf/4.4.2/../../../../arm-elf/lib/thumb/interwork/libc.a(lib_a-strlen.o)
 .debug_loc     0x00008f12       0xd9 /vagrant/gnuarm/lib/gcc/arm-elf/4.4.2/../../../../arm-elf/lib/thumb/interwork/libc.a(lib_a-strncmp.o)
 .debug_loc     0x00008feb       0xff /vagrant/gnuarm/lib/gcc/arm-elf/4.4.2/../../../../arm-elf/lib/thumb/interwork/libc.a(lib_a-strncpy.o)
 .debug_loc     0x000090ea     0x1b19 /vagrant/gnuarm/lib/gcc/arm-elf/4.4.2/../../../../arm-elf/lib/thumb/interwork/libc.a(lib_a-svfprintf.o)
 .debug_loc     0x0000ac03      0xcc4 /vagrant/gnuarm/lib/gcc/arm-elf/4.4.2/../../../../arm-elf/lib/thumb/interwork/libc.a(lib_a-syscalls.o)
 .debug_loc     0x0000b8c7       0x79 /vagrant/gnuarm/lib/gcc/arm-elf/4.4.2/../../../../arm-elf/lib/thumb/interwork/libc.a(lib_a-syswrite.o)
 .debug_loc     0x0000b940      0x134 /vagrant/gnuarm/lib/gcc/arm-elf/4.4.2/../../../../arm-elf/lib/thumb/interwork/libc.a(lib_a-wbuf.o)
 .debug_loc     0x0000ba74       0x9f /vagrant/gnuarm/lib/gcc/arm-elf/4.4.2/../../../../arm-elf/lib/thumb/interwork/libc.a(lib_a-writer.o)
 .debug_loc     0x0000bb13       0x71 /vagrant/gnuarm/lib/gcc/arm-elf/4.4.2/../../../../arm-elf/lib/thumb/interwork/libc.a(lib_a-wsetup.o)
 .debug_loc     0x0000bb84     0x13ca /vagrant/gnuarm/lib/gcc/arm-elf/4.4.2/../../../../arm-elf/lib/thumb/interwork/libc.a(lib_a-dtoa.o)
 .debug_loc     0x0000cf4e      0x23e /vagrant/gnuarm/lib/gcc/arm-elf/4.4.2/../../../../arm-elf/lib/thumb/interwork/libc.a(lib_a-fflush.o)
 .debug_loc     0x0000d18c      0x2f9 /vagrant/gnuarm/lib/gcc/arm-elf/4.4.2/../../../../arm-elf/lib/thumb/interwork/libc.a(lib_a-findfp.o)
 .debug_loc     0x0000d485      0x3ab /vagrant/gnuarm/lib/gcc/arm-elf/4.4.2/../../../../arm-elf/lib/thumb/interwork/libc.a(lib_a-freer.o)
 .debug_loc     0x0000d830      0x1b3 /vagrant/gnuarm/lib/gcc/arm-elf/4.4.2/../../../../arm-elf/lib/thumb/interwork/libc.a(lib_a-fwalk.o)
 .debug_loc     0x0000d9e3       0xfd /vagrant/gnuarm/lib/gcc/arm-elf/4.4.2/../../../../arm-elf/lib/thumb/interwork/libc.a(lib_a-locale.o)
 .debug_loc     0x0000dae0       0xf9 /vagrant/gnuarm/lib/gcc/arm-elf/4.4.2/../../../../arm-elf/lib/thumb/interwork/libc.a(lib_a-makebuf.o)
 .debug_loc     0x0000dbd9     0x1608 /vagrant/gnuarm/lib/gcc/arm-elf/4.4.2/../../../../arm-elf/lib/thumb/interwork/libc.a(lib_a-mprec.o)
 .debug_loc     0x0000f1e1      0x226 /vagrant/gnuarm/lib/gcc/arm-elf/4.4.2/../../../../arm-elf/lib/thumb/interwork/libc.a(lib_a-reent.o)
 .debug_loc     0x0000f407       0x80 /vagrant/gnuarm/lib/gcc/arm-elf/4.4.2/../../../../arm-elf/lib/thumb/interwork/libc.a(lib_a-s_fpclassify.o)
 .debug_loc     0x0000f487      0x22d /vagrant/gnuarm/lib/gcc/arm-elf/4.4.2/../../../../arm-elf/lib/thumb/interwork/libc.a(lib_a-stdio.o)
 .debug_loc     0x0000f6b4      0xe0e /vagrant/gnuarm/lib/gcc/arm-elf/4.4.2/../../../../arm-elf/lib/thumb/interwork/libc.a(lib_a-svfiprintf.o)
 .debug_loc     0x000104c2       0xe9 /vagrant/gnuarm/lib/gcc/arm-elf/4.4.2/../../../../arm-elf/lib/thumb/interwork/libc.a(lib_a-callocr.o)
 .debug_loc     0x000105ab       0x79 /vagrant/gnuarm/lib/gcc/arm-elf/4.4.2/../../../../arm-elf/lib/thumb/interwork/libc.a(lib_a-closer.o)
 .debug_loc     0x00010624       0xe2 /vagrant/gnuarm/lib/gcc/arm-elf/4.4.2/../../../../arm-elf/lib/thumb/interwork/libc.a(lib_a-fclose.o)
 .debug_loc     0x00010706       0x8c /vagrant/gnuarm/lib/gcc/arm-elf/4.4.2/../../../../arm-elf/lib/thumb/interwork/libc.a(lib_a-fstatr.o)
 .debug_loc     0x00010792       0x79 /vagrant/gnuarm/lib/gcc/arm-elf/4.4.2/../../../../arm-elf/lib/thumb/interwork/libc.a(lib_a-isattyr.o)
 .debug_loc     0x0001080b       0x9f /vagrant/gnuarm/lib/gcc/arm-elf/4.4.2/../../../../arm-elf/lib/thumb/interwork/libc.a(lib_a-lseekr.o)
 .debug_loc     0x000108aa       0x9f /vagrant/gnuarm/lib/gcc/arm-elf/4.4.2/../../../../arm-elf/lib/thumb/interwork/libc.a(lib_a-readr.o)

.debug_pubnames
                0x00000000     0x197d
 .debug_pubnames
                0x00000000       0x35 /vagrant/gnuarm/lib/gcc/arm-elf/4.4.2/../../../../arm-elf/lib/thumb/interwork/libstdc++.a(pure.o)
 .debug_pubnames
                0x00000035       0x5e /vagrant/gnuarm/lib/gcc/arm-elf/4.4.2/../../../../arm-elf/lib/thumb/interwork/libstdc++.a(eh_personality.o)
 .debug_pubnames
                0x00000093       0xa1 /vagrant/gnuarm/lib/gcc/arm-elf/4.4.2/../../../../arm-elf/lib/thumb/interwork/libstdc++.a(eh_terminate.o)
 .debug_pubnames
                0x00000134       0x4c /vagrant/gnuarm/lib/gcc/arm-elf/4.4.2/../../../../arm-elf/lib/thumb/interwork/libstdc++.a(eh_throw.o)
 .debug_pubnames
                0x00000180       0x37 /vagrant/gnuarm/lib/gcc/arm-elf/4.4.2/../../../../arm-elf/lib/thumb/interwork/libstdc++.a(eh_unex_handler.o)
 .debug_pubnames
                0x000001b7       0xc2 /vagrant/gnuarm/lib/gcc/arm-elf/4.4.2/../../../../arm-elf/lib/thumb/interwork/libstdc++.a(eh_alloc.o)
 .debug_pubnames
                0x00000279       0x2b /vagrant/gnuarm/lib/gcc/arm-elf/4.4.2/../../../../arm-elf/lib/thumb/interwork/libstdc++.a(eh_call.o)
 .debug_pubnames
                0x000002a4       0x98 /vagrant/gnuarm/lib/gcc/arm-elf/4.4.2/../../../../arm-elf/lib/thumb/interwork/libstdc++.a(eh_catch.o)
 .debug_pubnames
                0x0000033c      0x25e /vagrant/gnuarm/lib/gcc/arm-elf/4.4.2/../../../../arm-elf/lib/thumb/interwork/libstdc++.a(eh_exception.o)
 .debug_pubnames
                0x0000059a       0x5b /vagrant/gnuarm/lib/gcc/arm-elf/4.4.2/../../../../arm-elf/lib/thumb/interwork/libstdc++.a(eh_globals.o)
 .debug_pubnames
                0x000005f5       0x36 /vagrant/gnuarm/lib/gcc/arm-elf/4.4.2/../../../../arm-elf/lib/thumb/interwork/libstdc++.a(eh_term_handler.o)
 .debug_pubnames
                0x0000062b      0x166 /vagrant/gnuarm/lib/gcc/arm-elf/4.4.2/../../../../arm-elf/lib/thumb/interwork/libstdc++.a(si_class_type_info.o)
 .debug_pubnames
                0x00000791       0xf5 /vagrant/gnuarm/lib/gcc/arm-elf/4.4.2/../../../../arm-elf/lib/thumb/interwork/libstdc++.a(tinfo.o)
 .debug_pubnames
                0x00000886       0x3d /vagrant/gnuarm/lib/gcc/arm-elf/4.4.2/../../../../arm-elf/lib/thumb/interwork/libstdc++.a(vterminate.o)
 .debug_pubnames
                0x000008c3      0x1a8 /vagrant/gnuarm/lib/gcc/arm-elf/4.4.2/../../../../arm-elf/lib/thumb/interwork/libstdc++.a(class_type_info.o)
 .debug_pubnames
                0x00000a6b       0x47 /vagrant/gnuarm/lib/gcc/arm-elf/4.4.2/../../../../arm-elf/lib/thumb/interwork/libstdc++.a(cp-demangle.o)
 .debug_pubnames
                0x00000ab2       0x3f /vagrant/gnuarm/lib/gcc/arm-elf/4.4.2/../../../../arm-elf/lib/thumb/interwork/libstdc++.a(eh_type.o)
 .debug_pubnames
                0x00000af1       0x1f /vagrant/gnuarm/lib/gcc/arm-elf/4.4.2/thumb/interwork/libgcc.a(_muldi3.o)
 .debug_pubnames
                0x00000b10       0x1f /vagrant/gnuarm/lib/gcc/arm-elf/4.4.2/thumb/interwork/libgcc.a(_divdi3.o)
 .debug_pubnames
                0x00000b2f      0x1fb /vagrant/gnuarm/lib/gcc/arm-elf/4.4.2/thumb/interwork/libgcc.a(unwind-sjlj.o)
 .debug_pubnames
                0x00000d2a       0x1c /vagrant/gnuarm/lib/gcc/arm-elf/4.4.2/../../../../arm-elf/lib/thumb/interwork/libc.a(lib_a-abort.o)
 .debug_pubnames
                0x00000d46       0x29 /vagrant/gnuarm/lib/gcc/arm-elf/4.4.2/../../../../arm-elf/lib/thumb/interwork/libc.a(lib_a-fputc.o)
 .debug_pubnames
                0x00000d6f       0x29 /vagrant/gnuarm/lib/gcc/arm-elf/4.4.2/../../../../arm-elf/lib/thumb/interwork/libc.a(lib_a-fputs.o)
 .debug_pubnames
                0x00000d98       0x23 /vagrant/gnuarm/lib/gcc/arm-elf/4.4.2/../../../../arm-elf/lib/thumb/interwork/libc.a(lib_a-fvwrite.o)
 .debug_pubnames
                0x00000dbb       0x2b /vagrant/gnuarm/lib/gcc/arm-elf/4.4.2/../../../../arm-elf/lib/thumb/interwork/libc.a(lib_a-fwrite.o)
 .debug_pubnames
                0x00000de6       0x39 /vagrant/gnuarm/lib/gcc/arm-elf/4.4.2/../../../../arm-elf/lib/thumb/interwork/libc.a(lib_a-impure.o)
 .debug_pubnames
                0x00000e1f       0x26 /vagrant/gnuarm/lib/gcc/arm-elf/4.4.2/../../../../arm-elf/lib/thumb/interwork/libc.a(lib_a-malloc.o)
 .debug_pubnames
                0x00000e45       0xce /vagrant/gnuarm/lib/gcc/arm-elf/4.4.2/../../../../arm-elf/lib/thumb/interwork/libc.a(lib_a-mallocr.o)
 .debug_pubnames
                0x00000f13       0x1d /vagrant/gnuarm/lib/gcc/arm-elf/4.4.2/../../../../arm-elf/lib/thumb/interwork/libc.a(lib_a-memchr.o)
 .debug_pubnames
                0x00000f30       0x1d /vagrant/gnuarm/lib/gcc/arm-elf/4.4.2/../../../../arm-elf/lib/thumb/interwork/libc.a(lib_a-memcmp.o)
 .debug_pubnames
                0x00000f4d       0x1d /vagrant/gnuarm/lib/gcc/arm-elf/4.4.2/../../../../arm-elf/lib/thumb/interwork/libc.a(lib_a-memcpy.o)
 .debug_pubnames
                0x00000f6a       0x1e /vagrant/gnuarm/lib/gcc/arm-elf/4.4.2/../../../../arm-elf/lib/thumb/interwork/libc.a(lib_a-memmove.o)
 .debug_pubnames
                0x00000f88       0x1d /vagrant/gnuarm/lib/gcc/arm-elf/4.4.2/../../../../arm-elf/lib/thumb/interwork/libc.a(lib_a-memset.o)
 .debug_pubnames
                0x00000fa5       0x38 /vagrant/gnuarm/lib/gcc/arm-elf/4.4.2/../../../../arm-elf/lib/thumb/interwork/libc.a(lib_a-mlock.o)
 .debug_pubnames
                0x00000fdd       0x27 /vagrant/gnuarm/lib/gcc/arm-elf/4.4.2/../../../../arm-elf/lib/thumb/interwork/libc.a(lib_a-putc.o)
 .debug_pubnames
                0x00001004       0x1e /vagrant/gnuarm/lib/gcc/arm-elf/4.4.2/../../../../arm-elf/lib/thumb/interwork/libc.a(lib_a-realloc.o)
 .debug_pubnames
                0x00001022       0x21 /vagrant/gnuarm/lib/gcc/arm-elf/4.4.2/../../../../arm-elf/lib/thumb/interwork/libc.a(lib_a-reallocr.o)
 .debug_pubnames
                0x00001043       0x86 /vagrant/gnuarm/lib/gcc/arm-elf/4.4.2/../../../../arm-elf/lib/thumb/interwork/libc.a(lib_a-signal.o)
 .debug_pubnames
                0x000010c9       0x2c /vagrant/gnuarm/lib/gcc/arm-elf/4.4.2/../../../../arm-elf/lib/thumb/interwork/libc.a(lib_a-signalr.o)
 .debug_pubnames
                0x000010f5       0x2d /vagrant/gnuarm/lib/gcc/arm-elf/4.4.2/../../../../arm-elf/lib/thumb/interwork/libc.a(lib_a-sprintf.o)
 .debug_pubnames
                0x00001122       0x1d /vagrant/gnuarm/lib/gcc/arm-elf/4.4.2/../../../../arm-elf/lib/thumb/interwork/libc.a(lib_a-strcmp.o)
 .debug_pubnames
                0x0000113f       0x1d /vagrant/gnuarm/lib/gcc/arm-elf/4.4.2/../../../../arm-elf/lib/thumb/interwork/libc.a(lib_a-strcpy.o)
 .debug_pubnames
                0x0000115c       0x1d /vagrant/gnuarm/lib/gcc/arm-elf/4.4.2/../../../../arm-elf/lib/thumb/interwork/libc.a(lib_a-strlen.o)
 .debug_pubnames
                0x00001179       0x1e /vagrant/gnuarm/lib/gcc/arm-elf/4.4.2/../../../../arm-elf/lib/thumb/interwork/libc.a(lib_a-strncmp.o)
 .debug_pubnames
                0x00001197       0x1e /vagrant/gnuarm/lib/gcc/arm-elf/4.4.2/../../../../arm-elf/lib/thumb/interwork/libc.a(lib_a-strncpy.o)
 .debug_pubnames
                0x000011b5       0x23 /vagrant/gnuarm/lib/gcc/arm-elf/4.4.2/../../../../arm-elf/lib/thumb/interwork/libc.a(lib_a-svfprintf.o)
 .debug_pubnames
                0x000011d8      0x159 /vagrant/gnuarm/lib/gcc/arm-elf/4.4.2/../../../../arm-elf/lib/thumb/interwork/libc.a(lib_a-syscalls.o)
 .debug_pubnames
                0x00001331       0x1c /vagrant/gnuarm/lib/gcc/arm-elf/4.4.2/../../../../arm-elf/lib/thumb/interwork/libc.a(lib_a-syswrite.o)
 .debug_pubnames
                0x0000134d       0x2c /vagrant/gnuarm/lib/gcc/arm-elf/4.4.2/../../../../arm-elf/lib/thumb/interwork/libc.a(lib_a-wbuf.o)
 .debug_pubnames
                0x00001379       0x1f /vagrant/gnuarm/lib/gcc/arm-elf/4.4.2/../../../../arm-elf/lib/thumb/interwork/libc.a(lib_a-writer.o)
 .debug_pubnames
                0x00001398       0x22 /vagrant/gnuarm/lib/gcc/arm-elf/4.4.2/../../../../arm-elf/lib/thumb/interwork/libc.a(lib_a-wsetup.o)
 .debug_pubnames
                0x000013ba       0x1e /vagrant/gnuarm/lib/gcc/arm-elf/4.4.2/../../../../arm-elf/lib/thumb/interwork/libc.a(lib_a-dtoa.o)
 .debug_pubnames
                0x000013d8       0x1e /vagrant/gnuarm/lib/gcc/arm-elf/4.4.2/../../../../arm-elf/lib/thumb/interwork/libc.a(lib_a-errno.o)
 .debug_pubnames
                0x000013f6       0x2b /vagrant/gnuarm/lib/gcc/arm-elf/4.4.2/../../../../arm-elf/lib/thumb/interwork/libc.a(lib_a-fflush.o)
 .debug_pubnames
                0x00001421       0xdb /vagrant/gnuarm/lib/gcc/arm-elf/4.4.2/../../../../arm-elf/lib/thumb/interwork/libc.a(lib_a-findfp.o)
 .debug_pubnames
                0x000014fc       0x31 /vagrant/gnuarm/lib/gcc/arm-elf/4.4.2/../../../../arm-elf/lib/thumb/interwork/libc.a(lib_a-freer.o)
 .debug_pubnames
                0x0000152d       0x2e /vagrant/gnuarm/lib/gcc/arm-elf/4.4.2/../../../../arm-elf/lib/thumb/interwork/libc.a(lib_a-fwalk.o)
 .debug_pubnames
                0x0000155b       0xe2 /vagrant/gnuarm/lib/gcc/arm-elf/4.4.2/../../../../arm-elf/lib/thumb/interwork/libc.a(lib_a-locale.o)
 .debug_pubnames
                0x0000163d       0x23 /vagrant/gnuarm/lib/gcc/arm-elf/4.4.2/../../../../arm-elf/lib/thumb/interwork/libc.a(lib_a-makebuf.o)
 .debug_pubnames
                0x00001660      0x13a /vagrant/gnuarm/lib/gcc/arm-elf/4.4.2/../../../../arm-elf/lib/thumb/interwork/libc.a(lib_a-mprec.o)
 .debug_pubnames
                0x0000179a       0x52 /vagrant/gnuarm/lib/gcc/arm-elf/4.4.2/../../../../arm-elf/lib/thumb/interwork/libc.a(lib_a-reent.o)
 .debug_pubnames
                0x000017ec       0x24 /vagrant/gnuarm/lib/gcc/arm-elf/4.4.2/../../../../arm-elf/lib/thumb/interwork/libc.a(lib_a-s_fpclassify.o)
 .debug_pubnames
                0x00001810       0x53 /vagrant/gnuarm/lib/gcc/arm-elf/4.4.2/../../../../arm-elf/lib/thumb/interwork/libc.a(lib_a-stdio.o)
 .debug_pubnames
                0x00001863       0x34 /vagrant/gnuarm/lib/gcc/arm-elf/4.4.2/../../../../arm-elf/lib/thumb/interwork/libc.a(lib_a-svfiprintf.o)
 .debug_pubnames
                0x00001897       0x20 /vagrant/gnuarm/lib/gcc/arm-elf/4.4.2/../../../../arm-elf/lib/thumb/interwork/libc.a(lib_a-callocr.o)
 .debug_pubnames
                0x000018b7       0x1f /vagrant/gnuarm/lib/gcc/arm-elf/4.4.2/../../../../arm-elf/lib/thumb/interwork/libc.a(lib_a-closer.o)
 .debug_pubnames
                0x000018d6       0x2b /vagrant/gnuarm/lib/gcc/arm-elf/4.4.2/../../../../arm-elf/lib/thumb/interwork/libc.a(lib_a-fclose.o)
 .debug_pubnames
                0x00001901       0x1f /vagrant/gnuarm/lib/gcc/arm-elf/4.4.2/../../../../arm-elf/lib/thumb/interwork/libc.a(lib_a-fstatr.o)
 .debug_pubnames
                0x00001920       0x20 /vagrant/gnuarm/lib/gcc/arm-elf/4.4.2/../../../../arm-elf/lib/thumb/interwork/libc.a(lib_a-isattyr.o)
 .debug_pubnames
                0x00001940       0x1f /vagrant/gnuarm/lib/gcc/arm-elf/4.4.2/../../../../arm-elf/lib/thumb/interwork/libc.a(lib_a-lseekr.o)
 .debug_pubnames
                0x0000195f       0x1e /vagrant/gnuarm/lib/gcc/arm-elf/4.4.2/../../../../arm-elf/lib/thumb/interwork/libc.a(lib_a-readr.o)

.debug_aranges  0x00000000      0xb68
 .debug_aranges
                0x00000000       0x20 /vagrant/gnuarm/lib/gcc/arm-elf/4.4.2/../../../../arm-elf/lib/thumb/interwork/libstdc++.a(pure.o)
 .debug_aranges
                0x00000020       0x58 /vagrant/gnuarm/lib/gcc/arm-elf/4.4.2/../../../../arm-elf/lib/thumb/interwork/libstdc++.a(eh_personality.o)
 .debug_aranges
                0x00000078       0x48 /vagrant/gnuarm/lib/gcc/arm-elf/4.4.2/../../../../arm-elf/lib/thumb/interwork/libstdc++.a(eh_terminate.o)
 .debug_aranges
                0x000000c0       0x30 /vagrant/gnuarm/lib/gcc/arm-elf/4.4.2/../../../../arm-elf/lib/thumb/interwork/libstdc++.a(eh_throw.o)
 .debug_aranges
                0x000000f0       0x40 /vagrant/gnuarm/lib/gcc/arm-elf/4.4.2/../../../../arm-elf/lib/thumb/interwork/libstdc++.a(eh_alloc.o)
 .debug_aranges
                0x00000130       0x20 /vagrant/gnuarm/lib/gcc/arm-elf/4.4.2/../../../../arm-elf/lib/thumb/interwork/libstdc++.a(eh_call.o)
 .debug_aranges
                0x00000150       0x38 /vagrant/gnuarm/lib/gcc/arm-elf/4.4.2/../../../../arm-elf/lib/thumb/interwork/libstdc++.a(eh_catch.o)
 .debug_aranges
                0x00000188       0x88 /vagrant/gnuarm/lib/gcc/arm-elf/4.4.2/../../../../arm-elf/lib/thumb/interwork/libstdc++.a(eh_exception.o)
 .debug_aranges
                0x00000210       0x28 /vagrant/gnuarm/lib/gcc/arm-elf/4.4.2/../../../../arm-elf/lib/thumb/interwork/libstdc++.a(eh_globals.o)
 .debug_aranges
                0x00000238       0x48 /vagrant/gnuarm/lib/gcc/arm-elf/4.4.2/../../../../arm-elf/lib/thumb/interwork/libstdc++.a(si_class_type_info.o)
 .debug_aranges
                0x00000280       0x50 /vagrant/gnuarm/lib/gcc/arm-elf/4.4.2/../../../../arm-elf/lib/thumb/interwork/libstdc++.a(tinfo.o)
 .debug_aranges
                0x000002d0       0x20 /vagrant/gnuarm/lib/gcc/arm-elf/4.4.2/../../../../arm-elf/lib/thumb/interwork/libstdc++.a(vterminate.o)
 .debug_aranges
                0x000002f0       0x58 /vagrant/gnuarm/lib/gcc/arm-elf/4.4.2/../../../../arm-elf/lib/thumb/interwork/libstdc++.a(class_type_info.o)
 .debug_aranges
                0x00000348       0x20 /vagrant/gnuarm/lib/gcc/arm-elf/4.4.2/../../../../arm-elf/lib/thumb/interwork/libstdc++.a(cp-demangle.o)
 .debug_aranges
                0x00000368       0x20 /vagrant/gnuarm/lib/gcc/arm-elf/4.4.2/../../../../arm-elf/lib/thumb/interwork/libstdc++.a(eh_type.o)
 .debug_aranges
                0x00000388       0x20 /vagrant/gnuarm/lib/gcc/arm-elf/4.4.2/thumb/interwork/libgcc.a(_udivsi3.o)
 .debug_aranges
                0x000003a8       0x20 /vagrant/gnuarm/lib/gcc/arm-elf/4.4.2/thumb/interwork/libgcc.a(_divsi3.o)
 .debug_aranges
                0x000003c8       0x20 /vagrant/gnuarm/lib/gcc/arm-elf/4.4.2/thumb/interwork/libgcc.a(_umodsi3.o)
 .debug_aranges
                0x000003e8       0x20 /vagrant/gnuarm/lib/gcc/arm-elf/4.4.2/thumb/interwork/libgcc.a(_modsi3.o)
 .debug_aranges
                0x00000408       0x20 /vagrant/gnuarm/lib/gcc/arm-elf/4.4.2/thumb/interwork/libgcc.a(_dvmd_tls.o)
 .debug_aranges
                0x00000428       0x20 /vagrant/gnuarm/lib/gcc/arm-elf/4.4.2/thumb/interwork/libgcc.a(_arm_addsubdf3.o)
 .debug_aranges
                0x00000448       0x20 /vagrant/gnuarm/lib/gcc/arm-elf/4.4.2/thumb/interwork/libgcc.a(_arm_muldivdf3.o)
 .debug_aranges
                0x00000468       0x20 /vagrant/gnuarm/lib/gcc/arm-elf/4.4.2/thumb/interwork/libgcc.a(_arm_cmpdf2.o)
 .debug_aranges
                0x00000488       0x20 /vagrant/gnuarm/lib/gcc/arm-elf/4.4.2/thumb/interwork/libgcc.a(_muldi3.o)
 .debug_aranges
                0x000004a8       0x20 /vagrant/gnuarm/lib/gcc/arm-elf/4.4.2/thumb/interwork/libgcc.a(_divdi3.o)
 .debug_aranges
                0x000004c8       0x20 /vagrant/gnuarm/lib/gcc/arm-elf/4.4.2/thumb/interwork/libgcc.a(unwind-sjlj.o)
 .debug_aranges
                0x000004e8       0x20 /vagrant/gnuarm/lib/gcc/arm-elf/4.4.2/thumb/interwork/libgcc.a(_clzsi2.o)
 .debug_aranges
                0x00000508       0x20 /vagrant/gnuarm/lib/gcc/arm-elf/4.4.2/../../../../arm-elf/lib/thumb/interwork/libc.a(lib_a-abort.o)
 .debug_aranges
                0x00000528       0x20 /vagrant/gnuarm/lib/gcc/arm-elf/4.4.2/../../../../arm-elf/lib/thumb/interwork/libc.a(lib_a-fputc.o)
 .debug_aranges
                0x00000548       0x20 /vagrant/gnuarm/lib/gcc/arm-elf/4.4.2/../../../../arm-elf/lib/thumb/interwork/libc.a(lib_a-fputs.o)
 .debug_aranges
                0x00000568       0x20 /vagrant/gnuarm/lib/gcc/arm-elf/4.4.2/../../../../arm-elf/lib/thumb/interwork/libc.a(lib_a-fvwrite.o)
 .debug_aranges
                0x00000588       0x20 /vagrant/gnuarm/lib/gcc/arm-elf/4.4.2/../../../../arm-elf/lib/thumb/interwork/libc.a(lib_a-fwrite.o)
 .debug_aranges
                0x000005a8       0x20 /vagrant/gnuarm/lib/gcc/arm-elf/4.4.2/../../../../arm-elf/lib/thumb/interwork/libc.a(lib_a-malloc.o)
 .debug_aranges
                0x000005c8       0x20 /vagrant/gnuarm/lib/gcc/arm-elf/4.4.2/../../../../arm-elf/lib/thumb/interwork/libc.a(lib_a-mallocr.o)
 .debug_aranges
                0x000005e8       0x20 /vagrant/gnuarm/lib/gcc/arm-elf/4.4.2/../../../../arm-elf/lib/thumb/interwork/libc.a(lib_a-memchr.o)
 .debug_aranges
                0x00000608       0x20 /vagrant/gnuarm/lib/gcc/arm-elf/4.4.2/../../../../arm-elf/lib/thumb/interwork/libc.a(lib_a-memcmp.o)
 .debug_aranges
                0x00000628       0x20 /vagrant/gnuarm/lib/gcc/arm-elf/4.4.2/../../../../arm-elf/lib/thumb/interwork/libc.a(lib_a-memcpy.o)
 .debug_aranges
                0x00000648       0x20 /vagrant/gnuarm/lib/gcc/arm-elf/4.4.2/../../../../arm-elf/lib/thumb/interwork/libc.a(lib_a-memmove.o)
 .debug_aranges
                0x00000668       0x20 /vagrant/gnuarm/lib/gcc/arm-elf/4.4.2/../../../../arm-elf/lib/thumb/interwork/libc.a(lib_a-memset.o)
 .debug_aranges
                0x00000688       0x20 /vagrant/gnuarm/lib/gcc/arm-elf/4.4.2/../../../../arm-elf/lib/thumb/interwork/libc.a(lib_a-mlock.o)
 .debug_aranges
                0x000006a8       0x20 /vagrant/gnuarm/lib/gcc/arm-elf/4.4.2/../../../../arm-elf/lib/thumb/interwork/libc.a(lib_a-putc.o)
 .debug_aranges
                0x000006c8       0x20 /vagrant/gnuarm/lib/gcc/arm-elf/4.4.2/../../../../arm-elf/lib/thumb/interwork/libc.a(lib_a-realloc.o)
 .debug_aranges
                0x000006e8       0x20 /vagrant/gnuarm/lib/gcc/arm-elf/4.4.2/../../../../arm-elf/lib/thumb/interwork/libc.a(lib_a-reallocr.o)
 .debug_aranges
                0x00000708       0x20 /vagrant/gnuarm/lib/gcc/arm-elf/4.4.2/../../../../arm-elf/lib/thumb/interwork/libc.a(lib_a-signal.o)
 .debug_aranges
                0x00000728       0x20 /vagrant/gnuarm/lib/gcc/arm-elf/4.4.2/../../../../arm-elf/lib/thumb/interwork/libc.a(lib_a-signalr.o)
 .debug_aranges
                0x00000748       0x20 /vagrant/gnuarm/lib/gcc/arm-elf/4.4.2/../../../../arm-elf/lib/thumb/interwork/libc.a(lib_a-sprintf.o)
 .debug_aranges
                0x00000768       0x20 /vagrant/gnuarm/lib/gcc/arm-elf/4.4.2/../../../../arm-elf/lib/thumb/interwork/libc.a(lib_a-strcmp.o)
 .debug_aranges
                0x00000788       0x20 /vagrant/gnuarm/lib/gcc/arm-elf/4.4.2/../../../../arm-elf/lib/thumb/interwork/libc.a(lib_a-strcpy.o)
 .debug_aranges
                0x000007a8       0x20 /vagrant/gnuarm/lib/gcc/arm-elf/4.4.2/../../../../arm-elf/lib/thumb/interwork/libc.a(lib_a-strlen.o)
 .debug_aranges
                0x000007c8       0x20 /vagrant/gnuarm/lib/gcc/arm-elf/4.4.2/../../../../arm-elf/lib/thumb/interwork/libc.a(lib_a-strncmp.o)
 .debug_aranges
                0x000007e8       0x20 /vagrant/gnuarm/lib/gcc/arm-elf/4.4.2/../../../../arm-elf/lib/thumb/interwork/libc.a(lib_a-strncpy.o)
 .debug_aranges
                0x00000808       0x20 /vagrant/gnuarm/lib/gcc/arm-elf/4.4.2/../../../../arm-elf/lib/thumb/interwork/libc.a(lib_a-svfprintf.o)
 .debug_aranges
                0x00000828       0x20 /vagrant/gnuarm/lib/gcc/arm-elf/4.4.2/../../../../arm-elf/lib/thumb/interwork/libc.a(lib_a-syscalls.o)
 .debug_aranges
                0x00000848       0x20 /vagrant/gnuarm/lib/gcc/arm-elf/4.4.2/../../../../arm-elf/lib/thumb/interwork/libc.a(lib_a-syswrite.o)
 .debug_aranges
                0x00000868       0x20 /vagrant/gnuarm/lib/gcc/arm-elf/4.4.2/../../../../arm-elf/lib/thumb/interwork/libc.a(lib_a-wbuf.o)
 .debug_aranges
                0x00000888       0x20 /vagrant/gnuarm/lib/gcc/arm-elf/4.4.2/../../../../arm-elf/lib/thumb/interwork/libc.a(lib_a-writer.o)
 .debug_aranges
                0x000008a8       0x20 /vagrant/gnuarm/lib/gcc/arm-elf/4.4.2/../../../../arm-elf/lib/thumb/interwork/libc.a(lib_a-wsetup.o)
 .debug_aranges
                0x000008c8       0x20 /vagrant/gnuarm/lib/gcc/arm-elf/4.4.2/../../../../arm-elf/lib/thumb/interwork/libc.a(lib_a-dtoa.o)
 .debug_aranges
                0x000008e8       0x20 /vagrant/gnuarm/lib/gcc/arm-elf/4.4.2/../../../../arm-elf/lib/thumb/interwork/libc.a(lib_a-errno.o)
 .debug_aranges
                0x00000908       0x20 /vagrant/gnuarm/lib/gcc/arm-elf/4.4.2/../../../../arm-elf/lib/thumb/interwork/libc.a(lib_a-fflush.o)
 .debug_aranges
                0x00000928       0x20 /vagrant/gnuarm/lib/gcc/arm-elf/4.4.2/../../../../arm-elf/lib/thumb/interwork/libc.a(lib_a-findfp.o)
 .debug_aranges
                0x00000948       0x20 /vagrant/gnuarm/lib/gcc/arm-elf/4.4.2/../../../../arm-elf/lib/thumb/interwork/libc.a(lib_a-freer.o)
 .debug_aranges
                0x00000968       0x20 /vagrant/gnuarm/lib/gcc/arm-elf/4.4.2/../../../../arm-elf/lib/thumb/interwork/libc.a(lib_a-fwalk.o)
 .debug_aranges
                0x00000988       0x20 /vagrant/gnuarm/lib/gcc/arm-elf/4.4.2/../../../../arm-elf/lib/thumb/interwork/libc.a(lib_a-locale.o)
 .debug_aranges
                0x000009a8       0x20 /vagrant/gnuarm/lib/gcc/arm-elf/4.4.2/../../../../arm-elf/lib/thumb/interwork/libc.a(lib_a-makebuf.o)
 .debug_aranges
                0x000009c8       0x20 /vagrant/gnuarm/lib/gcc/arm-elf/4.4.2/../../../../arm-elf/lib/thumb/interwork/libc.a(lib_a-mprec.o)
 .debug_aranges
                0x000009e8       0x20 /vagrant/gnuarm/lib/gcc/arm-elf/4.4.2/../../../../arm-elf/lib/thumb/interwork/libc.a(lib_a-reent.o)
 .debug_aranges
                0x00000a08       0x20 /vagrant/gnuarm/lib/gcc/arm-elf/4.4.2/../../../../arm-elf/lib/thumb/interwork/libc.a(lib_a-s_fpclassify.o)
 .debug_aranges
                0x00000a28       0x20 /vagrant/gnuarm/lib/gcc/arm-elf/4.4.2/../../../../arm-elf/lib/thumb/interwork/libc.a(lib_a-stdio.o)
 .debug_aranges
                0x00000a48       0x20 /vagrant/gnuarm/lib/gcc/arm-elf/4.4.2/../../../../arm-elf/lib/thumb/interwork/libc.a(lib_a-svfiprintf.o)
 .debug_aranges
                0x00000a68       0x20 /vagrant/gnuarm/lib/gcc/arm-elf/4.4.2/../../../../arm-elf/lib/thumb/interwork/libc.a(lib_a-callocr.o)
 .debug_aranges
                0x00000a88       0x20 /vagrant/gnuarm/lib/gcc/arm-elf/4.4.2/../../../../arm-elf/lib/thumb/interwork/libc.a(lib_a-closer.o)
 .debug_aranges
                0x00000aa8       0x20 /vagrant/gnuarm/lib/gcc/arm-elf/4.4.2/../../../../arm-elf/lib/thumb/interwork/libc.a(lib_a-fclose.o)
 .debug_aranges
                0x00000ac8       0x20 /vagrant/gnuarm/lib/gcc/arm-elf/4.4.2/../../../../arm-elf/lib/thumb/interwork/libc.a(lib_a-fstatr.o)
 .debug_aranges
                0x00000ae8       0x20 /vagrant/gnuarm/lib/gcc/arm-elf/4.4.2/../../../../arm-elf/lib/thumb/interwork/libc.a(lib_a-isattyr.o)
 .debug_aranges
                0x00000b08       0x20 /vagrant/gnuarm/lib/gcc/arm-elf/4.4.2/../../../../arm-elf/lib/thumb/interwork/libc.a(lib_a-lseekr.o)
 .debug_aranges
                0x00000b28       0x20 /vagrant/gnuarm/lib/gcc/arm-elf/4.4.2/../../../../arm-elf/lib/thumb/interwork/libc.a(lib_a-readr.o)
 .debug_aranges
                0x00000b48       0x20 /vagrant/gnuarm/lib/gcc/arm-elf/4.4.2/thumb/interwork/libgcc.a(_arm_fixdfsi.o)

.debug_ranges   0x00000000     0x1e88
 .debug_ranges  0x00000000       0x18 /vagrant/gnuarm/lib/gcc/arm-elf/4.4.2/../../../../arm-elf/lib/thumb/interwork/libstdc++.a(pure.o)
 .debug_ranges  0x00000018      0x338 /vagrant/gnuarm/lib/gcc/arm-elf/4.4.2/../../../../arm-elf/lib/thumb/interwork/libstdc++.a(eh_personality.o)
 .debug_ranges  0x00000350       0x70 /vagrant/gnuarm/lib/gcc/arm-elf/4.4.2/../../../../arm-elf/lib/thumb/interwork/libstdc++.a(eh_terminate.o)
 .debug_ranges  0x000003c0       0x40 /vagrant/gnuarm/lib/gcc/arm-elf/4.4.2/../../../../arm-elf/lib/thumb/interwork/libstdc++.a(eh_throw.o)
 .debug_ranges  0x00000400       0x98 /vagrant/gnuarm/lib/gcc/arm-elf/4.4.2/../../../../arm-elf/lib/thumb/interwork/libstdc++.a(eh_alloc.o)
 .debug_ranges  0x00000498       0x18 /vagrant/gnuarm/lib/gcc/arm-elf/4.4.2/../../../../arm-elf/lib/thumb/interwork/libstdc++.a(eh_call.o)
 .debug_ranges  0x000004b0       0x78 /vagrant/gnuarm/lib/gcc/arm-elf/4.4.2/../../../../arm-elf/lib/thumb/interwork/libstdc++.a(eh_catch.o)
 .debug_ranges  0x00000528       0xb0 /vagrant/gnuarm/lib/gcc/arm-elf/4.4.2/../../../../arm-elf/lib/thumb/interwork/libstdc++.a(eh_exception.o)
 .debug_ranges  0x000005d8       0x20 /vagrant/gnuarm/lib/gcc/arm-elf/4.4.2/../../../../arm-elf/lib/thumb/interwork/libstdc++.a(eh_globals.o)
 .debug_ranges  0x000005f8       0x40 /vagrant/gnuarm/lib/gcc/arm-elf/4.4.2/../../../../arm-elf/lib/thumb/interwork/libstdc++.a(si_class_type_info.o)
 .debug_ranges  0x00000638       0x48 /vagrant/gnuarm/lib/gcc/arm-elf/4.4.2/../../../../arm-elf/lib/thumb/interwork/libstdc++.a(tinfo.o)
 .debug_ranges  0x00000680       0x90 /vagrant/gnuarm/lib/gcc/arm-elf/4.4.2/../../../../arm-elf/lib/thumb/interwork/libstdc++.a(vterminate.o)
 .debug_ranges  0x00000710       0x88 /vagrant/gnuarm/lib/gcc/arm-elf/4.4.2/../../../../arm-elf/lib/thumb/interwork/libstdc++.a(class_type_info.o)
 .debug_ranges  0x00000798      0xfd0 /vagrant/gnuarm/lib/gcc/arm-elf/4.4.2/../../../../arm-elf/lib/thumb/interwork/libstdc++.a(cp-demangle.o)
 .debug_ranges  0x00001768       0x30 /vagrant/gnuarm/lib/gcc/arm-elf/4.4.2/../../../../arm-elf/lib/thumb/interwork/libstdc++.a(eh_type.o)
 .debug_ranges  0x00001798       0x40 /vagrant/gnuarm/lib/gcc/arm-elf/4.4.2/thumb/interwork/libgcc.a(_muldi3.o)
 .debug_ranges  0x000017d8       0xe0 /vagrant/gnuarm/lib/gcc/arm-elf/4.4.2/thumb/interwork/libgcc.a(_divdi3.o)
 .debug_ranges  0x000018b8       0x38 /vagrant/gnuarm/lib/gcc/arm-elf/4.4.2/thumb/interwork/libgcc.a(unwind-sjlj.o)
 .debug_ranges  0x000018f0       0x28 /vagrant/gnuarm/lib/gcc/arm-elf/4.4.2/../../../../arm-elf/lib/thumb/interwork/libc.a(lib_a-fvwrite.o)
 .debug_ranges  0x00001918       0x60 /vagrant/gnuarm/lib/gcc/arm-elf/4.4.2/../../../../arm-elf/lib/thumb/interwork/libc.a(lib_a-mallocr.o)
 .debug_ranges  0x00001978       0x68 /vagrant/gnuarm/lib/gcc/arm-elf/4.4.2/../../../../arm-elf/lib/thumb/interwork/libc.a(lib_a-reallocr.o)
 .debug_ranges  0x000019e0      0x138 /vagrant/gnuarm/lib/gcc/arm-elf/4.4.2/../../../../arm-elf/lib/thumb/interwork/libc.a(lib_a-svfprintf.o)
 .debug_ranges  0x00001b18      0x220 /vagrant/gnuarm/lib/gcc/arm-elf/4.4.2/../../../../arm-elf/lib/thumb/interwork/libc.a(lib_a-syscalls.o)
 .debug_ranges  0x00001d38       0x30 /vagrant/gnuarm/lib/gcc/arm-elf/4.4.2/../../../../arm-elf/lib/thumb/interwork/libc.a(lib_a-fflush.o)
 .debug_ranges  0x00001d68       0x60 /vagrant/gnuarm/lib/gcc/arm-elf/4.4.2/../../../../arm-elf/lib/thumb/interwork/libc.a(lib_a-fwalk.o)
 .debug_ranges  0x00001dc8       0x80 /vagrant/gnuarm/lib/gcc/arm-elf/4.4.2/../../../../arm-elf/lib/thumb/interwork/libc.a(lib_a-mprec.o)
 .debug_ranges  0x00001e48       0x28 /vagrant/gnuarm/lib/gcc/arm-elf/4.4.2/../../../../arm-elf/lib/thumb/interwork/libc.a(lib_a-svfiprintf.o)
 .debug_ranges  0x00001e70       0x18 /vagrant/gnuarm/lib/gcc/arm-elf/4.4.2/../../../../arm-elf/lib/thumb/interwork/libc.a(lib_a-callocr.o)

.debug_str      0x00000000     0x4e05
 .debug_str     0x00000000      0x155 /vagrant/gnuarm/lib/gcc/arm-elf/4.4.2/../../../../arm-elf/lib/thumb/interwork/libstdc++.a(pure.o)
                                0x18e (size before relaxing)
 .debug_str     0x00000155      0x7cd /vagrant/gnuarm/lib/gcc/arm-elf/4.4.2/../../../../arm-elf/lib/thumb/interwork/libstdc++.a(eh_personality.o)
                                0xa1f (size before relaxing)
 .debug_str     0x00000922      0x186 /vagrant/gnuarm/lib/gcc/arm-elf/4.4.2/../../../../arm-elf/lib/thumb/interwork/libstdc++.a(eh_terminate.o)
                                0x3b9 (size before relaxing)
 .debug_str     0x00000aa8      0x103 /vagrant/gnuarm/lib/gcc/arm-elf/4.4.2/../../../../arm-elf/lib/thumb/interwork/libstdc++.a(eh_throw.o)
                                0x527 (size before relaxing)
 .debug_str     0x00000bab       0x41 /vagrant/gnuarm/lib/gcc/arm-elf/4.4.2/../../../../arm-elf/lib/thumb/interwork/libstdc++.a(eh_unex_handler.o)
                                0x194 (size before relaxing)
 .debug_str     0x00000bec      0x2e1 /vagrant/gnuarm/lib/gcc/arm-elf/4.4.2/../../../../arm-elf/lib/thumb/interwork/libstdc++.a(eh_alloc.o)
                                0x7cb (size before relaxing)
 .debug_str     0x00000ecd       0x4e /vagrant/gnuarm/lib/gcc/arm-elf/4.4.2/../../../../arm-elf/lib/thumb/interwork/libstdc++.a(eh_call.o)
                                0x4c4 (size before relaxing)
 .debug_str     0x00000f1b       0xd2 /vagrant/gnuarm/lib/gcc/arm-elf/4.4.2/../../../../arm-elf/lib/thumb/interwork/libstdc++.a(eh_catch.o)
                                0x593 (size before relaxing)
 .debug_str     0x00000fed      0x17b /vagrant/gnuarm/lib/gcc/arm-elf/4.4.2/../../../../arm-elf/lib/thumb/interwork/libstdc++.a(eh_exception.o)
                                0x24c (size before relaxing)
 .debug_str     0x00001168       0x65 /vagrant/gnuarm/lib/gcc/arm-elf/4.4.2/../../../../arm-elf/lib/thumb/interwork/libstdc++.a(eh_globals.o)
                                0x4d9 (size before relaxing)
 .debug_str     0x000011cd       0x41 /vagrant/gnuarm/lib/gcc/arm-elf/4.4.2/../../../../arm-elf/lib/thumb/interwork/libstdc++.a(eh_term_handler.o)
                                0x191 (size before relaxing)
 .debug_str     0x0000120e      0x4ab /vagrant/gnuarm/lib/gcc/arm-elf/4.4.2/../../../../arm-elf/lib/thumb/interwork/libstdc++.a(si_class_type_info.o)
                                0x598 (size before relaxing)
 .debug_str     0x000016b9      0x1ad /vagrant/gnuarm/lib/gcc/arm-elf/4.4.2/../../../../arm-elf/lib/thumb/interwork/libstdc++.a(tinfo.o)
                                0x344 (size before relaxing)
 .debug_str     0x00001866      0x481 /vagrant/gnuarm/lib/gcc/arm-elf/4.4.2/../../../../arm-elf/lib/thumb/interwork/libstdc++.a(vterminate.o)
                                0x6f3 (size before relaxing)
 .debug_str     0x00001ce7      0x276 /vagrant/gnuarm/lib/gcc/arm-elf/4.4.2/../../../../arm-elf/lib/thumb/interwork/libstdc++.a(class_type_info.o)
                                0x617 (size before relaxing)
 .debug_str     0x00001f5d     0x1151 /vagrant/gnuarm/lib/gcc/arm-elf/4.4.2/../../../../arm-elf/lib/thumb/interwork/libstdc++.a(cp-demangle.o)
                               0x133c (size before relaxing)
 .debug_str     0x000030ae       0x56 /vagrant/gnuarm/lib/gcc/arm-elf/4.4.2/../../../../arm-elf/lib/thumb/interwork/libstdc++.a(eh_type.o)
                                0x46c (size before relaxing)
 .debug_str     0x00003104       0xce /vagrant/gnuarm/lib/gcc/arm-elf/4.4.2/thumb/interwork/libgcc.a(_muldi3.o)
                                0x183 (size before relaxing)
 .debug_str     0x000031d2       0x3c /vagrant/gnuarm/lib/gcc/arm-elf/4.4.2/thumb/interwork/libgcc.a(_divdi3.o)
                                0x1b6 (size before relaxing)
 .debug_str     0x0000320e      0x3a5 /vagrant/gnuarm/lib/gcc/arm-elf/4.4.2/thumb/interwork/libgcc.a(unwind-sjlj.o)
                                0x622 (size before relaxing)
 .debug_str     0x000035b3       0x3c /vagrant/gnuarm/lib/gcc/arm-elf/4.4.2/../../../../arm-elf/lib/thumb/interwork/libc.a(lib_a-abort.o)
                                 0xd1 (size before relaxing)
 .debug_str     0x000035ef       0x4f /vagrant/gnuarm/lib/gcc/arm-elf/4.4.2/../../../../arm-elf/lib/thumb/interwork/libc.a(lib_a-fputc.o)
                                0x4a5 (size before relaxing)
 .debug_str     0x0000363e       0x80 /vagrant/gnuarm/lib/gcc/arm-elf/4.4.2/../../../../arm-elf/lib/thumb/interwork/libc.a(lib_a-fputs.o)
                                0x4e3 (size before relaxing)
 .debug_str     0x000036be       0x62 /vagrant/gnuarm/lib/gcc/arm-elf/4.4.2/../../../../arm-elf/lib/thumb/interwork/libc.a(lib_a-fvwrite.o)
                                0x4ee (size before relaxing)
 .debug_str     0x00003720       0x47 /vagrant/gnuarm/lib/gcc/arm-elf/4.4.2/../../../../arm-elf/lib/thumb/interwork/libc.a(lib_a-fwrite.o)
                                0x4ea (size before relaxing)
 .debug_str     0x00003767       0x55 /vagrant/gnuarm/lib/gcc/arm-elf/4.4.2/../../../../arm-elf/lib/thumb/interwork/libc.a(lib_a-impure.o)
                                0x4a5 (size before relaxing)
 .debug_str     0x000037bc       0x43 /vagrant/gnuarm/lib/gcc/arm-elf/4.4.2/../../../../arm-elf/lib/thumb/interwork/libc.a(lib_a-malloc.o)
                                0x4a6 (size before relaxing)
 .debug_str     0x000037ff      0x204 /vagrant/gnuarm/lib/gcc/arm-elf/4.4.2/../../../../arm-elf/lib/thumb/interwork/libc.a(lib_a-mallocr.o)
                                0x67b (size before relaxing)
 .debug_str     0x00003a03       0x4c /vagrant/gnuarm/lib/gcc/arm-elf/4.4.2/../../../../arm-elf/lib/thumb/interwork/libc.a(lib_a-memchr.o)
                                 0xf4 (size before relaxing)
 .debug_str     0x00003a4f       0x3e /vagrant/gnuarm/lib/gcc/arm-elf/4.4.2/../../../../arm-elf/lib/thumb/interwork/libc.a(lib_a-memcmp.o)
                                 0xda (size before relaxing)
 .debug_str     0x00003a8d       0x65 /vagrant/gnuarm/lib/gcc/arm-elf/4.4.2/../../../../arm-elf/lib/thumb/interwork/libc.a(lib_a-memcpy.o)
                                0x101 (size before relaxing)
 .debug_str     0x00003af2       0x49 /vagrant/gnuarm/lib/gcc/arm-elf/4.4.2/../../../../arm-elf/lib/thumb/interwork/libc.a(lib_a-memmove.o)
                                0x10d (size before relaxing)
 .debug_str     0x00003b3b       0x4b /vagrant/gnuarm/lib/gcc/arm-elf/4.4.2/../../../../arm-elf/lib/thumb/interwork/libc.a(lib_a-memset.o)
                                 0xee (size before relaxing)
 .debug_str     0x00003b86       0x69 /vagrant/gnuarm/lib/gcc/arm-elf/4.4.2/../../../../arm-elf/lib/thumb/interwork/libc.a(lib_a-mlock.o)
                                0x4ad (size before relaxing)
 .debug_str     0x00003bef       0x3c /vagrant/gnuarm/lib/gcc/arm-elf/4.4.2/../../../../arm-elf/lib/thumb/interwork/libc.a(lib_a-putc.o)
                                0x49d (size before relaxing)
 .debug_str     0x00003c2b       0x40 /vagrant/gnuarm/lib/gcc/arm-elf/4.4.2/../../../../arm-elf/lib/thumb/interwork/libc.a(lib_a-realloc.o)
                                0x49e (size before relaxing)
 .debug_str     0x00003c6b       0x54 /vagrant/gnuarm/lib/gcc/arm-elf/4.4.2/../../../../arm-elf/lib/thumb/interwork/libc.a(lib_a-reallocr.o)
                                0x54d (size before relaxing)
 .debug_str     0x00003cbf       0x8b /vagrant/gnuarm/lib/gcc/arm-elf/4.4.2/../../../../arm-elf/lib/thumb/interwork/libc.a(lib_a-signal.o)
                                0x4f7 (size before relaxing)
 .debug_str     0x00003d4a       0x49 /vagrant/gnuarm/lib/gcc/arm-elf/4.4.2/../../../../arm-elf/lib/thumb/interwork/libc.a(lib_a-signalr.o)
                                0x493 (size before relaxing)
 .debug_str     0x00003d93       0x6b /vagrant/gnuarm/lib/gcc/arm-elf/4.4.2/../../../../arm-elf/lib/thumb/interwork/libc.a(lib_a-sprintf.o)
                                0x4c8 (size before relaxing)
 .debug_str     0x00003dfe       0x43 /vagrant/gnuarm/lib/gcc/arm-elf/4.4.2/../../../../arm-elf/lib/thumb/interwork/libc.a(lib_a-strcmp.o)
                                 0xd8 (size before relaxing)
 .debug_str     0x00003e41       0x43 /vagrant/gnuarm/lib/gcc/arm-elf/4.4.2/../../../../arm-elf/lib/thumb/interwork/libc.a(lib_a-strcpy.o)
                                 0xd8 (size before relaxing)
 .debug_str     0x00003e84       0x4b /vagrant/gnuarm/lib/gcc/arm-elf/4.4.2/../../../../arm-elf/lib/thumb/interwork/libc.a(lib_a-strlen.o)
                                 0xe7 (size before relaxing)
 .debug_str     0x00003ecf       0x40 /vagrant/gnuarm/lib/gcc/arm-elf/4.4.2/../../../../arm-elf/lib/thumb/interwork/libc.a(lib_a-strncmp.o)
                                 0xdc (size before relaxing)
 .debug_str     0x00003f0f       0x40 /vagrant/gnuarm/lib/gcc/arm-elf/4.4.2/../../../../arm-elf/lib/thumb/interwork/libc.a(lib_a-strncpy.o)
                                0x104 (size before relaxing)
 .debug_str     0x00003f4f      0x138 /vagrant/gnuarm/lib/gcc/arm-elf/4.4.2/../../../../arm-elf/lib/thumb/interwork/libc.a(lib_a-svfprintf.o)
                                0x64d (size before relaxing)
 .debug_str     0x00004087      0x314 /vagrant/gnuarm/lib/gcc/arm-elf/4.4.2/../../../../arm-elf/lib/thumb/interwork/libc.a(lib_a-syscalls.o)
                                0x7c6 (size before relaxing)
 .debug_str     0x0000439b       0x3b /vagrant/gnuarm/lib/gcc/arm-elf/4.4.2/../../../../arm-elf/lib/thumb/interwork/libc.a(lib_a-syswrite.o)
                                0x498 (size before relaxing)
 .debug_str     0x000043d6       0x46 /vagrant/gnuarm/lib/gcc/arm-elf/4.4.2/../../../../arm-elf/lib/thumb/interwork/libc.a(lib_a-wbuf.o)
                                0x49b (size before relaxing)
 .debug_str     0x0000441c       0x48 /vagrant/gnuarm/lib/gcc/arm-elf/4.4.2/../../../../arm-elf/lib/thumb/interwork/libc.a(lib_a-writer.o)
                                0x499 (size before relaxing)
 .debug_str     0x00004464       0x42 /vagrant/gnuarm/lib/gcc/arm-elf/4.4.2/../../../../arm-elf/lib/thumb/interwork/libc.a(lib_a-wsetup.o)
                                0x497 (size before relaxing)
 .debug_str     0x000044a6       0xfe /vagrant/gnuarm/lib/gcc/arm-elf/4.4.2/../../../../arm-elf/lib/thumb/interwork/libc.a(lib_a-dtoa.o)
                                0x58b (size before relaxing)
 .debug_str     0x000045a4       0x3d /vagrant/gnuarm/lib/gcc/arm-elf/4.4.2/../../../../arm-elf/lib/thumb/interwork/libc.a(lib_a-errno.o)
                                0x48d (size before relaxing)
 .debug_str     0x000045e1       0x51 /vagrant/gnuarm/lib/gcc/arm-elf/4.4.2/../../../../arm-elf/lib/thumb/interwork/libc.a(lib_a-fflush.o)
                                0x4c7 (size before relaxing)
 .debug_str     0x00004632       0xfe /vagrant/gnuarm/lib/gcc/arm-elf/4.4.2/../../../../arm-elf/lib/thumb/interwork/libc.a(lib_a-findfp.o)
                                0x57f (size before relaxing)
 .debug_str     0x00004730       0x3c /vagrant/gnuarm/lib/gcc/arm-elf/4.4.2/../../../../arm-elf/lib/thumb/interwork/libc.a(lib_a-freer.o)
                                0x5cd (size before relaxing)
 .debug_str     0x0000476c       0x5a /vagrant/gnuarm/lib/gcc/arm-elf/4.4.2/../../../../arm-elf/lib/thumb/interwork/libc.a(lib_a-fwalk.o)
                                0x4c0 (size before relaxing)
 .debug_str     0x000047c6      0x1fe /vagrant/gnuarm/lib/gcc/arm-elf/4.4.2/../../../../arm-elf/lib/thumb/interwork/libc.a(lib_a-locale.o)
                                0x6e6 (size before relaxing)
 .debug_str     0x000049c4       0x4f /vagrant/gnuarm/lib/gcc/arm-elf/4.4.2/../../../../arm-elf/lib/thumb/interwork/libc.a(lib_a-makebuf.o)
                                0x591 (size before relaxing)
 .debug_str     0x00004a13       0xf4 /vagrant/gnuarm/lib/gcc/arm-elf/4.4.2/../../../../arm-elf/lib/thumb/interwork/libc.a(lib_a-mprec.o)
                                0x598 (size before relaxing)
 .debug_str     0x00004b07       0x6f /vagrant/gnuarm/lib/gcc/arm-elf/4.4.2/../../../../arm-elf/lib/thumb/interwork/libc.a(lib_a-reent.o)
                                0x4ca (size before relaxing)
 .debug_str     0x00004b76       0x6d /vagrant/gnuarm/lib/gcc/arm-elf/4.4.2/../../../../arm-elf/lib/thumb/interwork/libc.a(lib_a-s_fpclassify.o)
                                0x12c (size before relaxing)
 .debug_str     0x00004be3       0x69 /vagrant/gnuarm/lib/gcc/arm-elf/4.4.2/../../../../arm-elf/lib/thumb/interwork/libc.a(lib_a-stdio.o)
                                0x4cc (size before relaxing)
 .debug_str     0x00004c4c       0x1a /vagrant/gnuarm/lib/gcc/arm-elf/4.4.2/../../../../arm-elf/lib/thumb/interwork/libc.a(lib_a-svfiprintf.o)
                                0x5cd (size before relaxing)
 .debug_str     0x00004c66       0x19 /vagrant/gnuarm/lib/gcc/arm-elf/4.4.2/../../../../arm-elf/lib/thumb/interwork/libc.a(lib_a-callocr.o)
                                0x4cc (size before relaxing)
 .debug_str     0x00004c7f       0x3f /vagrant/gnuarm/lib/gcc/arm-elf/4.4.2/../../../../arm-elf/lib/thumb/interwork/libc.a(lib_a-closer.o)
                                0x489 (size before relaxing)
 .debug_str     0x00004cbe       0x45 /vagrant/gnuarm/lib/gcc/arm-elf/4.4.2/../../../../arm-elf/lib/thumb/interwork/libc.a(lib_a-fclose.o)
                                0x4a1 (size before relaxing)
 .debug_str     0x00004d03       0x45 /vagrant/gnuarm/lib/gcc/arm-elf/4.4.2/../../../../arm-elf/lib/thumb/interwork/libc.a(lib_a-fstatr.o)
                                0x57c (size before relaxing)
 .debug_str     0x00004d48       0x41 /vagrant/gnuarm/lib/gcc/arm-elf/4.4.2/../../../../arm-elf/lib/thumb/interwork/libc.a(lib_a-isattyr.o)
                                0x48b (size before relaxing)
 .debug_str     0x00004d89       0x3f /vagrant/gnuarm/lib/gcc/arm-elf/4.4.2/../../../../arm-elf/lib/thumb/interwork/libc.a(lib_a-lseekr.o)
                                0x497 (size before relaxing)
 .debug_str     0x00004dc8       0x3d /vagrant/gnuarm/lib/gcc/arm-elf/4.4.2/../../../../arm-elf/lib/thumb/interwork/libc.a(lib_a-readr.o)
                                0x497 (size before relaxing)

.debug_frame    0x00000000       0xa0
 .debug_frame   0x00000000       0x28 /vagrant/gnuarm/lib/gcc/arm-elf/4.4.2/thumb/interwork/libgcc.a(_udivsi3.o)
 .debug_frame   0x00000028       0x28 /vagrant/gnuarm/lib/gcc/arm-elf/4.4.2/thumb/interwork/libgcc.a(_divsi3.o)
 .debug_frame   0x00000050       0x28 /vagrant/gnuarm/lib/gcc/arm-elf/4.4.2/thumb/interwork/libgcc.a(_umodsi3.o)
 .debug_frame   0x00000078       0x28 /vagrant/gnuarm/lib/gcc/arm-elf/4.4.2/thumb/interwork/libgcc.a(_modsi3.o)

Cross Reference Table

Symbol                                            File
AssertDeviceConstructor                           build/rtoscalls.o
                                                  ../ecrobot/../ecrobot/libecrobot++.a(TouchSensor.o)
                                                  ../ecrobot/../ecrobot/libecrobot++.a(Motor.o)
                                                  ../ecrobot/../ecrobot/libecrobot++.a(LightSensor.o)
                                                  ../ecrobot/../ecrobot/libecrobot++.a(I2c.o)
EventManager::EventManager()                      build/MEXU.o
EventManager::EventManager()                      build/MEXU.o
                                                  build/main.o
EventManager::addSTM(StateMachine*)               build/MEXU.o
                                                  build/stm.o
EventManager::execute()                           build/MEXU.o
                                                  build/main.o
EventManager::sendEvent(MEXUEvent*)               build/MEXU.o
EventManager::sendEvent(StateMachine*, int)       build/MEXU.o
MEXUEvent::MEXUEvent(StateMachine*, int)          build/MEXU.o
MEXUEvent::MEXUEvent(StateMachine*, int)          build/MEXU.o
MEXUEventQueue::deq()                             build/MEXU.o
MEXUEventQueue::enq(MEXUEvent*)                   build/MEXU.o
MEXUObject::MEXUObject()                          build/MEXU.o
MEXUObject::MEXUObject()                          build/MEXU.o
MEXUObject::_instances                            build/MEXU.o
MEXUObject::_instances_num                        build/MEXU.o
MEXUObject::instances()                           build/MEXU.o
MEXUObject::instances_num()                       build/MEXU.o
MEXUTimerEvent::MEXUTimerEvent(int, StateMachine*, int) build/MEXU.o
MEXUTimerEvent::MEXUTimerEvent(int, StateMachine*, int) build/MEXU.o
MEXUTimerEventManager::add(int, StateMachine*, int) build/MEXU.o
MEXUTimerEventManager::tick()                     build/MEXU.o
                                                  build/main.o
NXT_COLORSENSOR_PROTOCOLS                         ../ecrobot/../ecrobot/libecrobot.a(ecrobot_interface.o)
NXT_Entry_Point                                   build/nxt_entry_point.o
                                                  build/nxt_binary_header.o
Sleep                                             build/rtoscalls.o
SleepI2C                                          build/rtoscalls.o
                                                  ../ecrobot/../ecrobot/libecrobot++.a(I2c.o)
SleeperMonitor                                    build/rtoscalls.o
StateMachine::StateMachine()                      build/MEXU.o
StateMachine::StateMachine()                      build/MEXU.o
                                                  build/stm.o
StateMachine::sendEvent(int)                      build/MEXU.o
                                                  build/main.o
Transporter::action(Transporter::states)          build/stm.o
Transporter::execute(MEXUEvent*)                  build/stm.o
Transporter::matrix                               build/stm.o
_Balloc                                           /vagrant/gnuarm/lib/gcc/arm-elf/4.4.2/../../../../arm-elf/lib/thumb/interwork/libc.a(lib_a-mprec.o)
                                                  /vagrant/gnuarm/lib/gcc/arm-elf/4.4.2/../../../../arm-elf/lib/thumb/interwork/libc.a(lib_a-dtoa.o)
_Bfree                                            /vagrant/gnuarm/lib/gcc/arm-elf/4.4.2/../../../../arm-elf/lib/thumb/interwork/libc.a(lib_a-mprec.o)
                                                  /vagrant/gnuarm/lib/gcc/arm-elf/4.4.2/../../../../arm-elf/lib/thumb/interwork/libc.a(lib_a-dtoa.o)
_PathLocale                                       /vagrant/gnuarm/lib/gcc/arm-elf/4.4.2/../../../../arm-elf/lib/thumb/interwork/libc.a(lib_a-locale.o)
_Unwind_Backtrace                                 /vagrant/gnuarm/lib/gcc/arm-elf/4.4.2/thumb/interwork/libgcc.a(unwind-sjlj.o)
_Unwind_DeleteException                           /vagrant/gnuarm/lib/gcc/arm-elf/4.4.2/thumb/interwork/libgcc.a(unwind-sjlj.o)
                                                  /vagrant/gnuarm/lib/gcc/arm-elf/4.4.2/../../../../arm-elf/lib/thumb/interwork/libstdc++.a(eh_catch.o)
_Unwind_FindEnclosingFunction                     /vagrant/gnuarm/lib/gcc/arm-elf/4.4.2/thumb/interwork/libgcc.a(unwind-sjlj.o)
_Unwind_GetCFA                                    /vagrant/gnuarm/lib/gcc/arm-elf/4.4.2/thumb/interwork/libgcc.a(unwind-sjlj.o)
_Unwind_GetDataRelBase                            /vagrant/gnuarm/lib/gcc/arm-elf/4.4.2/thumb/interwork/libgcc.a(unwind-sjlj.o)
                                                  /vagrant/gnuarm/lib/gcc/arm-elf/4.4.2/../../../../arm-elf/lib/thumb/interwork/libstdc++.a(eh_personality.o)
_Unwind_GetGR                                     /vagrant/gnuarm/lib/gcc/arm-elf/4.4.2/thumb/interwork/libgcc.a(unwind-sjlj.o)
_Unwind_GetIP                                     /vagrant/gnuarm/lib/gcc/arm-elf/4.4.2/thumb/interwork/libgcc.a(unwind-sjlj.o)
_Unwind_GetIPInfo                                 /vagrant/gnuarm/lib/gcc/arm-elf/4.4.2/thumb/interwork/libgcc.a(unwind-sjlj.o)
                                                  /vagrant/gnuarm/lib/gcc/arm-elf/4.4.2/../../../../arm-elf/lib/thumb/interwork/libstdc++.a(eh_personality.o)
_Unwind_GetLanguageSpecificData                   /vagrant/gnuarm/lib/gcc/arm-elf/4.4.2/thumb/interwork/libgcc.a(unwind-sjlj.o)
                                                  /vagrant/gnuarm/lib/gcc/arm-elf/4.4.2/../../../../arm-elf/lib/thumb/interwork/libstdc++.a(eh_personality.o)
_Unwind_GetRegionStart                            /vagrant/gnuarm/lib/gcc/arm-elf/4.4.2/thumb/interwork/libgcc.a(unwind-sjlj.o)
                                                  /vagrant/gnuarm/lib/gcc/arm-elf/4.4.2/../../../../arm-elf/lib/thumb/interwork/libstdc++.a(eh_personality.o)
_Unwind_GetTextRelBase                            /vagrant/gnuarm/lib/gcc/arm-elf/4.4.2/thumb/interwork/libgcc.a(unwind-sjlj.o)
                                                  /vagrant/gnuarm/lib/gcc/arm-elf/4.4.2/../../../../arm-elf/lib/thumb/interwork/libstdc++.a(eh_personality.o)
_Unwind_SetGR                                     /vagrant/gnuarm/lib/gcc/arm-elf/4.4.2/thumb/interwork/libgcc.a(unwind-sjlj.o)
                                                  /vagrant/gnuarm/lib/gcc/arm-elf/4.4.2/../../../../arm-elf/lib/thumb/interwork/libstdc++.a(eh_personality.o)
_Unwind_SetIP                                     /vagrant/gnuarm/lib/gcc/arm-elf/4.4.2/thumb/interwork/libgcc.a(unwind-sjlj.o)
                                                  /vagrant/gnuarm/lib/gcc/arm-elf/4.4.2/../../../../arm-elf/lib/thumb/interwork/libstdc++.a(eh_personality.o)
_Unwind_SjLj_ForcedUnwind                         /vagrant/gnuarm/lib/gcc/arm-elf/4.4.2/thumb/interwork/libgcc.a(unwind-sjlj.o)
_Unwind_SjLj_RaiseException                       /vagrant/gnuarm/lib/gcc/arm-elf/4.4.2/thumb/interwork/libgcc.a(unwind-sjlj.o)
                                                  /vagrant/gnuarm/lib/gcc/arm-elf/4.4.2/../../../../arm-elf/lib/thumb/interwork/libstdc++.a(eh_throw.o)
_Unwind_SjLj_Register                             /vagrant/gnuarm/lib/gcc/arm-elf/4.4.2/thumb/interwork/libgcc.a(unwind-sjlj.o)
                                                  /vagrant/gnuarm/lib/gcc/arm-elf/4.4.2/../../../../arm-elf/lib/thumb/interwork/libstdc++.a(vterminate.o)
                                                  /vagrant/gnuarm/lib/gcc/arm-elf/4.4.2/../../../../arm-elf/lib/thumb/interwork/libstdc++.a(eh_catch.o)
                                                  /vagrant/gnuarm/lib/gcc/arm-elf/4.4.2/../../../../arm-elf/lib/thumb/interwork/libstdc++.a(eh_alloc.o)
                                                  /vagrant/gnuarm/lib/gcc/arm-elf/4.4.2/../../../../arm-elf/lib/thumb/interwork/libstdc++.a(eh_terminate.o)
                                                  /vagrant/gnuarm/lib/gcc/arm-elf/4.4.2/../../../../arm-elf/lib/thumb/interwork/libstdc++.a(eh_personality.o)
_Unwind_SjLj_Resume                               /vagrant/gnuarm/lib/gcc/arm-elf/4.4.2/thumb/interwork/libgcc.a(unwind-sjlj.o)
                                                  /vagrant/gnuarm/lib/gcc/arm-elf/4.4.2/../../../../arm-elf/lib/thumb/interwork/libstdc++.a(vterminate.o)
                                                  /vagrant/gnuarm/lib/gcc/arm-elf/4.4.2/../../../../arm-elf/lib/thumb/interwork/libstdc++.a(eh_catch.o)
                                                  /vagrant/gnuarm/lib/gcc/arm-elf/4.4.2/../../../../arm-elf/lib/thumb/interwork/libstdc++.a(eh_alloc.o)
                                                  /vagrant/gnuarm/lib/gcc/arm-elf/4.4.2/../../../../arm-elf/lib/thumb/interwork/libstdc++.a(eh_terminate.o)
                                                  /vagrant/gnuarm/lib/gcc/arm-elf/4.4.2/../../../../arm-elf/lib/thumb/interwork/libstdc++.a(eh_personality.o)
_Unwind_SjLj_Resume_or_Rethrow                    /vagrant/gnuarm/lib/gcc/arm-elf/4.4.2/thumb/interwork/libgcc.a(unwind-sjlj.o)
                                                  /vagrant/gnuarm/lib/gcc/arm-elf/4.4.2/../../../../arm-elf/lib/thumb/interwork/libstdc++.a(eh_throw.o)
_Unwind_SjLj_Unregister                           /vagrant/gnuarm/lib/gcc/arm-elf/4.4.2/thumb/interwork/libgcc.a(unwind-sjlj.o)
                                                  /vagrant/gnuarm/lib/gcc/arm-elf/4.4.2/../../../../arm-elf/lib/thumb/interwork/libstdc++.a(vterminate.o)
                                                  /vagrant/gnuarm/lib/gcc/arm-elf/4.4.2/../../../../arm-elf/lib/thumb/interwork/libstdc++.a(eh_catch.o)
                                                  /vagrant/gnuarm/lib/gcc/arm-elf/4.4.2/../../../../arm-elf/lib/thumb/interwork/libstdc++.a(eh_alloc.o)
                                                  /vagrant/gnuarm/lib/gcc/arm-elf/4.4.2/../../../../arm-elf/lib/thumb/interwork/libstdc++.a(eh_terminate.o)
                                                  /vagrant/gnuarm/lib/gcc/arm-elf/4.4.2/../../../../arm-elf/lib/thumb/interwork/libstdc++.a(eh_personality.o)
___kernel_call_texrtn_from_arm                    linker stubs
__adddf3                                          /vagrant/gnuarm/lib/gcc/arm-elf/4.4.2/thumb/interwork/libgcc.a(_arm_addsubdf3.o)
                                                  /vagrant/gnuarm/lib/gcc/arm-elf/4.4.2/../../../../arm-elf/lib/thumb/interwork/libc.a(lib_a-dtoa.o)
__aeabi_cdcmpeq                                   /vagrant/gnuarm/lib/gcc/arm-elf/4.4.2/thumb/interwork/libgcc.a(_arm_cmpdf2.o)
__aeabi_cdcmple                                   /vagrant/gnuarm/lib/gcc/arm-elf/4.4.2/thumb/interwork/libgcc.a(_arm_cmpdf2.o)
__aeabi_cdrcmple                                  /vagrant/gnuarm/lib/gcc/arm-elf/4.4.2/thumb/interwork/libgcc.a(_arm_cmpdf2.o)
__aeabi_d2iz                                      /vagrant/gnuarm/lib/gcc/arm-elf/4.4.2/thumb/interwork/libgcc.a(_arm_fixdfsi.o)
__aeabi_dadd                                      /vagrant/gnuarm/lib/gcc/arm-elf/4.4.2/thumb/interwork/libgcc.a(_arm_addsubdf3.o)
__aeabi_dcmpeq                                    /vagrant/gnuarm/lib/gcc/arm-elf/4.4.2/thumb/interwork/libgcc.a(_arm_cmpdf2.o)
__aeabi_dcmpge                                    /vagrant/gnuarm/lib/gcc/arm-elf/4.4.2/thumb/interwork/libgcc.a(_arm_cmpdf2.o)
__aeabi_dcmpgt                                    /vagrant/gnuarm/lib/gcc/arm-elf/4.4.2/thumb/interwork/libgcc.a(_arm_cmpdf2.o)
__aeabi_dcmple                                    /vagrant/gnuarm/lib/gcc/arm-elf/4.4.2/thumb/interwork/libgcc.a(_arm_cmpdf2.o)
__aeabi_dcmplt                                    /vagrant/gnuarm/lib/gcc/arm-elf/4.4.2/thumb/interwork/libgcc.a(_arm_cmpdf2.o)
__aeabi_ddiv                                      /vagrant/gnuarm/lib/gcc/arm-elf/4.4.2/thumb/interwork/libgcc.a(_arm_muldivdf3.o)
__aeabi_dmul                                      /vagrant/gnuarm/lib/gcc/arm-elf/4.4.2/thumb/interwork/libgcc.a(_arm_muldivdf3.o)
__aeabi_drsub                                     /vagrant/gnuarm/lib/gcc/arm-elf/4.4.2/thumb/interwork/libgcc.a(_arm_addsubdf3.o)
__aeabi_dsub                                      /vagrant/gnuarm/lib/gcc/arm-elf/4.4.2/thumb/interwork/libgcc.a(_arm_addsubdf3.o)
__aeabi_f2d                                       /vagrant/gnuarm/lib/gcc/arm-elf/4.4.2/thumb/interwork/libgcc.a(_arm_addsubdf3.o)
__aeabi_i2d                                       /vagrant/gnuarm/lib/gcc/arm-elf/4.4.2/thumb/interwork/libgcc.a(_arm_addsubdf3.o)
__aeabi_idiv                                      /vagrant/gnuarm/lib/gcc/arm-elf/4.4.2/thumb/interwork/libgcc.a(_divsi3.o)
__aeabi_idiv0                                     /vagrant/gnuarm/lib/gcc/arm-elf/4.4.2/thumb/interwork/libgcc.a(_dvmd_tls.o)
__aeabi_idivmod                                   /vagrant/gnuarm/lib/gcc/arm-elf/4.4.2/thumb/interwork/libgcc.a(_divsi3.o)
__aeabi_l2d                                       /vagrant/gnuarm/lib/gcc/arm-elf/4.4.2/thumb/interwork/libgcc.a(_arm_addsubdf3.o)
__aeabi_ldiv0                                     /vagrant/gnuarm/lib/gcc/arm-elf/4.4.2/thumb/interwork/libgcc.a(_dvmd_tls.o)
__aeabi_ui2d                                      /vagrant/gnuarm/lib/gcc/arm-elf/4.4.2/thumb/interwork/libgcc.a(_arm_addsubdf3.o)
__aeabi_uidiv                                     /vagrant/gnuarm/lib/gcc/arm-elf/4.4.2/thumb/interwork/libgcc.a(_udivsi3.o)
__aeabi_uidivmod                                  /vagrant/gnuarm/lib/gcc/arm-elf/4.4.2/thumb/interwork/libgcc.a(_udivsi3.o)
__aeabi_ul2d                                      /vagrant/gnuarm/lib/gcc/arm-elf/4.4.2/thumb/interwork/libgcc.a(_arm_addsubdf3.o)
__any_on                                          /vagrant/gnuarm/lib/gcc/arm-elf/4.4.2/../../../../arm-elf/lib/thumb/interwork/libc.a(lib_a-mprec.o)
__b2d                                             /vagrant/gnuarm/lib/gcc/arm-elf/4.4.2/../../../../arm-elf/lib/thumb/interwork/libc.a(lib_a-mprec.o)
__bss_end__                                       build/ecrobot_init.o
__bss_start__                                     build/ecrobot_init.o
__clzsi2                                          /vagrant/gnuarm/lib/gcc/arm-elf/4.4.2/thumb/interwork/libgcc.a(_clzsi2.o)
                                                  /vagrant/gnuarm/lib/gcc/arm-elf/4.4.2/thumb/interwork/libgcc.a(_divdi3.o)
__cmpdf2                                          /vagrant/gnuarm/lib/gcc/arm-elf/4.4.2/thumb/interwork/libgcc.a(_arm_cmpdf2.o)
__copybits                                        /vagrant/gnuarm/lib/gcc/arm-elf/4.4.2/../../../../arm-elf/lib/thumb/interwork/libc.a(lib_a-mprec.o)
__ctor_begin                                      build/ecrobot_base.o
__ctor_end                                        build/ecrobot_base.o
__cxa_allocate_dependent_exception                /vagrant/gnuarm/lib/gcc/arm-elf/4.4.2/../../../../arm-elf/lib/thumb/interwork/libstdc++.a(eh_alloc.o)
__cxa_allocate_exception                          /vagrant/gnuarm/lib/gcc/arm-elf/4.4.2/../../../../arm-elf/lib/thumb/interwork/libstdc++.a(eh_alloc.o)
                                                  /vagrant/gnuarm/lib/gcc/arm-elf/4.4.2/../../../../arm-elf/lib/thumb/interwork/libstdc++.a(eh_personality.o)
__cxa_begin_catch                                 /vagrant/gnuarm/lib/gcc/arm-elf/4.4.2/../../../../arm-elf/lib/thumb/interwork/libstdc++.a(eh_catch.o)
                                                  /vagrant/gnuarm/lib/gcc/arm-elf/4.4.2/../../../../arm-elf/lib/thumb/interwork/libstdc++.a(vterminate.o)
                                                  /vagrant/gnuarm/lib/gcc/arm-elf/4.4.2/../../../../arm-elf/lib/thumb/interwork/libstdc++.a(eh_call.o)
                                                  /vagrant/gnuarm/lib/gcc/arm-elf/4.4.2/../../../../arm-elf/lib/thumb/interwork/libstdc++.a(eh_throw.o)
                                                  /vagrant/gnuarm/lib/gcc/arm-elf/4.4.2/../../../../arm-elf/lib/thumb/interwork/libstdc++.a(eh_terminate.o)
                                                  /vagrant/gnuarm/lib/gcc/arm-elf/4.4.2/../../../../arm-elf/lib/thumb/interwork/libstdc++.a(eh_personality.o)
__cxa_call_terminate                              /vagrant/gnuarm/lib/gcc/arm-elf/4.4.2/../../../../arm-elf/lib/thumb/interwork/libstdc++.a(eh_call.o)
                                                  /vagrant/gnuarm/lib/gcc/arm-elf/4.4.2/../../../../arm-elf/lib/thumb/interwork/libstdc++.a(eh_personality.o)
__cxa_call_unexpected                             /vagrant/gnuarm/lib/gcc/arm-elf/4.4.2/../../../../arm-elf/lib/thumb/interwork/libstdc++.a(eh_personality.o)
                                                  /vagrant/gnuarm/lib/gcc/arm-elf/4.4.2/../../../../arm-elf/lib/thumb/interwork/libstdc++.a(eh_catch.o)
                                                  /vagrant/gnuarm/lib/gcc/arm-elf/4.4.2/../../../../arm-elf/lib/thumb/interwork/libstdc++.a(eh_alloc.o)
__cxa_current_exception_type                      /vagrant/gnuarm/lib/gcc/arm-elf/4.4.2/../../../../arm-elf/lib/thumb/interwork/libstdc++.a(eh_type.o)
                                                  /vagrant/gnuarm/lib/gcc/arm-elf/4.4.2/../../../../arm-elf/lib/thumb/interwork/libstdc++.a(vterminate.o)
__cxa_demangle                                    /vagrant/gnuarm/lib/gcc/arm-elf/4.4.2/../../../../arm-elf/lib/thumb/interwork/libstdc++.a(cp-demangle.o)
                                                  /vagrant/gnuarm/lib/gcc/arm-elf/4.4.2/../../../../arm-elf/lib/thumb/interwork/libstdc++.a(vterminate.o)
__cxa_end_catch                                   /vagrant/gnuarm/lib/gcc/arm-elf/4.4.2/../../../../arm-elf/lib/thumb/interwork/libstdc++.a(eh_catch.o)
                                                  /vagrant/gnuarm/lib/gcc/arm-elf/4.4.2/../../../../arm-elf/lib/thumb/interwork/libstdc++.a(vterminate.o)
                                                  /vagrant/gnuarm/lib/gcc/arm-elf/4.4.2/../../../../arm-elf/lib/thumb/interwork/libstdc++.a(eh_terminate.o)
                                                  /vagrant/gnuarm/lib/gcc/arm-elf/4.4.2/../../../../arm-elf/lib/thumb/interwork/libstdc++.a(eh_personality.o)
__cxa_free_dependent_exception                    /vagrant/gnuarm/lib/gcc/arm-elf/4.4.2/../../../../arm-elf/lib/thumb/interwork/libstdc++.a(eh_alloc.o)
__cxa_free_exception                              /vagrant/gnuarm/lib/gcc/arm-elf/4.4.2/../../../../arm-elf/lib/thumb/interwork/libstdc++.a(eh_alloc.o)
                                                  /vagrant/gnuarm/lib/gcc/arm-elf/4.4.2/../../../../arm-elf/lib/thumb/interwork/libstdc++.a(eh_throw.o)
__cxa_get_exception_ptr                           /vagrant/gnuarm/lib/gcc/arm-elf/4.4.2/../../../../arm-elf/lib/thumb/interwork/libstdc++.a(eh_catch.o)
__cxa_get_globals                                 /vagrant/gnuarm/lib/gcc/arm-elf/4.4.2/../../../../arm-elf/lib/thumb/interwork/libstdc++.a(eh_globals.o)
                                                  /vagrant/gnuarm/lib/gcc/arm-elf/4.4.2/../../../../arm-elf/lib/thumb/interwork/libstdc++.a(eh_type.o)
                                                  /vagrant/gnuarm/lib/gcc/arm-elf/4.4.2/../../../../arm-elf/lib/thumb/interwork/libstdc++.a(eh_catch.o)
                                                  /vagrant/gnuarm/lib/gcc/arm-elf/4.4.2/../../../../arm-elf/lib/thumb/interwork/libstdc++.a(eh_alloc.o)
                                                  /vagrant/gnuarm/lib/gcc/arm-elf/4.4.2/../../../../arm-elf/lib/thumb/interwork/libstdc++.a(eh_throw.o)
__cxa_get_globals_fast                            /vagrant/gnuarm/lib/gcc/arm-elf/4.4.2/../../../../arm-elf/lib/thumb/interwork/libstdc++.a(eh_globals.o)
                                                  /vagrant/gnuarm/lib/gcc/arm-elf/4.4.2/../../../../arm-elf/lib/thumb/interwork/libstdc++.a(eh_catch.o)
                                                  /vagrant/gnuarm/lib/gcc/arm-elf/4.4.2/../../../../arm-elf/lib/thumb/interwork/libstdc++.a(eh_personality.o)
__cxa_pure_virtual                                /vagrant/gnuarm/lib/gcc/arm-elf/4.4.2/../../../../arm-elf/lib/thumb/interwork/libstdc++.a(pure.o)
                                                  /vagrant/gnuarm/lib/gcc/arm-elf/4.4.2/../../../../arm-elf/lib/thumb/interwork/libstdc++.a(eh_exception.o)
                                                  build/stm.o
                                                  build/MEXU.o
__cxa_rethrow                                     /vagrant/gnuarm/lib/gcc/arm-elf/4.4.2/../../../../arm-elf/lib/thumb/interwork/libstdc++.a(eh_throw.o)
                                                  /vagrant/gnuarm/lib/gcc/arm-elf/4.4.2/../../../../arm-elf/lib/thumb/interwork/libstdc++.a(vterminate.o)
                                                  /vagrant/gnuarm/lib/gcc/arm-elf/4.4.2/../../../../arm-elf/lib/thumb/interwork/libstdc++.a(eh_personality.o)
__cxa_throw                                       /vagrant/gnuarm/lib/gcc/arm-elf/4.4.2/../../../../arm-elf/lib/thumb/interwork/libstdc++.a(eh_throw.o)
                                                  /vagrant/gnuarm/lib/gcc/arm-elf/4.4.2/../../../../arm-elf/lib/thumb/interwork/libstdc++.a(eh_personality.o)
__cxxabiv1::__class_type_info::__do_catch(std::type_info const*, void**, unsigned int) const /vagrant/gnuarm/lib/gcc/arm-elf/4.4.2/../../../../arm-elf/lib/thumb/interwork/libstdc++.a(class_type_info.o)
                                                  /vagrant/gnuarm/lib/gcc/arm-elf/4.4.2/../../../../arm-elf/lib/thumb/interwork/libstdc++.a(si_class_type_info.o)
__cxxabiv1::__class_type_info::__do_dyncast(long, __cxxabiv1::__class_type_info::__sub_kind, __cxxabiv1::__class_type_info const*, void const*, __cxxabiv1::__class_type_info const*, void const*, __cxxabiv1::__class_type_info::__dyncast_result&) const /vagrant/gnuarm/lib/gcc/arm-elf/4.4.2/../../../../arm-elf/lib/thumb/interwork/libstdc++.a(class_type_info.o)
__cxxabiv1::__class_type_info::__do_find_public_src(long, void const*, __cxxabiv1::__class_type_info const*, void const*) const /vagrant/gnuarm/lib/gcc/arm-elf/4.4.2/../../../../arm-elf/lib/thumb/interwork/libstdc++.a(class_type_info.o)
__cxxabiv1::__class_type_info::__do_upcast(__cxxabiv1::__class_type_info const*, void const*, __cxxabiv1::__class_type_info::__upcast_result&) const /vagrant/gnuarm/lib/gcc/arm-elf/4.4.2/../../../../arm-elf/lib/thumb/interwork/libstdc++.a(class_type_info.o)
                                                  /vagrant/gnuarm/lib/gcc/arm-elf/4.4.2/../../../../arm-elf/lib/thumb/interwork/libstdc++.a(si_class_type_info.o)
__cxxabiv1::__class_type_info::__do_upcast(__cxxabiv1::__class_type_info const*, void**) const /vagrant/gnuarm/lib/gcc/arm-elf/4.4.2/../../../../arm-elf/lib/thumb/interwork/libstdc++.a(class_type_info.o)
                                                  /vagrant/gnuarm/lib/gcc/arm-elf/4.4.2/../../../../arm-elf/lib/thumb/interwork/libstdc++.a(si_class_type_info.o)
__cxxabiv1::__class_type_info::~__class_type_info() /vagrant/gnuarm/lib/gcc/arm-elf/4.4.2/../../../../arm-elf/lib/thumb/interwork/libstdc++.a(class_type_info.o)
__cxxabiv1::__class_type_info::~__class_type_info() /vagrant/gnuarm/lib/gcc/arm-elf/4.4.2/../../../../arm-elf/lib/thumb/interwork/libstdc++.a(class_type_info.o)
                                                  /vagrant/gnuarm/lib/gcc/arm-elf/4.4.2/../../../../arm-elf/lib/thumb/interwork/libstdc++.a(si_class_type_info.o)
__cxxabiv1::__class_type_info::~__class_type_info() /vagrant/gnuarm/lib/gcc/arm-elf/4.4.2/../../../../arm-elf/lib/thumb/interwork/libstdc++.a(class_type_info.o)
__cxxabiv1::__forced_unwind::~__forced_unwind()   /vagrant/gnuarm/lib/gcc/arm-elf/4.4.2/../../../../arm-elf/lib/thumb/interwork/libstdc++.a(eh_exception.o)
__cxxabiv1::__forced_unwind::~__forced_unwind()   /vagrant/gnuarm/lib/gcc/arm-elf/4.4.2/../../../../arm-elf/lib/thumb/interwork/libstdc++.a(eh_exception.o)
__cxxabiv1::__forced_unwind::~__forced_unwind()   /vagrant/gnuarm/lib/gcc/arm-elf/4.4.2/../../../../arm-elf/lib/thumb/interwork/libstdc++.a(eh_exception.o)
__cxxabiv1::__foreign_exception::~__foreign_exception() /vagrant/gnuarm/lib/gcc/arm-elf/4.4.2/../../../../arm-elf/lib/thumb/interwork/libstdc++.a(eh_exception.o)
__cxxabiv1::__foreign_exception::~__foreign_exception() /vagrant/gnuarm/lib/gcc/arm-elf/4.4.2/../../../../arm-elf/lib/thumb/interwork/libstdc++.a(eh_exception.o)
__cxxabiv1::__foreign_exception::~__foreign_exception() /vagrant/gnuarm/lib/gcc/arm-elf/4.4.2/../../../../arm-elf/lib/thumb/interwork/libstdc++.a(eh_exception.o)
__cxxabiv1::__si_class_type_info::__do_dyncast(long, __cxxabiv1::__class_type_info::__sub_kind, __cxxabiv1::__class_type_info const*, void const*, __cxxabiv1::__class_type_info const*, void const*, __cxxabiv1::__class_type_info::__dyncast_result&) const /vagrant/gnuarm/lib/gcc/arm-elf/4.4.2/../../../../arm-elf/lib/thumb/interwork/libstdc++.a(si_class_type_info.o)
__cxxabiv1::__si_class_type_info::__do_find_public_src(long, void const*, __cxxabiv1::__class_type_info const*, void const*) const /vagrant/gnuarm/lib/gcc/arm-elf/4.4.2/../../../../arm-elf/lib/thumb/interwork/libstdc++.a(si_class_type_info.o)
__cxxabiv1::__si_class_type_info::__do_upcast(__cxxabiv1::__class_type_info const*, void const*, __cxxabiv1::__class_type_info::__upcast_result&) const /vagrant/gnuarm/lib/gcc/arm-elf/4.4.2/../../../../arm-elf/lib/thumb/interwork/libstdc++.a(si_class_type_info.o)
__cxxabiv1::__si_class_type_info::~__si_class_type_info() /vagrant/gnuarm/lib/gcc/arm-elf/4.4.2/../../../../arm-elf/lib/thumb/interwork/libstdc++.a(si_class_type_info.o)
__cxxabiv1::__si_class_type_info::~__si_class_type_info() /vagrant/gnuarm/lib/gcc/arm-elf/4.4.2/../../../../arm-elf/lib/thumb/interwork/libstdc++.a(si_class_type_info.o)
__cxxabiv1::__si_class_type_info::~__si_class_type_info() /vagrant/gnuarm/lib/gcc/arm-elf/4.4.2/../../../../arm-elf/lib/thumb/interwork/libstdc++.a(si_class_type_info.o)
__cxxabiv1::__terminate(void (*)())               /vagrant/gnuarm/lib/gcc/arm-elf/4.4.2/../../../../arm-elf/lib/thumb/interwork/libstdc++.a(eh_terminate.o)
                                                  /vagrant/gnuarm/lib/gcc/arm-elf/4.4.2/../../../../arm-elf/lib/thumb/interwork/libstdc++.a(eh_call.o)
                                                  /vagrant/gnuarm/lib/gcc/arm-elf/4.4.2/../../../../arm-elf/lib/thumb/interwork/libstdc++.a(eh_throw.o)
                                                  /vagrant/gnuarm/lib/gcc/arm-elf/4.4.2/../../../../arm-elf/lib/thumb/interwork/libstdc++.a(eh_personality.o)
__cxxabiv1::__terminate_handler                   /vagrant/gnuarm/lib/gcc/arm-elf/4.4.2/../../../../arm-elf/lib/thumb/interwork/libstdc++.a(eh_term_handler.o)
                                                  /vagrant/gnuarm/lib/gcc/arm-elf/4.4.2/../../../../arm-elf/lib/thumb/interwork/libstdc++.a(eh_throw.o)
                                                  /vagrant/gnuarm/lib/gcc/arm-elf/4.4.2/../../../../arm-elf/lib/thumb/interwork/libstdc++.a(eh_terminate.o)
__cxxabiv1::__unexpected(void (*)())              /vagrant/gnuarm/lib/gcc/arm-elf/4.4.2/../../../../arm-elf/lib/thumb/interwork/libstdc++.a(eh_terminate.o)
                                                  /vagrant/gnuarm/lib/gcc/arm-elf/4.4.2/../../../../arm-elf/lib/thumb/interwork/libstdc++.a(eh_personality.o)
__cxxabiv1::__unexpected_handler                  /vagrant/gnuarm/lib/gcc/arm-elf/4.4.2/../../../../arm-elf/lib/thumb/interwork/libstdc++.a(eh_unex_handler.o)
                                                  /vagrant/gnuarm/lib/gcc/arm-elf/4.4.2/../../../../arm-elf/lib/thumb/interwork/libstdc++.a(eh_throw.o)
                                                  /vagrant/gnuarm/lib/gcc/arm-elf/4.4.2/../../../../arm-elf/lib/thumb/interwork/libstdc++.a(eh_terminate.o)
__d2b                                             /vagrant/gnuarm/lib/gcc/arm-elf/4.4.2/../../../../arm-elf/lib/thumb/interwork/libc.a(lib_a-mprec.o)
                                                  /vagrant/gnuarm/lib/gcc/arm-elf/4.4.2/../../../../arm-elf/lib/thumb/interwork/libc.a(lib_a-dtoa.o)
__data_load_end__                                 build/ecrobot_init.o
__data_load_start__                               build/ecrobot_init.o
__data_ram_start__                                build/ecrobot_init.o
__div0                                            /vagrant/gnuarm/lib/gcc/arm-elf/4.4.2/thumb/interwork/libgcc.a(_dvmd_tls.o)
                                                  /vagrant/gnuarm/lib/gcc/arm-elf/4.4.2/thumb/interwork/libgcc.a(_modsi3.o)
                                                  /vagrant/gnuarm/lib/gcc/arm-elf/4.4.2/thumb/interwork/libgcc.a(_umodsi3.o)
                                                  /vagrant/gnuarm/lib/gcc/arm-elf/4.4.2/thumb/interwork/libgcc.a(_divsi3.o)
                                                  /vagrant/gnuarm/lib/gcc/arm-elf/4.4.2/thumb/interwork/libgcc.a(_udivsi3.o)
__divdf3                                          /vagrant/gnuarm/lib/gcc/arm-elf/4.4.2/thumb/interwork/libgcc.a(_arm_muldivdf3.o)
                                                  /vagrant/gnuarm/lib/gcc/arm-elf/4.4.2/../../../../arm-elf/lib/thumb/interwork/libc.a(lib_a-mprec.o)
                                                  /vagrant/gnuarm/lib/gcc/arm-elf/4.4.2/../../../../arm-elf/lib/thumb/interwork/libc.a(lib_a-dtoa.o)
__divdi3                                          /vagrant/gnuarm/lib/gcc/arm-elf/4.4.2/thumb/interwork/libgcc.a(_divdi3.o)
                                                  ../ecrobot/../ecrobot/libecrobot.a(sound.oram)
__divsi3                                          /vagrant/gnuarm/lib/gcc/arm-elf/4.4.2/thumb/interwork/libgcc.a(_divsi3.o)
                                                  /vagrant/gnuarm/lib/gcc/arm-elf/4.4.2/../../../../arm-elf/lib/thumb/interwork/libc.a(lib_a-mprec.o)
                                                  /vagrant/gnuarm/lib/gcc/arm-elf/4.4.2/../../../../arm-elf/lib/thumb/interwork/libc.a(lib_a-svfprintf.o)
                                                  ../ecrobot/../ecrobot/libecrobot.a(sound.oram)
                                                  ../ecrobot/../ecrobot/libecrobot.a(uart.oram)
__dtor_begin                                      build/ecrobot_base.o
__dtor_end                                        build/ecrobot_base.o
__eqdf2                                           /vagrant/gnuarm/lib/gcc/arm-elf/4.4.2/thumb/interwork/libgcc.a(_arm_cmpdf2.o)
                                                  /vagrant/gnuarm/lib/gcc/arm-elf/4.4.2/../../../../arm-elf/lib/thumb/interwork/libc.a(lib_a-dtoa.o)
                                                  /vagrant/gnuarm/lib/gcc/arm-elf/4.4.2/../../../../arm-elf/lib/thumb/interwork/libc.a(lib_a-svfprintf.o)
__errno                                           /vagrant/gnuarm/lib/gcc/arm-elf/4.4.2/../../../../arm-elf/lib/thumb/interwork/libc.a(lib_a-errno.o)
                                                  /vagrant/gnuarm/lib/gcc/arm-elf/4.4.2/../../../../arm-elf/lib/thumb/interwork/libc.a(lib_a-syscalls.o)
__extendsfdf2                                     /vagrant/gnuarm/lib/gcc/arm-elf/4.4.2/thumb/interwork/libgcc.a(_arm_addsubdf3.o)
__fixdfsi                                         /vagrant/gnuarm/lib/gcc/arm-elf/4.4.2/thumb/interwork/libgcc.a(_arm_fixdfsi.o)
                                                  /vagrant/gnuarm/lib/gcc/arm-elf/4.4.2/../../../../arm-elf/lib/thumb/interwork/libc.a(lib_a-dtoa.o)
__floatdidf                                       /vagrant/gnuarm/lib/gcc/arm-elf/4.4.2/thumb/interwork/libgcc.a(_arm_addsubdf3.o)
__floatsidf                                       /vagrant/gnuarm/lib/gcc/arm-elf/4.4.2/thumb/interwork/libgcc.a(_arm_addsubdf3.o)
                                                  /vagrant/gnuarm/lib/gcc/arm-elf/4.4.2/../../../../arm-elf/lib/thumb/interwork/libc.a(lib_a-dtoa.o)
                                                  ../ecrobot/../ecrobot/libecrobot.a(colorsensor.o)
__floatundidf                                     /vagrant/gnuarm/lib/gcc/arm-elf/4.4.2/thumb/interwork/libgcc.a(_arm_addsubdf3.o)
__floatunsidf                                     /vagrant/gnuarm/lib/gcc/arm-elf/4.4.2/thumb/interwork/libgcc.a(_arm_addsubdf3.o)
                                                  /vagrant/gnuarm/lib/gcc/arm-elf/4.4.2/../../../../arm-elf/lib/thumb/interwork/libc.a(lib_a-dtoa.o)
__fp_lock_all                                     /vagrant/gnuarm/lib/gcc/arm-elf/4.4.2/../../../../arm-elf/lib/thumb/interwork/libc.a(lib_a-findfp.o)
__fp_unlock_all                                   /vagrant/gnuarm/lib/gcc/arm-elf/4.4.2/../../../../arm-elf/lib/thumb/interwork/libc.a(lib_a-findfp.o)
__fpclassifyd                                     /vagrant/gnuarm/lib/gcc/arm-elf/4.4.2/../../../../arm-elf/lib/thumb/interwork/libc.a(lib_a-s_fpclassify.o)
                                                  /vagrant/gnuarm/lib/gcc/arm-elf/4.4.2/../../../../arm-elf/lib/thumb/interwork/libc.a(lib_a-svfprintf.o)
__gcclibcxx_demangle_callback                     /vagrant/gnuarm/lib/gcc/arm-elf/4.4.2/../../../../arm-elf/lib/thumb/interwork/libstdc++.a(cp-demangle.o)
__gedf2                                           /vagrant/gnuarm/lib/gcc/arm-elf/4.4.2/thumb/interwork/libgcc.a(_arm_cmpdf2.o)
                                                  /vagrant/gnuarm/lib/gcc/arm-elf/4.4.2/../../../../arm-elf/lib/thumb/interwork/libc.a(lib_a-dtoa.o)
__gnu_cxx::__verbose_terminate_handler()          /vagrant/gnuarm/lib/gcc/arm-elf/4.4.2/../../../../arm-elf/lib/thumb/interwork/libstdc++.a(vterminate.o)
                                                  /vagrant/gnuarm/lib/gcc/arm-elf/4.4.2/../../../../arm-elf/lib/thumb/interwork/libstdc++.a(eh_term_handler.o)
__gtdf2                                           /vagrant/gnuarm/lib/gcc/arm-elf/4.4.2/thumb/interwork/libgcc.a(_arm_cmpdf2.o)
                                                  /vagrant/gnuarm/lib/gcc/arm-elf/4.4.2/../../../../arm-elf/lib/thumb/interwork/libc.a(lib_a-dtoa.o)
                                                  ../ecrobot/../ecrobot/libecrobot.a(colorsensor.o)
__gxx_personality_sj0                             /vagrant/gnuarm/lib/gcc/arm-elf/4.4.2/../../../../arm-elf/lib/thumb/interwork/libstdc++.a(eh_personality.o)
                                                  /vagrant/gnuarm/lib/gcc/arm-elf/4.4.2/../../../../arm-elf/lib/thumb/interwork/libstdc++.a(eh_type.o)
                                                  /vagrant/gnuarm/lib/gcc/arm-elf/4.4.2/../../../../arm-elf/lib/thumb/interwork/libstdc++.a(class_type_info.o)
                                                  /vagrant/gnuarm/lib/gcc/arm-elf/4.4.2/../../../../arm-elf/lib/thumb/interwork/libstdc++.a(vterminate.o)
                                                  /vagrant/gnuarm/lib/gcc/arm-elf/4.4.2/../../../../arm-elf/lib/thumb/interwork/libstdc++.a(tinfo.o)
                                                  /vagrant/gnuarm/lib/gcc/arm-elf/4.4.2/../../../../arm-elf/lib/thumb/interwork/libstdc++.a(si_class_type_info.o)
                                                  /vagrant/gnuarm/lib/gcc/arm-elf/4.4.2/../../../../arm-elf/lib/thumb/interwork/libstdc++.a(eh_globals.o)
                                                  /vagrant/gnuarm/lib/gcc/arm-elf/4.4.2/../../../../arm-elf/lib/thumb/interwork/libstdc++.a(eh_exception.o)
                                                  /vagrant/gnuarm/lib/gcc/arm-elf/4.4.2/../../../../arm-elf/lib/thumb/interwork/libstdc++.a(eh_catch.o)
                                                  /vagrant/gnuarm/lib/gcc/arm-elf/4.4.2/../../../../arm-elf/lib/thumb/interwork/libstdc++.a(eh_call.o)
                                                  /vagrant/gnuarm/lib/gcc/arm-elf/4.4.2/../../../../arm-elf/lib/thumb/interwork/libstdc++.a(eh_alloc.o)
                                                  /vagrant/gnuarm/lib/gcc/arm-elf/4.4.2/../../../../arm-elf/lib/thumb/interwork/libstdc++.a(eh_throw.o)
                                                  /vagrant/gnuarm/lib/gcc/arm-elf/4.4.2/../../../../arm-elf/lib/thumb/interwork/libstdc++.a(eh_terminate.o)
                                                  /vagrant/gnuarm/lib/gcc/arm-elf/4.4.2/../../../../arm-elf/lib/thumb/interwork/libstdc++.a(pure.o)
__hi0bits                                         /vagrant/gnuarm/lib/gcc/arm-elf/4.4.2/../../../../arm-elf/lib/thumb/interwork/libc.a(lib_a-mprec.o)
                                                  /vagrant/gnuarm/lib/gcc/arm-elf/4.4.2/../../../../arm-elf/lib/thumb/interwork/libc.a(lib_a-dtoa.o)
__i2b                                             /vagrant/gnuarm/lib/gcc/arm-elf/4.4.2/../../../../arm-elf/lib/thumb/interwork/libc.a(lib_a-mprec.o)
                                                  /vagrant/gnuarm/lib/gcc/arm-elf/4.4.2/../../../../arm-elf/lib/thumb/interwork/libc.a(lib_a-dtoa.o)
__irq_stack__                                     build/ecrobot_init.o
__kernel_start_from_arm                           linker stubs
__ledf2                                           /vagrant/gnuarm/lib/gcc/arm-elf/4.4.2/thumb/interwork/libgcc.a(_arm_cmpdf2.o)
__lo0bits                                         /vagrant/gnuarm/lib/gcc/arm-elf/4.4.2/../../../../arm-elf/lib/thumb/interwork/libc.a(lib_a-mprec.o)
__locale_charset                                  /vagrant/gnuarm/lib/gcc/arm-elf/4.4.2/../../../../arm-elf/lib/thumb/interwork/libc.a(lib_a-locale.o)
__locale_cjk_lang                                 /vagrant/gnuarm/lib/gcc/arm-elf/4.4.2/../../../../arm-elf/lib/thumb/interwork/libc.a(lib_a-locale.o)
__locale_msgcharset                               /vagrant/gnuarm/lib/gcc/arm-elf/4.4.2/../../../../arm-elf/lib/thumb/interwork/libc.a(lib_a-locale.o)
__lshift                                          /vagrant/gnuarm/lib/gcc/arm-elf/4.4.2/../../../../arm-elf/lib/thumb/interwork/libc.a(lib_a-mprec.o)
                                                  /vagrant/gnuarm/lib/gcc/arm-elf/4.4.2/../../../../arm-elf/lib/thumb/interwork/libc.a(lib_a-dtoa.o)
__ltdf2                                           /vagrant/gnuarm/lib/gcc/arm-elf/4.4.2/thumb/interwork/libgcc.a(_arm_cmpdf2.o)
                                                  /vagrant/gnuarm/lib/gcc/arm-elf/4.4.2/../../../../arm-elf/lib/thumb/interwork/libc.a(lib_a-dtoa.o)
                                                  /vagrant/gnuarm/lib/gcc/arm-elf/4.4.2/../../../../arm-elf/lib/thumb/interwork/libc.a(lib_a-svfprintf.o)
__malloc_av_                                      /vagrant/gnuarm/lib/gcc/arm-elf/4.4.2/../../../../arm-elf/lib/thumb/interwork/libc.a(lib_a-mallocr.o)
                                                  /vagrant/gnuarm/lib/gcc/arm-elf/4.4.2/../../../../arm-elf/lib/thumb/interwork/libc.a(lib_a-freer.o)
                                                  /vagrant/gnuarm/lib/gcc/arm-elf/4.4.2/../../../../arm-elf/lib/thumb/interwork/libc.a(lib_a-reallocr.o)
__malloc_current_mallinfo                         /vagrant/gnuarm/lib/gcc/arm-elf/4.4.2/../../../../arm-elf/lib/thumb/interwork/libc.a(lib_a-mallocr.o)
                                                  /vagrant/gnuarm/lib/gcc/arm-elf/4.4.2/../../../../arm-elf/lib/thumb/interwork/libc.a(lib_a-freer.o)
__malloc_lock                                     /vagrant/gnuarm/lib/gcc/arm-elf/4.4.2/../../../../arm-elf/lib/thumb/interwork/libc.a(lib_a-mlock.o)
                                                  /vagrant/gnuarm/lib/gcc/arm-elf/4.4.2/../../../../arm-elf/lib/thumb/interwork/libc.a(lib_a-freer.o)
                                                  /vagrant/gnuarm/lib/gcc/arm-elf/4.4.2/../../../../arm-elf/lib/thumb/interwork/libc.a(lib_a-reallocr.o)
                                                  /vagrant/gnuarm/lib/gcc/arm-elf/4.4.2/../../../../arm-elf/lib/thumb/interwork/libc.a(lib_a-mallocr.o)
__malloc_max_sbrked_mem                           /vagrant/gnuarm/lib/gcc/arm-elf/4.4.2/../../../../arm-elf/lib/thumb/interwork/libc.a(lib_a-mallocr.o)
__malloc_max_total_mem                            /vagrant/gnuarm/lib/gcc/arm-elf/4.4.2/../../../../arm-elf/lib/thumb/interwork/libc.a(lib_a-mallocr.o)
__malloc_sbrk_base                                /vagrant/gnuarm/lib/gcc/arm-elf/4.4.2/../../../../arm-elf/lib/thumb/interwork/libc.a(lib_a-mallocr.o)
                                                  /vagrant/gnuarm/lib/gcc/arm-elf/4.4.2/../../../../arm-elf/lib/thumb/interwork/libc.a(lib_a-freer.o)
__malloc_top_pad                                  /vagrant/gnuarm/lib/gcc/arm-elf/4.4.2/../../../../arm-elf/lib/thumb/interwork/libc.a(lib_a-mallocr.o)
                                                  /vagrant/gnuarm/lib/gcc/arm-elf/4.4.2/../../../../arm-elf/lib/thumb/interwork/libc.a(lib_a-freer.o)
__malloc_trim_threshold                           /vagrant/gnuarm/lib/gcc/arm-elf/4.4.2/../../../../arm-elf/lib/thumb/interwork/libc.a(lib_a-mallocr.o)
                                                  /vagrant/gnuarm/lib/gcc/arm-elf/4.4.2/../../../../arm-elf/lib/thumb/interwork/libc.a(lib_a-freer.o)
__malloc_unlock                                   /vagrant/gnuarm/lib/gcc/arm-elf/4.4.2/../../../../arm-elf/lib/thumb/interwork/libc.a(lib_a-mlock.o)
                                                  /vagrant/gnuarm/lib/gcc/arm-elf/4.4.2/../../../../arm-elf/lib/thumb/interwork/libc.a(lib_a-freer.o)
                                                  /vagrant/gnuarm/lib/gcc/arm-elf/4.4.2/../../../../arm-elf/lib/thumb/interwork/libc.a(lib_a-reallocr.o)
                                                  /vagrant/gnuarm/lib/gcc/arm-elf/4.4.2/../../../../arm-elf/lib/thumb/interwork/libc.a(lib_a-mallocr.o)
__mb_cur_max                                      /vagrant/gnuarm/lib/gcc/arm-elf/4.4.2/../../../../arm-elf/lib/thumb/interwork/libc.a(lib_a-locale.o)
__mcmp                                            /vagrant/gnuarm/lib/gcc/arm-elf/4.4.2/../../../../arm-elf/lib/thumb/interwork/libc.a(lib_a-mprec.o)
                                                  /vagrant/gnuarm/lib/gcc/arm-elf/4.4.2/../../../../arm-elf/lib/thumb/interwork/libc.a(lib_a-dtoa.o)
__mdiff                                           /vagrant/gnuarm/lib/gcc/arm-elf/4.4.2/../../../../arm-elf/lib/thumb/interwork/libc.a(lib_a-mprec.o)
                                                  /vagrant/gnuarm/lib/gcc/arm-elf/4.4.2/../../../../arm-elf/lib/thumb/interwork/libc.a(lib_a-dtoa.o)
__mlocale_changed                                 /vagrant/gnuarm/lib/gcc/arm-elf/4.4.2/../../../../arm-elf/lib/thumb/interwork/libc.a(lib_a-locale.o)
__modsi3                                          /vagrant/gnuarm/lib/gcc/arm-elf/4.4.2/thumb/interwork/libgcc.a(_modsi3.o)
                                                  /vagrant/gnuarm/lib/gcc/arm-elf/4.4.2/../../../../arm-elf/lib/thumb/interwork/libc.a(lib_a-svfprintf.o)
                                                  ../ecrobot/../ecrobot/libecrobot.a(sound.oram)
__mprec_bigtens                                   /vagrant/gnuarm/lib/gcc/arm-elf/4.4.2/../../../../arm-elf/lib/thumb/interwork/libc.a(lib_a-mprec.o)
                                                  /vagrant/gnuarm/lib/gcc/arm-elf/4.4.2/../../../../arm-elf/lib/thumb/interwork/libc.a(lib_a-dtoa.o)
__mprec_tens                                      /vagrant/gnuarm/lib/gcc/arm-elf/4.4.2/../../../../arm-elf/lib/thumb/interwork/libc.a(lib_a-mprec.o)
                                                  /vagrant/gnuarm/lib/gcc/arm-elf/4.4.2/../../../../arm-elf/lib/thumb/interwork/libc.a(lib_a-dtoa.o)
__mprec_tinytens                                  /vagrant/gnuarm/lib/gcc/arm-elf/4.4.2/../../../../arm-elf/lib/thumb/interwork/libc.a(lib_a-mprec.o)
__muldf3                                          /vagrant/gnuarm/lib/gcc/arm-elf/4.4.2/thumb/interwork/libgcc.a(_arm_muldivdf3.o)
                                                  /vagrant/gnuarm/lib/gcc/arm-elf/4.4.2/../../../../arm-elf/lib/thumb/interwork/libc.a(lib_a-mprec.o)
                                                  /vagrant/gnuarm/lib/gcc/arm-elf/4.4.2/../../../../arm-elf/lib/thumb/interwork/libc.a(lib_a-dtoa.o)
                                                  ../ecrobot/../ecrobot/libecrobot.a(colorsensor.o)
__muldi3                                          /vagrant/gnuarm/lib/gcc/arm-elf/4.4.2/thumb/interwork/libgcc.a(_muldi3.o)
                                                  ../ecrobot/../ecrobot/libecrobot.a(sound.oram)
__multadd                                         /vagrant/gnuarm/lib/gcc/arm-elf/4.4.2/../../../../arm-elf/lib/thumb/interwork/libc.a(lib_a-mprec.o)
                                                  /vagrant/gnuarm/lib/gcc/arm-elf/4.4.2/../../../../arm-elf/lib/thumb/interwork/libc.a(lib_a-dtoa.o)
__multiply                                        /vagrant/gnuarm/lib/gcc/arm-elf/4.4.2/../../../../arm-elf/lib/thumb/interwork/libc.a(lib_a-mprec.o)
                                                  /vagrant/gnuarm/lib/gcc/arm-elf/4.4.2/../../../../arm-elf/lib/thumb/interwork/libc.a(lib_a-dtoa.o)
__nedf2                                           /vagrant/gnuarm/lib/gcc/arm-elf/4.4.2/thumb/interwork/libgcc.a(_arm_cmpdf2.o)
                                                  /vagrant/gnuarm/lib/gcc/arm-elf/4.4.2/../../../../arm-elf/lib/thumb/interwork/libc.a(lib_a-dtoa.o)
                                                  /vagrant/gnuarm/lib/gcc/arm-elf/4.4.2/../../../../arm-elf/lib/thumb/interwork/libc.a(lib_a-svfprintf.o)
__nlocale_changed                                 /vagrant/gnuarm/lib/gcc/arm-elf/4.4.2/../../../../arm-elf/lib/thumb/interwork/libc.a(lib_a-locale.o)
__pow5mult                                        /vagrant/gnuarm/lib/gcc/arm-elf/4.4.2/../../../../arm-elf/lib/thumb/interwork/libc.a(lib_a-mprec.o)
                                                  /vagrant/gnuarm/lib/gcc/arm-elf/4.4.2/../../../../arm-elf/lib/thumb/interwork/libc.a(lib_a-dtoa.o)
__ramtext_load_end__                              build/ecrobot_init.o
__ramtext_load_start__                            build/ecrobot_init.o
__ramtext_ram_start__                             build/ecrobot_init.o
__ratio                                           /vagrant/gnuarm/lib/gcc/arm-elf/4.4.2/../../../../arm-elf/lib/thumb/interwork/libc.a(lib_a-mprec.o)
__s2b                                             /vagrant/gnuarm/lib/gcc/arm-elf/4.4.2/../../../../arm-elf/lib/thumb/interwork/libc.a(lib_a-mprec.o)
__sclose                                          /vagrant/gnuarm/lib/gcc/arm-elf/4.4.2/../../../../arm-elf/lib/thumb/interwork/libc.a(lib_a-stdio.o)
                                                  /vagrant/gnuarm/lib/gcc/arm-elf/4.4.2/../../../../arm-elf/lib/thumb/interwork/libc.a(lib_a-findfp.o)
__seofread                                        /vagrant/gnuarm/lib/gcc/arm-elf/4.4.2/../../../../arm-elf/lib/thumb/interwork/libc.a(lib_a-stdio.o)
__sfmoreglue                                      /vagrant/gnuarm/lib/gcc/arm-elf/4.4.2/../../../../arm-elf/lib/thumb/interwork/libc.a(lib_a-findfp.o)
__sfp                                             /vagrant/gnuarm/lib/gcc/arm-elf/4.4.2/../../../../arm-elf/lib/thumb/interwork/libc.a(lib_a-findfp.o)
__sfp_lock_acquire                                /vagrant/gnuarm/lib/gcc/arm-elf/4.4.2/../../../../arm-elf/lib/thumb/interwork/libc.a(lib_a-findfp.o)
                                                  /vagrant/gnuarm/lib/gcc/arm-elf/4.4.2/../../../../arm-elf/lib/thumb/interwork/libc.a(lib_a-fclose.o)
                                                  /vagrant/gnuarm/lib/gcc/arm-elf/4.4.2/../../../../arm-elf/lib/thumb/interwork/libc.a(lib_a-fwalk.o)
__sfp_lock_release                                /vagrant/gnuarm/lib/gcc/arm-elf/4.4.2/../../../../arm-elf/lib/thumb/interwork/libc.a(lib_a-findfp.o)
                                                  /vagrant/gnuarm/lib/gcc/arm-elf/4.4.2/../../../../arm-elf/lib/thumb/interwork/libc.a(lib_a-fclose.o)
                                                  /vagrant/gnuarm/lib/gcc/arm-elf/4.4.2/../../../../arm-elf/lib/thumb/interwork/libc.a(lib_a-fwalk.o)
__sfvwrite_r                                      /vagrant/gnuarm/lib/gcc/arm-elf/4.4.2/../../../../arm-elf/lib/thumb/interwork/libc.a(lib_a-fvwrite.o)
                                                  /vagrant/gnuarm/lib/gcc/arm-elf/4.4.2/../../../../arm-elf/lib/thumb/interwork/libc.a(lib_a-fwrite.o)
                                                  /vagrant/gnuarm/lib/gcc/arm-elf/4.4.2/../../../../arm-elf/lib/thumb/interwork/libc.a(lib_a-fputs.o)
__sigtramp                                        /vagrant/gnuarm/lib/gcc/arm-elf/4.4.2/../../../../arm-elf/lib/thumb/interwork/libc.a(lib_a-signal.o)
__sigtramp_r                                      /vagrant/gnuarm/lib/gcc/arm-elf/4.4.2/../../../../arm-elf/lib/thumb/interwork/libc.a(lib_a-signal.o)
__sinit                                           /vagrant/gnuarm/lib/gcc/arm-elf/4.4.2/../../../../arm-elf/lib/thumb/interwork/libc.a(lib_a-findfp.o)
                                                  /vagrant/gnuarm/lib/gcc/arm-elf/4.4.2/../../../../arm-elf/lib/thumb/interwork/libc.a(lib_a-fclose.o)
                                                  /vagrant/gnuarm/lib/gcc/arm-elf/4.4.2/../../../../arm-elf/lib/thumb/interwork/libc.a(lib_a-fflush.o)
                                                  /vagrant/gnuarm/lib/gcc/arm-elf/4.4.2/../../../../arm-elf/lib/thumb/interwork/libc.a(lib_a-wsetup.o)
                                                  /vagrant/gnuarm/lib/gcc/arm-elf/4.4.2/../../../../arm-elf/lib/thumb/interwork/libc.a(lib_a-wbuf.o)
                                                  /vagrant/gnuarm/lib/gcc/arm-elf/4.4.2/../../../../arm-elf/lib/thumb/interwork/libc.a(lib_a-syscalls.o)
                                                  /vagrant/gnuarm/lib/gcc/arm-elf/4.4.2/../../../../arm-elf/lib/thumb/interwork/libc.a(lib_a-putc.o)
                                                  /vagrant/gnuarm/lib/gcc/arm-elf/4.4.2/../../../../arm-elf/lib/thumb/interwork/libc.a(lib_a-fwrite.o)
                                                  /vagrant/gnuarm/lib/gcc/arm-elf/4.4.2/../../../../arm-elf/lib/thumb/interwork/libc.a(lib_a-fputs.o)
                                                  /vagrant/gnuarm/lib/gcc/arm-elf/4.4.2/../../../../arm-elf/lib/thumb/interwork/libc.a(lib_a-fputc.o)
__sinit_lock_acquire                              /vagrant/gnuarm/lib/gcc/arm-elf/4.4.2/../../../../arm-elf/lib/thumb/interwork/libc.a(lib_a-findfp.o)
__sinit_lock_release                              /vagrant/gnuarm/lib/gcc/arm-elf/4.4.2/../../../../arm-elf/lib/thumb/interwork/libc.a(lib_a-findfp.o)
__smakebuf_r                                      /vagrant/gnuarm/lib/gcc/arm-elf/4.4.2/../../../../arm-elf/lib/thumb/interwork/libc.a(lib_a-makebuf.o)
                                                  /vagrant/gnuarm/lib/gcc/arm-elf/4.4.2/../../../../arm-elf/lib/thumb/interwork/libc.a(lib_a-wsetup.o)
__sread                                           /vagrant/gnuarm/lib/gcc/arm-elf/4.4.2/../../../../arm-elf/lib/thumb/interwork/libc.a(lib_a-stdio.o)
                                                  /vagrant/gnuarm/lib/gcc/arm-elf/4.4.2/../../../../arm-elf/lib/thumb/interwork/libc.a(lib_a-findfp.o)
__sseek                                           /vagrant/gnuarm/lib/gcc/arm-elf/4.4.2/../../../../arm-elf/lib/thumb/interwork/libc.a(lib_a-stdio.o)
                                                  /vagrant/gnuarm/lib/gcc/arm-elf/4.4.2/../../../../arm-elf/lib/thumb/interwork/libc.a(lib_a-makebuf.o)
                                                  /vagrant/gnuarm/lib/gcc/arm-elf/4.4.2/../../../../arm-elf/lib/thumb/interwork/libc.a(lib_a-findfp.o)
__ssprint_r                                       /vagrant/gnuarm/lib/gcc/arm-elf/4.4.2/../../../../arm-elf/lib/thumb/interwork/libc.a(lib_a-svfiprintf.o)
                                                  /vagrant/gnuarm/lib/gcc/arm-elf/4.4.2/../../../../arm-elf/lib/thumb/interwork/libc.a(lib_a-svfprintf.o)
__stack_end__                                     build/ecrobot_init.o
__stack_start__                                   build/ecrobot_init.o
__subdf3                                          /vagrant/gnuarm/lib/gcc/arm-elf/4.4.2/thumb/interwork/libgcc.a(_arm_addsubdf3.o)
                                                  /vagrant/gnuarm/lib/gcc/arm-elf/4.4.2/../../../../arm-elf/lib/thumb/interwork/libc.a(lib_a-dtoa.o)
__swbuf                                           /vagrant/gnuarm/lib/gcc/arm-elf/4.4.2/../../../../arm-elf/lib/thumb/interwork/libc.a(lib_a-wbuf.o)
__swbuf_r                                         /vagrant/gnuarm/lib/gcc/arm-elf/4.4.2/../../../../arm-elf/lib/thumb/interwork/libc.a(lib_a-wbuf.o)
                                                  /vagrant/gnuarm/lib/gcc/arm-elf/4.4.2/../../../../arm-elf/lib/thumb/interwork/libc.a(lib_a-putc.o)
__swrite                                          /vagrant/gnuarm/lib/gcc/arm-elf/4.4.2/../../../../arm-elf/lib/thumb/interwork/libc.a(lib_a-stdio.o)
                                                  /vagrant/gnuarm/lib/gcc/arm-elf/4.4.2/../../../../arm-elf/lib/thumb/interwork/libc.a(lib_a-findfp.o)
__swsetup_r                                       /vagrant/gnuarm/lib/gcc/arm-elf/4.4.2/../../../../arm-elf/lib/thumb/interwork/libc.a(lib_a-wsetup.o)
                                                  /vagrant/gnuarm/lib/gcc/arm-elf/4.4.2/../../../../arm-elf/lib/thumb/interwork/libc.a(lib_a-wbuf.o)
                                                  /vagrant/gnuarm/lib/gcc/arm-elf/4.4.2/../../../../arm-elf/lib/thumb/interwork/libc.a(lib_a-fvwrite.o)
__system_stack__                                  build/ecrobot_init.o
__udivsi3                                         /vagrant/gnuarm/lib/gcc/arm-elf/4.4.2/thumb/interwork/libgcc.a(_udivsi3.o)
                                                  /vagrant/gnuarm/lib/gcc/arm-elf/4.4.2/../../../../arm-elf/lib/thumb/interwork/libc.a(lib_a-svfiprintf.o)
                                                  /vagrant/gnuarm/lib/gcc/arm-elf/4.4.2/../../../../arm-elf/lib/thumb/interwork/libc.a(lib_a-dtoa.o)
                                                  /vagrant/gnuarm/lib/gcc/arm-elf/4.4.2/../../../../arm-elf/lib/thumb/interwork/libc.a(lib_a-svfprintf.o)
                                                  /vagrant/gnuarm/lib/gcc/arm-elf/4.4.2/../../../../arm-elf/lib/thumb/interwork/libc.a(lib_a-fwrite.o)
                                                  /vagrant/gnuarm/lib/gcc/arm-elf/4.4.2/thumb/interwork/libgcc.a(_divdi3.o)
                                                  /vagrant/gnuarm/lib/gcc/arm-elf/4.4.2/../../../../arm-elf/lib/thumb/interwork/libstdc++.a(eh_alloc.o)
                                                  ../ecrobot/../ecrobot/libecrobot.a(sound.oram)
                                                  ../ecrobot/../ecrobot/libecrobot.a(display.oram)
                                                  ../ecrobot/../ecrobot/libecrobot.a(ecrobot_interface.o)
                                                  build/library/log_output.oram
                                                  build/ecrobot_base.o
__ulp                                             /vagrant/gnuarm/lib/gcc/arm-elf/4.4.2/../../../../arm-elf/lib/thumb/interwork/libc.a(lib_a-mprec.o)
__umodsi3                                         /vagrant/gnuarm/lib/gcc/arm-elf/4.4.2/thumb/interwork/libgcc.a(_umodsi3.o)
                                                  /vagrant/gnuarm/lib/gcc/arm-elf/4.4.2/../../../../arm-elf/lib/thumb/interwork/libc.a(lib_a-svfiprintf.o)
                                                  /vagrant/gnuarm/lib/gcc/arm-elf/4.4.2/../../../../arm-elf/lib/thumb/interwork/libc.a(lib_a-svfprintf.o)
                                                  /vagrant/gnuarm/lib/gcc/arm-elf/4.4.2/thumb/interwork/libgcc.a(_divdi3.o)
                                                  ../ecrobot/../ecrobot/libecrobot.a(display.oram)
                                                  build/library/log_output.oram
                                                  build/kernel/mempfix.o
__vectors_load_end__                              build/ecrobot_init.o
__vectors_load_start__                            build/ecrobot_init.o
__vectors_ram_start__                             build/ecrobot_init.o
_calloc_r                                         /vagrant/gnuarm/lib/gcc/arm-elf/4.4.2/../../../../arm-elf/lib/thumb/interwork/libc.a(lib_a-callocr.o)
                                                  /vagrant/gnuarm/lib/gcc/arm-elf/4.4.2/../../../../arm-elf/lib/thumb/interwork/libc.a(lib_a-mprec.o)
_checker_magic_number                             build/./kernel_cfg.o
_cleanup                                          /vagrant/gnuarm/lib/gcc/arm-elf/4.4.2/../../../../arm-elf/lib/thumb/interwork/libc.a(lib_a-findfp.o)
_cleanup_r                                        /vagrant/gnuarm/lib/gcc/arm-elf/4.4.2/../../../../arm-elf/lib/thumb/interwork/libc.a(lib_a-findfp.o)
                                                  /vagrant/gnuarm/lib/gcc/arm-elf/4.4.2/../../../../arm-elf/lib/thumb/interwork/libc.a(lib_a-makebuf.o)
_close                                            /vagrant/gnuarm/lib/gcc/arm-elf/4.4.2/../../../../arm-elf/lib/thumb/interwork/libc.a(lib_a-syscalls.o)
                                                  /vagrant/gnuarm/lib/gcc/arm-elf/4.4.2/../../../../arm-elf/lib/thumb/interwork/libc.a(lib_a-closer.o)
_close_r                                          /vagrant/gnuarm/lib/gcc/arm-elf/4.4.2/../../../../arm-elf/lib/thumb/interwork/libc.a(lib_a-closer.o)
                                                  /vagrant/gnuarm/lib/gcc/arm-elf/4.4.2/../../../../arm-elf/lib/thumb/interwork/libc.a(lib_a-stdio.o)
_dtoa_r                                           /vagrant/gnuarm/lib/gcc/arm-elf/4.4.2/../../../../arm-elf/lib/thumb/interwork/libc.a(lib_a-dtoa.o)
                                                  /vagrant/gnuarm/lib/gcc/arm-elf/4.4.2/../../../../arm-elf/lib/thumb/interwork/libc.a(lib_a-svfprintf.o)
_exit                                             /vagrant/gnuarm/lib/gcc/arm-elf/4.4.2/../../../../arm-elf/lib/thumb/interwork/libc.a(lib_a-syscalls.o)
                                                  /vagrant/gnuarm/lib/gcc/arm-elf/4.4.2/../../../../arm-elf/lib/thumb/interwork/libc.a(lib_a-abort.o)
_fclose_r                                         /vagrant/gnuarm/lib/gcc/arm-elf/4.4.2/../../../../arm-elf/lib/thumb/interwork/libc.a(lib_a-fclose.o)
_fflush_r                                         /vagrant/gnuarm/lib/gcc/arm-elf/4.4.2/../../../../arm-elf/lib/thumb/interwork/libc.a(lib_a-fflush.o)
                                                  /vagrant/gnuarm/lib/gcc/arm-elf/4.4.2/../../../../arm-elf/lib/thumb/interwork/libc.a(lib_a-fclose.o)
                                                  /vagrant/gnuarm/lib/gcc/arm-elf/4.4.2/../../../../arm-elf/lib/thumb/interwork/libc.a(lib_a-wbuf.o)
                                                  /vagrant/gnuarm/lib/gcc/arm-elf/4.4.2/../../../../arm-elf/lib/thumb/interwork/libc.a(lib_a-fvwrite.o)
_fputc_r                                          /vagrant/gnuarm/lib/gcc/arm-elf/4.4.2/../../../../arm-elf/lib/thumb/interwork/libc.a(lib_a-fputc.o)
_fputs_r                                          /vagrant/gnuarm/lib/gcc/arm-elf/4.4.2/../../../../arm-elf/lib/thumb/interwork/libc.a(lib_a-fputs.o)
_free_r                                           /vagrant/gnuarm/lib/gcc/arm-elf/4.4.2/../../../../arm-elf/lib/thumb/interwork/libc.a(lib_a-freer.o)
                                                  /vagrant/gnuarm/lib/gcc/arm-elf/4.4.2/../../../../arm-elf/lib/thumb/interwork/libc.a(lib_a-fclose.o)
                                                  /vagrant/gnuarm/lib/gcc/arm-elf/4.4.2/../../../../arm-elf/lib/thumb/interwork/libc.a(lib_a-svfiprintf.o)
                                                  /vagrant/gnuarm/lib/gcc/arm-elf/4.4.2/../../../../arm-elf/lib/thumb/interwork/libc.a(lib_a-reent.o)
                                                  /vagrant/gnuarm/lib/gcc/arm-elf/4.4.2/../../../../arm-elf/lib/thumb/interwork/libc.a(lib_a-fflush.o)
                                                  /vagrant/gnuarm/lib/gcc/arm-elf/4.4.2/../../../../arm-elf/lib/thumb/interwork/libc.a(lib_a-wsetup.o)
                                                  /vagrant/gnuarm/lib/gcc/arm-elf/4.4.2/../../../../arm-elf/lib/thumb/interwork/libc.a(lib_a-reallocr.o)
                                                  /vagrant/gnuarm/lib/gcc/arm-elf/4.4.2/../../../../arm-elf/lib/thumb/interwork/libc.a(lib_a-mallocr.o)
                                                  /vagrant/gnuarm/lib/gcc/arm-elf/4.4.2/../../../../arm-elf/lib/thumb/interwork/libc.a(lib_a-malloc.o)
                                                  /vagrant/gnuarm/lib/gcc/arm-elf/4.4.2/../../../../arm-elf/lib/thumb/interwork/libc.a(lib_a-fvwrite.o)
_fstat                                            /vagrant/gnuarm/lib/gcc/arm-elf/4.4.2/../../../../arm-elf/lib/thumb/interwork/libc.a(lib_a-syscalls.o)
                                                  /vagrant/gnuarm/lib/gcc/arm-elf/4.4.2/../../../../arm-elf/lib/thumb/interwork/libc.a(lib_a-fstatr.o)
_fstat_r                                          /vagrant/gnuarm/lib/gcc/arm-elf/4.4.2/../../../../arm-elf/lib/thumb/interwork/libc.a(lib_a-fstatr.o)
                                                  /vagrant/gnuarm/lib/gcc/arm-elf/4.4.2/../../../../arm-elf/lib/thumb/interwork/libc.a(lib_a-makebuf.o)
_fwalk                                            /vagrant/gnuarm/lib/gcc/arm-elf/4.4.2/../../../../arm-elf/lib/thumb/interwork/libc.a(lib_a-fwalk.o)
                                                  /vagrant/gnuarm/lib/gcc/arm-elf/4.4.2/../../../../arm-elf/lib/thumb/interwork/libc.a(lib_a-findfp.o)
_fwalk_reent                                      /vagrant/gnuarm/lib/gcc/arm-elf/4.4.2/../../../../arm-elf/lib/thumb/interwork/libc.a(lib_a-fwalk.o)
                                                  /vagrant/gnuarm/lib/gcc/arm-elf/4.4.2/../../../../arm-elf/lib/thumb/interwork/libc.a(lib_a-fflush.o)
_fwrite_r                                         /vagrant/gnuarm/lib/gcc/arm-elf/4.4.2/../../../../arm-elf/lib/thumb/interwork/libc.a(lib_a-fwrite.o)
_getpid                                           /vagrant/gnuarm/lib/gcc/arm-elf/4.4.2/../../../../arm-elf/lib/thumb/interwork/libc.a(lib_a-syscalls.o)
                                                  /vagrant/gnuarm/lib/gcc/arm-elf/4.4.2/../../../../arm-elf/lib/thumb/interwork/libc.a(lib_a-signalr.o)
_getpid_r                                         /vagrant/gnuarm/lib/gcc/arm-elf/4.4.2/../../../../arm-elf/lib/thumb/interwork/libc.a(lib_a-signalr.o)
                                                  /vagrant/gnuarm/lib/gcc/arm-elf/4.4.2/../../../../arm-elf/lib/thumb/interwork/libc.a(lib_a-signal.o)
_gettimeofday                                     /vagrant/gnuarm/lib/gcc/arm-elf/4.4.2/../../../../arm-elf/lib/thumb/interwork/libc.a(lib_a-syscalls.o)
_global_impure_ptr                                /vagrant/gnuarm/lib/gcc/arm-elf/4.4.2/../../../../arm-elf/lib/thumb/interwork/libc.a(lib_a-impure.o)
                                                  /vagrant/gnuarm/lib/gcc/arm-elf/4.4.2/../../../../arm-elf/lib/thumb/interwork/libc.a(lib_a-findfp.o)
                                                  /vagrant/gnuarm/lib/gcc/arm-elf/4.4.2/../../../../arm-elf/lib/thumb/interwork/libc.a(lib_a-fflush.o)
_impure_ptr                                       /vagrant/gnuarm/lib/gcc/arm-elf/4.4.2/../../../../arm-elf/lib/thumb/interwork/libc.a(lib_a-impure.o)
                                                  /vagrant/gnuarm/lib/gcc/arm-elf/4.4.2/../../../../arm-elf/lib/thumb/interwork/libc.a(lib_a-fclose.o)
                                                  /vagrant/gnuarm/lib/gcc/arm-elf/4.4.2/../../../../arm-elf/lib/thumb/interwork/libc.a(lib_a-reent.o)
                                                  /vagrant/gnuarm/lib/gcc/arm-elf/4.4.2/../../../../arm-elf/lib/thumb/interwork/libc.a(lib_a-locale.o)
                                                  /vagrant/gnuarm/lib/gcc/arm-elf/4.4.2/../../../../arm-elf/lib/thumb/interwork/libc.a(lib_a-findfp.o)
                                                  /vagrant/gnuarm/lib/gcc/arm-elf/4.4.2/../../../../arm-elf/lib/thumb/interwork/libc.a(lib_a-fflush.o)
                                                  /vagrant/gnuarm/lib/gcc/arm-elf/4.4.2/../../../../arm-elf/lib/thumb/interwork/libc.a(lib_a-errno.o)
                                                  /vagrant/gnuarm/lib/gcc/arm-elf/4.4.2/../../../../arm-elf/lib/thumb/interwork/libc.a(lib_a-wsetup.o)
                                                  /vagrant/gnuarm/lib/gcc/arm-elf/4.4.2/../../../../arm-elf/lib/thumb/interwork/libc.a(lib_a-wbuf.o)
                                                  /vagrant/gnuarm/lib/gcc/arm-elf/4.4.2/../../../../arm-elf/lib/thumb/interwork/libc.a(lib_a-syswrite.o)
                                                  /vagrant/gnuarm/lib/gcc/arm-elf/4.4.2/../../../../arm-elf/lib/thumb/interwork/libc.a(lib_a-syscalls.o)
                                                  /vagrant/gnuarm/lib/gcc/arm-elf/4.4.2/../../../../arm-elf/lib/thumb/interwork/libc.a(lib_a-sprintf.o)
                                                  /vagrant/gnuarm/lib/gcc/arm-elf/4.4.2/../../../../arm-elf/lib/thumb/interwork/libc.a(lib_a-signal.o)
                                                  /vagrant/gnuarm/lib/gcc/arm-elf/4.4.2/../../../../arm-elf/lib/thumb/interwork/libc.a(lib_a-realloc.o)
                                                  /vagrant/gnuarm/lib/gcc/arm-elf/4.4.2/../../../../arm-elf/lib/thumb/interwork/libc.a(lib_a-putc.o)
                                                  /vagrant/gnuarm/lib/gcc/arm-elf/4.4.2/../../../../arm-elf/lib/thumb/interwork/libc.a(lib_a-malloc.o)
                                                  /vagrant/gnuarm/lib/gcc/arm-elf/4.4.2/../../../../arm-elf/lib/thumb/interwork/libc.a(lib_a-fwrite.o)
                                                  /vagrant/gnuarm/lib/gcc/arm-elf/4.4.2/../../../../arm-elf/lib/thumb/interwork/libc.a(lib_a-fputs.o)
                                                  /vagrant/gnuarm/lib/gcc/arm-elf/4.4.2/../../../../arm-elf/lib/thumb/interwork/libc.a(lib_a-fputc.o)
                                                  /vagrant/gnuarm/lib/gcc/arm-elf/4.4.2/../../../../arm-elf/lib/thumb/interwork/libstdc++.a(vterminate.o)
_init_signal                                      /vagrant/gnuarm/lib/gcc/arm-elf/4.4.2/../../../../arm-elf/lib/thumb/interwork/libc.a(lib_a-signal.o)
_init_signal_r                                    /vagrant/gnuarm/lib/gcc/arm-elf/4.4.2/../../../../arm-elf/lib/thumb/interwork/libc.a(lib_a-signal.o)
_isatty                                           /vagrant/gnuarm/lib/gcc/arm-elf/4.4.2/../../../../arm-elf/lib/thumb/interwork/libc.a(lib_a-syscalls.o)
                                                  /vagrant/gnuarm/lib/gcc/arm-elf/4.4.2/../../../../arm-elf/lib/thumb/interwork/libc.a(lib_a-isattyr.o)
_isatty_r                                         /vagrant/gnuarm/lib/gcc/arm-elf/4.4.2/../../../../arm-elf/lib/thumb/interwork/libc.a(lib_a-isattyr.o)
                                                  /vagrant/gnuarm/lib/gcc/arm-elf/4.4.2/../../../../arm-elf/lib/thumb/interwork/libc.a(lib_a-makebuf.o)
_kernel_activate_r                                build/config/armv4/cpu_support.oram
                                                  build/kernel/task.o
_kernel_break_wait                                build/config/armv4/cpu_support.oram
_kernel_call_cychdr                               build/kernel/cyclic.o
_kernel_call_inirtn                               build/./kernel_cfg.o
                                                  build/kernel/startup.o
_kernel_call_terrtn                               build/./kernel_cfg.o
                                                  build/kernel/startup.o
_kernel_call_texrtn                               build/kernel/task.o
                                                  build/config/armv4/cpu_support.oram
                                                  build/kernel/task_except.o
_kernel_change_priority                           build/kernel/task.o
                                                  build/kernel/task_manage.o
_kernel_cpu_initialize                            build/config/armv4/cpu_config.o
                                                  build/kernel/startup.o
_kernel_cpu_terminate                             build/config/armv4/cpu_config.o
                                                  build/kernel/startup.o
_kernel_current_time                              build/kernel/time_manage.o
                                                  build/kernel/time_event.o
                                                  build/kernel/syslog.o
_kernel_cyccb_table                               build/./kernel_cfg.o
                                                  build/kernel/cyclic.o
_kernel_cycinib_table                             build/./kernel_cfg.o
                                                  build/kernel/cyclic.o
_kernel_cyclic_initialize                         build/kernel/cyclic.o
                                                  build/./kernel_cfg.o
_kernel_dataqueue_initialize                      build/kernel/dataqueue.o
_kernel_dequeue_data                              build/kernel/dataqueue.o
_kernel_dispatch                                  build/config/armv4/cpu_support.oram
                                                  build/kernel/task_sync.o
                                                  build/kernel/task_manage.o
                                                  build/kernel/sys_manage.o
                                                  build/kernel/semaphore.o
                                                  build/kernel/mempfix.o
                                                  build/kernel/mailbox.o
                                                  build/kernel/eventflag.o
                                                  build/kernel/dataqueue.o
_kernel_dtqcb_table                               build/./kernel_cfg.o
                                                  build/kernel/dataqueue.o
_kernel_dtqinib_table                             build/./kernel_cfg.o
                                                  build/kernel/dataqueue.o
_kernel_enadsp                                    build/config/armv4/cpu_support.oram
                                                  build/kernel/task_sync.o
                                                  build/kernel/task_manage.o
                                                  build/kernel/task.o
                                                  build/kernel/sys_manage.o
                                                  build/kernel/semaphore.o
                                                  build/kernel/mempfix.o
                                                  build/kernel/mailbox.o
                                                  build/kernel/exception.o
                                                  build/kernel/eventflag.o
                                                  build/kernel/dataqueue.o
_kernel_enqueue_data                              build/kernel/dataqueue.o
_kernel_eventflag_cond                            build/kernel/eventflag.o
_kernel_eventflag_initialize                      build/kernel/eventflag.o
_kernel_exception_initialize                      build/kernel/exception.o
_kernel_excinib_table                             build/./kernel_cfg.o
                                                  build/kernel/exception.o
_kernel_exit_and_dispatch                         build/config/armv4/cpu_support.oram
                                                  build/kernel/task.o
                                                  build/kernel/startup.o
_kernel_exit_task                                 build/kernel/task.o
                                                  build/kernel/task_manage.o
_kernel_flgcb_table                               build/./kernel_cfg.o
                                                  build/kernel/eventflag.o
_kernel_flginib_table                             build/./kernel_cfg.o
                                                  build/kernel/eventflag.o
_kernel_force_enqueue_data                        build/kernel/dataqueue.o
_kernel_inhinib_table                             build/./kernel_cfg.o
                                                  build/kernel/interrupt.o
_kernel_iniflg                                    build/config/armv4/at91sam7s/irq.oram
                                                  build/kernel/startup.o
_kernel_int_stack                                 build/config/armv4/cpu_config.o
_kernel_int_table                                 build/config/armv4/at91sam7s/irq.oram
                                                  build/config/armv4/at91sam7s/sys_config.o
_kernel_interrupt_count                           build/config/armv4/at91sam7s/irq.oram
                                                  build/config/armv4/cpu_support.oram
                                                  build/config/armv4/cpu_config.o
                                                  build/kernel/time_manage.o
                                                  build/kernel/time_event.o
                                                  build/kernel/task_sync.o
                                                  build/kernel/task_manage.o
                                                  build/kernel/task_except.o
                                                  build/kernel/sys_manage.o
                                                  build/kernel/semaphore.o
                                                  build/kernel/mempfix.o
                                                  build/kernel/mailbox.o
                                                  build/kernel/exception.o
                                                  build/kernel/eventflag.o
                                                  build/kernel/dataqueue.o
                                                  build/kernel/cyclic.o
_kernel_interrupt_initialize                      build/kernel/interrupt.o
                                                  build/./kernel_cfg.o
_kernel_last_index                                build/kernel/time_event.o
_kernel_mailbox_initialize                        build/kernel/mailbox.o
_kernel_make_active                               build/kernel/task.o
                                                  build/kernel/task_manage.o
_kernel_make_dormant                              build/kernel/task.o
                                                  build/kernel/task_manage.o
_kernel_make_non_runnable                         build/kernel/task.o
                                                  build/kernel/wait.o
                                                  build/kernel/task_sync.o
                                                  build/kernel/task_manage.o
                                                  build/kernel/dataqueue.o
_kernel_make_runnable                             build/kernel/task.o
                                                  build/kernel/wait.o
                                                  build/kernel/task_sync.o
_kernel_make_wait_tmout                           build/kernel/wait.o
                                                  build/kernel/task_sync.o
                                                  build/kernel/dataqueue.o
_kernel_mbxcb_table                               build/./kernel_cfg.o
                                                  build/kernel/mailbox.o
_kernel_mbxinib_table                             build/./kernel_cfg.o
                                                  build/kernel/mailbox.o
_kernel_mempfix_get_block                         build/kernel/mempfix.o
_kernel_mempfix_initialize                        build/kernel/mempfix.o
_kernel_mpfcb_table                               build/./kernel_cfg.o
                                                  build/kernel/mempfix.o
_kernel_mpfinib_table                             build/./kernel_cfg.o
                                                  build/kernel/mempfix.o
_kernel_next_time                                 build/kernel/wait.o
                                                  build/kernel/time_event.o
                                                  build/kernel/task_sync.o
                                                  build/kernel/cyclic.o
_kernel_object_initialize                         build/./kernel_cfg.o
                                                  build/kernel/startup.o
_kernel_print_banner                              build/kernel/banner.o
                                                  build/kernel/startup.o
_kernel_ready_primap                              build/kernel/task.o
_kernel_ready_queue                               build/kernel/task.o
_kernel_receive_data_swait                        build/kernel/dataqueue.o
_kernel_reqflg                                    build/config/armv4/at91sam7s/irq.oram
                                                  build/kernel/wait.o
                                                  build/kernel/task_sync.o
                                                  build/kernel/task_manage.o
                                                  build/kernel/task_except.o
                                                  build/kernel/task.o
                                                  build/kernel/sys_manage.o
                                                  build/kernel/semaphore.o
                                                  build/kernel/eventflag.o
                                                  build/kernel/dataqueue.o
_kernel_ret_exc                                   build/config/armv4/cpu_support.oram
_kernel_ret_int                                   build/config/armv4/cpu_support.oram
                                                  build/config/armv4/at91sam7s/irq.oram
_kernel_rotate_ready_queue                        build/kernel/task.o
                                                  build/kernel/sys_manage.o
_kernel_runtsk                                    build/config/armv4/cpu_support.oram
                                                  build/kernel/wait.o
                                                  build/kernel/task_sync.o
                                                  build/kernel/task_manage.o
                                                  build/kernel/task_except.o
                                                  build/kernel/task.o
                                                  build/kernel/sys_manage.o
                                                  build/kernel/exception.o
                                                  build/kernel/dataqueue.o
_kernel_schedtsk                                  build/config/armv4/cpu_support.oram
                                                  build/kernel/task.o
                                                  build/kernel/sys_manage.o
_kernel_search_schedtsk                           build/kernel/task.o
_kernel_semaphore_initialize                      build/kernel/semaphore.o
                                                  build/./kernel_cfg.o
_kernel_semcb_table                               build/./kernel_cfg.o
                                                  build/kernel/semaphore.o
_kernel_seminib_table                             build/./kernel_cfg.o
                                                  build/kernel/semaphore.o
_kernel_send_data_rwait                           build/kernel/dataqueue.o
_kernel_sys_exit                                  build/config/armv4/at91sam7s/sys_config.o
                                                  build/kernel/startup.o
_kernel_sys_initialize                            build/config/armv4/at91sam7s/sys_config.o
                                                  build/kernel/startup.o
_kernel_sys_putc                                  build/config/armv4/at91sam7s/sys_config.o
                                                  build/kernel/syslog.o
_kernel_syslog_buffer                             build/kernel/syslog.o
_kernel_syslog_count                              build/kernel/syslog.o
_kernel_syslog_head                               build/kernel/syslog.o
_kernel_syslog_initialize                         build/kernel/syslog.o
                                                  build/kernel/startup.o
_kernel_syslog_logmask                            build/kernel/syslog.o
_kernel_syslog_lost                               build/kernel/syslog.o
_kernel_syslog_lowmask                            build/kernel/syslog.o
_kernel_syslog_tail                               build/kernel/syslog.o
_kernel_syslog_terminate                          build/kernel/syslog.o
                                                  build/kernel/startup.o
_kernel_systim_offset                             build/kernel/time_manage.o
                                                  build/kernel/time_event.o
                                                  build/kernel/syslog.o
_kernel_task_initialize                           build/kernel/task.o
                                                  build/./kernel_cfg.o
_kernel_tcb_table                                 build/./kernel_cfg.o
                                                  build/kernel/task_sync.o
                                                  build/kernel/task_manage.o
                                                  build/kernel/task_except.o
                                                  build/kernel/task.o
                                                  build/kernel/sys_manage.o
_kernel_tinib_table                               build/./kernel_cfg.o
                                                  build/kernel/task.o
_kernel_tmax_cycid                                build/./kernel_cfg.o
                                                  build/kernel/cyclic.o
_kernel_tmax_dtqid                                build/./kernel_cfg.o
                                                  build/kernel/dataqueue.o
_kernel_tmax_flgid                                build/./kernel_cfg.o
                                                  build/kernel/eventflag.o
_kernel_tmax_mbxid                                build/./kernel_cfg.o
                                                  build/kernel/mailbox.o
_kernel_tmax_mpfid                                build/./kernel_cfg.o
                                                  build/kernel/mempfix.o
_kernel_tmax_semid                                build/./kernel_cfg.o
                                                  build/kernel/semaphore.o
_kernel_tmax_tskid                                build/./kernel_cfg.o
                                                  build/kernel/task_sync.o
                                                  build/kernel/task_manage.o
                                                  build/kernel/task_except.o
                                                  build/kernel/task.o
_kernel_tmevt_down                                build/kernel/time_event.o
_kernel_tmevt_heap                                build/./kernel_cfg.o
                                                  build/kernel/time_event.o
_kernel_tmevt_initialize                          build/kernel/time_event.o
                                                  build/kernel/startup.o
_kernel_tmevt_up                                  build/kernel/time_event.o
_kernel_tmevtb_delete                             build/kernel/time_event.o
                                                  build/kernel/wait.o
                                                  build/kernel/cyclic.o
_kernel_tmevtb_enqueue_cyc                        build/kernel/cyclic.o
_kernel_tmevtb_insert                             build/kernel/time_event.o
                                                  build/kernel/wait.o
                                                  build/kernel/task_sync.o
                                                  build/kernel/cyclic.o
_kernel_tnum_excno                                build/./kernel_cfg.o
                                                  build/kernel/exception.o
_kernel_tnum_inhno                                build/./kernel_cfg.o
                                                  build/kernel/interrupt.o
_kernel_torder_table                              build/./kernel_cfg.o
                                                  build/kernel/task.o
_kernel_wait_cancel                               build/kernel/wait.o
                                                  build/kernel/task_manage.o
_kernel_wait_complete                             build/kernel/wait.o
                                                  build/kernel/task_sync.o
                                                  build/kernel/semaphore.o
                                                  build/kernel/mempfix.o
                                                  build/kernel/mailbox.o
                                                  build/kernel/eventflag.o
                                                  build/kernel/dataqueue.o
_kernel_wait_release                              build/kernel/wait.o
                                                  build/kernel/task_sync.o
_kernel_wait_tmout                                build/kernel/wait.o
_kernel_wait_tmout_ok                             build/kernel/wait.o
                                                  build/kernel/task_sync.o
_kernel_wobj_change_priority                      build/kernel/wait.o
                                                  build/kernel/task_manage.o
_kernel_wobj_make_wait                            build/kernel/wait.o
                                                  build/kernel/semaphore.o
                                                  build/kernel/mempfix.o
                                                  build/kernel/mailbox.o
                                                  build/kernel/eventflag.o
                                                  build/kernel/dataqueue.o
_kernel_wobj_make_wait_tmout                      build/kernel/wait.o
                                                  build/kernel/semaphore.o
                                                  build/kernel/mempfix.o
                                                  build/kernel/mailbox.o
                                                  build/kernel/eventflag.o
                                                  build/kernel/dataqueue.o
_kill                                             /vagrant/gnuarm/lib/gcc/arm-elf/4.4.2/../../../../arm-elf/lib/thumb/interwork/libc.a(lib_a-syscalls.o)
                                                  /vagrant/gnuarm/lib/gcc/arm-elf/4.4.2/../../../../arm-elf/lib/thumb/interwork/libc.a(lib_a-signalr.o)
_kill_r                                           /vagrant/gnuarm/lib/gcc/arm-elf/4.4.2/../../../../arm-elf/lib/thumb/interwork/libc.a(lib_a-signalr.o)
                                                  /vagrant/gnuarm/lib/gcc/arm-elf/4.4.2/../../../../arm-elf/lib/thumb/interwork/libc.a(lib_a-signal.o)
_link                                             /vagrant/gnuarm/lib/gcc/arm-elf/4.4.2/../../../../arm-elf/lib/thumb/interwork/libc.a(lib_a-syscalls.o)
_localeconv_r                                     /vagrant/gnuarm/lib/gcc/arm-elf/4.4.2/../../../../arm-elf/lib/thumb/interwork/libc.a(lib_a-locale.o)
                                                  /vagrant/gnuarm/lib/gcc/arm-elf/4.4.2/../../../../arm-elf/lib/thumb/interwork/libc.a(lib_a-svfprintf.o)
_lseek                                            /vagrant/gnuarm/lib/gcc/arm-elf/4.4.2/../../../../arm-elf/lib/thumb/interwork/libc.a(lib_a-syscalls.o)
                                                  /vagrant/gnuarm/lib/gcc/arm-elf/4.4.2/../../../../arm-elf/lib/thumb/interwork/libc.a(lib_a-lseekr.o)
_lseek_r                                          /vagrant/gnuarm/lib/gcc/arm-elf/4.4.2/../../../../arm-elf/lib/thumb/interwork/libc.a(lib_a-lseekr.o)
                                                  /vagrant/gnuarm/lib/gcc/arm-elf/4.4.2/../../../../arm-elf/lib/thumb/interwork/libc.a(lib_a-stdio.o)
_malloc_r                                         /vagrant/gnuarm/lib/gcc/arm-elf/4.4.2/../../../../arm-elf/lib/thumb/interwork/libc.a(lib_a-mallocr.o)
                                                  /vagrant/gnuarm/lib/gcc/arm-elf/4.4.2/../../../../arm-elf/lib/thumb/interwork/libc.a(lib_a-callocr.o)
                                                  /vagrant/gnuarm/lib/gcc/arm-elf/4.4.2/../../../../arm-elf/lib/thumb/interwork/libc.a(lib_a-svfiprintf.o)
                                                  /vagrant/gnuarm/lib/gcc/arm-elf/4.4.2/../../../../arm-elf/lib/thumb/interwork/libc.a(lib_a-makebuf.o)
                                                  /vagrant/gnuarm/lib/gcc/arm-elf/4.4.2/../../../../arm-elf/lib/thumb/interwork/libc.a(lib_a-findfp.o)
                                                  /vagrant/gnuarm/lib/gcc/arm-elf/4.4.2/../../../../arm-elf/lib/thumb/interwork/libc.a(lib_a-svfprintf.o)
                                                  /vagrant/gnuarm/lib/gcc/arm-elf/4.4.2/../../../../arm-elf/lib/thumb/interwork/libc.a(lib_a-signal.o)
                                                  /vagrant/gnuarm/lib/gcc/arm-elf/4.4.2/../../../../arm-elf/lib/thumb/interwork/libc.a(lib_a-reallocr.o)
                                                  /vagrant/gnuarm/lib/gcc/arm-elf/4.4.2/../../../../arm-elf/lib/thumb/interwork/libc.a(lib_a-malloc.o)
                                                  /vagrant/gnuarm/lib/gcc/arm-elf/4.4.2/../../../../arm-elf/lib/thumb/interwork/libc.a(lib_a-fvwrite.o)
_malloc_trim_r                                    /vagrant/gnuarm/lib/gcc/arm-elf/4.4.2/../../../../arm-elf/lib/thumb/interwork/libc.a(lib_a-freer.o)
_mprec_log10                                      /vagrant/gnuarm/lib/gcc/arm-elf/4.4.2/../../../../arm-elf/lib/thumb/interwork/libc.a(lib_a-mprec.o)
_open                                             /vagrant/gnuarm/lib/gcc/arm-elf/4.4.2/../../../../arm-elf/lib/thumb/interwork/libc.a(lib_a-syscalls.o)
_putc_r                                           /vagrant/gnuarm/lib/gcc/arm-elf/4.4.2/../../../../arm-elf/lib/thumb/interwork/libc.a(lib_a-putc.o)
                                                  /vagrant/gnuarm/lib/gcc/arm-elf/4.4.2/../../../../arm-elf/lib/thumb/interwork/libc.a(lib_a-fputc.o)
_raise                                            /vagrant/gnuarm/lib/gcc/arm-elf/4.4.2/../../../../arm-elf/lib/thumb/interwork/libc.a(lib_a-syscalls.o)
_raise_r                                          /vagrant/gnuarm/lib/gcc/arm-elf/4.4.2/../../../../arm-elf/lib/thumb/interwork/libc.a(lib_a-signal.o)
_read                                             /vagrant/gnuarm/lib/gcc/arm-elf/4.4.2/../../../../arm-elf/lib/thumb/interwork/libc.a(lib_a-syscalls.o)
                                                  /vagrant/gnuarm/lib/gcc/arm-elf/4.4.2/../../../../arm-elf/lib/thumb/interwork/libc.a(lib_a-readr.o)
_read_r                                           /vagrant/gnuarm/lib/gcc/arm-elf/4.4.2/../../../../arm-elf/lib/thumb/interwork/libc.a(lib_a-readr.o)
                                                  /vagrant/gnuarm/lib/gcc/arm-elf/4.4.2/../../../../arm-elf/lib/thumb/interwork/libc.a(lib_a-stdio.o)
_realloc_r                                        /vagrant/gnuarm/lib/gcc/arm-elf/4.4.2/../../../../arm-elf/lib/thumb/interwork/libc.a(lib_a-reallocr.o)
                                                  /vagrant/gnuarm/lib/gcc/arm-elf/4.4.2/../../../../arm-elf/lib/thumb/interwork/libc.a(lib_a-svfiprintf.o)
                                                  /vagrant/gnuarm/lib/gcc/arm-elf/4.4.2/../../../../arm-elf/lib/thumb/interwork/libc.a(lib_a-realloc.o)
                                                  /vagrant/gnuarm/lib/gcc/arm-elf/4.4.2/../../../../arm-elf/lib/thumb/interwork/libc.a(lib_a-fvwrite.o)
_reclaim_reent                                    /vagrant/gnuarm/lib/gcc/arm-elf/4.4.2/../../../../arm-elf/lib/thumb/interwork/libc.a(lib_a-reent.o)
_rename                                           /vagrant/gnuarm/lib/gcc/arm-elf/4.4.2/../../../../arm-elf/lib/thumb/interwork/libc.a(lib_a-syscalls.o)
_sbrk                                             /vagrant/gnuarm/lib/gcc/arm-elf/4.4.2/../../../../arm-elf/lib/thumb/interwork/libc.a(lib_a-syscalls.o)
_sbrk_r                                           build/syscalls.o
                                                  /vagrant/gnuarm/lib/gcc/arm-elf/4.4.2/../../../../arm-elf/lib/thumb/interwork/libc.a(lib_a-freer.o)
                                                  /vagrant/gnuarm/lib/gcc/arm-elf/4.4.2/../../../../arm-elf/lib/thumb/interwork/libc.a(lib_a-mallocr.o)
_setlocale_r                                      /vagrant/gnuarm/lib/gcc/arm-elf/4.4.2/../../../../arm-elf/lib/thumb/interwork/libc.a(lib_a-locale.o)
_signal_r                                         /vagrant/gnuarm/lib/gcc/arm-elf/4.4.2/../../../../arm-elf/lib/thumb/interwork/libc.a(lib_a-signal.o)
_sprintf_r                                        /vagrant/gnuarm/lib/gcc/arm-elf/4.4.2/../../../../arm-elf/lib/thumb/interwork/libc.a(lib_a-sprintf.o)
_stat                                             /vagrant/gnuarm/lib/gcc/arm-elf/4.4.2/../../../../arm-elf/lib/thumb/interwork/libc.a(lib_a-syscalls.o)
_svfiprintf_r                                     /vagrant/gnuarm/lib/gcc/arm-elf/4.4.2/../../../../arm-elf/lib/thumb/interwork/libc.a(lib_a-svfiprintf.o)
_svfprintf_r                                      /vagrant/gnuarm/lib/gcc/arm-elf/4.4.2/../../../../arm-elf/lib/thumb/interwork/libc.a(lib_a-svfprintf.o)
                                                  /vagrant/gnuarm/lib/gcc/arm-elf/4.4.2/../../../../arm-elf/lib/thumb/interwork/libc.a(lib_a-sprintf.o)
_swiclose                                         /vagrant/gnuarm/lib/gcc/arm-elf/4.4.2/../../../../arm-elf/lib/thumb/interwork/libc.a(lib_a-syscalls.o)
_swilseek                                         /vagrant/gnuarm/lib/gcc/arm-elf/4.4.2/../../../../arm-elf/lib/thumb/interwork/libc.a(lib_a-syscalls.o)
_swiopen                                          /vagrant/gnuarm/lib/gcc/arm-elf/4.4.2/../../../../arm-elf/lib/thumb/interwork/libc.a(lib_a-syscalls.o)
_swiread                                          /vagrant/gnuarm/lib/gcc/arm-elf/4.4.2/../../../../arm-elf/lib/thumb/interwork/libc.a(lib_a-syscalls.o)
_swiwrite                                         /vagrant/gnuarm/lib/gcc/arm-elf/4.4.2/../../../../arm-elf/lib/thumb/interwork/libc.a(lib_a-syscalls.o)
_system                                           /vagrant/gnuarm/lib/gcc/arm-elf/4.4.2/../../../../arm-elf/lib/thumb/interwork/libc.a(lib_a-syscalls.o)
_times                                            /vagrant/gnuarm/lib/gcc/arm-elf/4.4.2/../../../../arm-elf/lib/thumb/interwork/libc.a(lib_a-syscalls.o)
_unlink                                           /vagrant/gnuarm/lib/gcc/arm-elf/4.4.2/../../../../arm-elf/lib/thumb/interwork/libc.a(lib_a-syscalls.o)
_wrapup_reent                                     /vagrant/gnuarm/lib/gcc/arm-elf/4.4.2/../../../../arm-elf/lib/thumb/interwork/libc.a(lib_a-reent.o)
_write                                            /vagrant/gnuarm/lib/gcc/arm-elf/4.4.2/../../../../arm-elf/lib/thumb/interwork/libc.a(lib_a-syscalls.o)
                                                  /vagrant/gnuarm/lib/gcc/arm-elf/4.4.2/../../../../arm-elf/lib/thumb/interwork/libc.a(lib_a-writer.o)
_write_r                                          /vagrant/gnuarm/lib/gcc/arm-elf/4.4.2/../../../../arm-elf/lib/thumb/interwork/libc.a(lib_a-writer.o)
                                                  /vagrant/gnuarm/lib/gcc/arm-elf/4.4.2/../../../../arm-elf/lib/thumb/interwork/libc.a(lib_a-stdio.o)
                                                  /vagrant/gnuarm/lib/gcc/arm-elf/4.4.2/../../../../arm-elf/lib/thumb/interwork/libc.a(lib_a-syswrite.o)
abort                                             /vagrant/gnuarm/lib/gcc/arm-elf/4.4.2/../../../../arm-elf/lib/thumb/interwork/libc.a(lib_a-abort.o)
                                                  /vagrant/gnuarm/lib/gcc/arm-elf/4.4.2/thumb/interwork/libgcc.a(unwind-sjlj.o)
                                                  /vagrant/gnuarm/lib/gcc/arm-elf/4.4.2/../../../../arm-elf/lib/thumb/interwork/libstdc++.a(vterminate.o)
                                                  /vagrant/gnuarm/lib/gcc/arm-elf/4.4.2/../../../../arm-elf/lib/thumb/interwork/libstdc++.a(eh_terminate.o)
                                                  /vagrant/gnuarm/lib/gcc/arm-elf/4.4.2/../../../../arm-elf/lib/thumb/interwork/libstdc++.a(eh_personality.o)
act_tsk                                           build/kernel/task_manage.o
add_status_info                                   build/ecrobot_base.o
                                                  build/ecrobot.o
                                                  build/ecrobot_bluetooth.o
aic_clear                                         ../ecrobot/../ecrobot/libecrobot.a(aic.oram)
                                                  ../ecrobot/../ecrobot/libecrobot.a(bt.oram)
                                                  ../ecrobot/../ecrobot/libecrobot.a(sound.oram)
aic_initialise                                    ../ecrobot/../ecrobot/libecrobot.a(aic.oram)
                                                  ../ecrobot/../ecrobot/libecrobot.a(flash_loader.oram)
aic_mask_off                                      ../ecrobot/../ecrobot/libecrobot.a(aic.oram)
                                                  ../ecrobot/../ecrobot/libecrobot.a(bt.oram)
                                                  ../ecrobot/../ecrobot/libecrobot.a(i2c.oram)
                                                  ../ecrobot/../ecrobot/libecrobot.a(nxt_motors.oram)
                                                  ../ecrobot/../ecrobot/libecrobot.a(nxt_spi.oram)
                                                  ../ecrobot/../ecrobot/libecrobot.a(twi.oram)
                                                  ../ecrobot/../ecrobot/libecrobot.a(udp.oram)
                                                  ../ecrobot/../ecrobot/libecrobot.a(systick.oram)
                                                  ../ecrobot/../ecrobot/libecrobot.a(uart.oram)
aic_mask_on                                       ../ecrobot/../ecrobot/libecrobot.a(aic.oram)
                                                  ../ecrobot/../ecrobot/libecrobot.a(sound.oram)
                                                  ../ecrobot/../ecrobot/libecrobot.a(i2c.oram)
                                                  ../ecrobot/../ecrobot/libecrobot.a(nxt_motors.oram)
                                                  ../ecrobot/../ecrobot/libecrobot.a(nxt_spi.oram)
                                                  ../ecrobot/../ecrobot/libecrobot.a(twi.oram)
                                                  ../ecrobot/../ecrobot/libecrobot.a(udp.oram)
                                                  ../ecrobot/../ecrobot/libecrobot.a(systick.oram)
                                                  ../ecrobot/../ecrobot/libecrobot.a(uart.oram)
aic_set_vector                                    ../ecrobot/../ecrobot/libecrobot.a(aic.oram)
                                                  ../ecrobot/../ecrobot/libecrobot.a(sound.oram)
                                                  ../ecrobot/../ecrobot/libecrobot.a(i2c.oram)
                                                  ../ecrobot/../ecrobot/libecrobot.a(nxt_motors.oram)
                                                  ../ecrobot/../ecrobot/libecrobot.a(nxt_spi.oram)
                                                  ../ecrobot/../ecrobot/libecrobot.a(twi.oram)
                                                  ../ecrobot/../ecrobot/libecrobot.a(udp.oram)
                                                  ../ecrobot/../ecrobot/libecrobot.a(systick.oram)
                                                  ../ecrobot/../ecrobot/libecrobot.a(uart.oram)
avr_brainwash_string                              ../ecrobot/../ecrobot/libecrobot.a(nxt_avr.oram)
backTurnLeft                                      build/main.o
backTurnRight                                     build/main.o
backward                                          build/main.o
battery_voltage                                   ../ecrobot/../ecrobot/libecrobot.a(nxt_avr.oram)
                                                  ../ecrobot/../ecrobot/libecrobot.a(ecrobot_interface.o)
bt_clear_arm7_cmd                                 ../ecrobot/../ecrobot/libecrobot.a(bt.oram)
                                                  build/ecrobot_bluetooth.o
bt_get_mode                                       ../ecrobot/../ecrobot/libecrobot.a(bt.oram)
bt_init                                           ../ecrobot/../ecrobot/libecrobot.a(bt.oram)
                                                  ../ecrobot/../ecrobot/libecrobot.a(flash_loader.oram)
bt_pending                                        ../ecrobot/../ecrobot/libecrobot.a(bt.oram)
                                                  build/ecrobot_bluetooth.o
bt_read                                           ../ecrobot/../ecrobot/libecrobot.a(bt.oram)
                                                  build/ecrobot_bluetooth.o
bt_receive                                        ../ecrobot/../ecrobot/libecrobot.a(bt.oram)
                                                  build/ecrobot_bluetooth.o
bt_reset                                          ../ecrobot/../ecrobot/libecrobot.a(bt.oram)
                                                  build/ecrobot_bluetooth.o
bt_send                                           ../ecrobot/../ecrobot/libecrobot.a(bt.oram)
                                                  build/ecrobot_bluetooth.o
bt_set_arm7_cmd                                   ../ecrobot/../ecrobot/libecrobot.a(bt.oram)
                                                  build/ecrobot_bluetooth.o
bt_set_reset_high                                 ../ecrobot/../ecrobot/libecrobot.a(bt.oram)
bt_set_reset_low                                  ../ecrobot/../ecrobot/libecrobot.a(bt.oram)
bt_start_ad_converter                             ../ecrobot/../ecrobot/libecrobot.a(bt.oram)
bt_write                                          ../ecrobot/../ecrobot/libecrobot.a(bt.oram)
                                                  build/ecrobot_bluetooth.o
buttons_get                                       ../ecrobot/../ecrobot/libecrobot.a(nxt_avr.oram)
                                                  ../ecrobot/../ecrobot/libecrobot.a(flash_loader.oram)
                                                  ../ecrobot/../ecrobot/libecrobot.a(sensors.oram)
                                                  ../ecrobot/../ecrobot/libecrobot.a(ecrobot_interface.o)
byte_fifo_clear                                   ../ecrobot/../ecrobot/libecrobot.a(byte_fifo.oram)
byte_fifo_get                                     ../ecrobot/../ecrobot/libecrobot.a(byte_fifo.oram)
                                                  ../ecrobot/../ecrobot/libecrobot.a(uart.oram)
byte_fifo_init                                    ../ecrobot/../ecrobot/libecrobot.a(byte_fifo.oram)
                                                  ../ecrobot/../ecrobot/libecrobot.a(uart.oram)
byte_fifo_put                                     ../ecrobot/../ecrobot/libecrobot.a(byte_fifo.oram)
                                                  ../ecrobot/../ecrobot/libecrobot.a(uart.oram)
can_act                                           build/kernel/task_manage.o
can_wup                                           build/kernel/task_sync.o
check_NXT_buttons                                 build/ecrobot_base.o
                                                  build/main.o
check_for_data                                    ../ecrobot/../ecrobot/libecrobot.a(sensors.oram)
chg_pri                                           build/kernel/task_manage.o
cleanup_glue                                      /vagrant/gnuarm/lib/gcc/arm-elf/4.4.2/../../../../arm-elf/lib/thumb/interwork/libc.a(lib_a-reent.o)
clear_flash_request                               ../ecrobot/../ecrobot/libecrobot.a(flash_loader.oram)
clr_flg                                           build/kernel/eventflag.o
colorsensor_color_get                             ../ecrobot/../ecrobot/libecrobot.a(colorsensor.o)
                                                  ../ecrobot/../ecrobot/libecrobot.a(ecrobot_interface.o)
colorsensor_init                                  ../ecrobot/../ecrobot/libecrobot.a(colorsensor.o)
                                                  ../ecrobot/../ecrobot/libecrobot.a(ecrobot_interface.o)
colorsensor_light_full                            ../ecrobot/../ecrobot/libecrobot.a(colorsensor.o)
                                                  ../ecrobot/../ecrobot/libecrobot.a(ecrobot_interface.o)
colorsensor_light_get                             ../ecrobot/../ecrobot/libecrobot.a(colorsensor.o)
                                                  ../ecrobot/../ecrobot/libecrobot.a(ecrobot_interface.o)
colorsensor_rgb_get                               ../ecrobot/../ecrobot/libecrobot.a(colorsensor.o)
                                                  ../ecrobot/../ecrobot/libecrobot.a(ecrobot_interface.o)
colorsensor_term                                  ../ecrobot/../ecrobot/libecrobot.a(colorsensor.o)
                                                  ../ecrobot/../ecrobot/libecrobot.a(ecrobot_interface.o)
cpp_constructor                                   build/ecrobot_base.o
                                                  build/ecrobot.o
cpp_destructor                                    build/ecrobot_base.o
current_sr                                        build/config/armv4/cpu_support.oram
                                                  build/kernel/time_manage.o
                                                  build/kernel/time_event.o
                                                  build/kernel/task_sync.o
                                                  build/kernel/task_manage.o
                                                  build/kernel/task_except.o
                                                  build/kernel/task.o
                                                  build/kernel/syslog.o
                                                  build/kernel/sys_manage.o
                                                  build/kernel/startup.o
                                                  build/kernel/semaphore.o
                                                  build/kernel/mempfix.o
                                                  build/kernel/mailbox.o
                                                  build/kernel/eventflag.o
                                                  build/kernel/dataqueue.o
                                                  build/kernel/cyclic.o
data                                              ../ecrobot/../ecrobot/libecrobot.a(nxt_spi.oram)
data_abort_C                                      ../ecrobot/../ecrobot/libecrobot.a(data_abort.oram)
                                                  build/ecrobot_init.o
data_abort_exception                              build/config/armv4/cpu_config.o
data_abort_handler                                build/ecrobot_init.o
                                                  build/nxtvm/platform/nxt/vectors.o
                                                  build/nxtvm/platform/nxt/vectors.o
data_abort_pc                                     ../ecrobot/../ecrobot/libecrobot.a(data_abort.oram)
                                                  build/ecrobot_init.o
default_fiq                                       build/config/armv4/at91sam7s/irq.oram
                                                  ../ecrobot/../ecrobot/libecrobot.a(aic.oram)
default_isr                                       build/config/armv4/at91sam7s/irq.oram
                                                  ../ecrobot/../ecrobot/libecrobot.a(aic.oram)
define_exc                                        build/config/armv4/cpu_config.o
                                                  build/kernel/exception.o
define_inh                                        build/config/armv4/at91sam7s/sys_config.o
                                                  build/kernel/interrupt.o
dirty                                             ../ecrobot/../ecrobot/libecrobot.a(nxt_spi.oram)
dis_dsp                                           build/kernel/sys_manage.o
dis_tex                                           build/kernel/task_except.o
display                                           ../ecrobot/../ecrobot/libecrobot.a(nxt_spi.oram)
display_auto_update                               ../ecrobot/../ecrobot/libecrobot.a(display.oram)
display_bios_status                               ../ecrobot/../ecrobot/libecrobot.a(flash_loader.oram)
display_bitmap_copy                               ../ecrobot/../ecrobot/libecrobot.a(display.oram)
                                                  ../ecrobot/../ecrobot/libecrobot++.a(Lcd.o)
                                                  build/ecrobot_base.o
display_char                                      ../ecrobot/../ecrobot/libecrobot.a(display.oram)
display_clear                                     ../ecrobot/../ecrobot/libecrobot.a(display.oram)
                                                  ../ecrobot/../ecrobot/libecrobot.a(flash_loader.oram)
                                                  ../ecrobot/../ecrobot/libecrobot.a(data_abort.oram)
                                                  ../ecrobot/../ecrobot/libecrobot.a(ecrobot_interface.o)
                                                  ../ecrobot/../ecrobot/libecrobot++.a(Lcd.o)
                                                  build/ecrobot.o
                                                  build/ecrobot_base.o
                                                  build/rtoscalls.o
display_force_update                              ../ecrobot/../ecrobot/libecrobot.a(display.oram)
                                                  ../ecrobot/../ecrobot/libecrobot.a(data_abort.oram)
                                                  build/ecrobot_base.o
display_get_array                                 ../ecrobot/../ecrobot/libecrobot.a(display.oram)
display_get_buffer                                ../ecrobot/../ecrobot/libecrobot.a(display.oram)
display_goto_xy                                   ../ecrobot/../ecrobot/libecrobot.a(display.oram)
                                                  ../ecrobot/../ecrobot/libecrobot.a(data_abort.oram)
                                                  ../ecrobot/../ecrobot/libecrobot.a(ecrobot_interface.o)
                                                  ../ecrobot/../ecrobot/libecrobot++.a(Lcd.o)
                                                  build/ecrobot_base.o
                                                  build/rtoscalls.o
display_hex                                       ../ecrobot/../ecrobot/libecrobot.a(display.oram)
                                                  ../ecrobot/../ecrobot/libecrobot.a(data_abort.oram)
                                                  ../ecrobot/../ecrobot/libecrobot++.a(Lcd.o)
                                                  build/ecrobot_base.o
display_init                                      ../ecrobot/../ecrobot/libecrobot.a(display.oram)
                                                  ../ecrobot/../ecrobot/libecrobot.a(flash_loader.oram)
display_int                                       ../ecrobot/../ecrobot/libecrobot.a(display.oram)
                                                  ../ecrobot/../ecrobot/libecrobot.a(ecrobot_interface.o)
                                                  ../ecrobot/../ecrobot/libecrobot++.a(Lcd.o)
display_set_auto_update                           ../ecrobot/../ecrobot/libecrobot.a(display.oram)
display_status_bar                                build/ecrobot_base.o
                                                  build/ecrobot.o
display_string                                    ../ecrobot/../ecrobot/libecrobot.a(display.oram)
                                                  ../ecrobot/../ecrobot/libecrobot.a(data_abort.oram)
                                                  ../ecrobot/../ecrobot/libecrobot.a(ecrobot_interface.o)
                                                  ../ecrobot/../ecrobot/libecrobot++.a(Lcd.o)
                                                  build/ecrobot_base.o
                                                  build/rtoscalls.o
display_test                                      ../ecrobot/../ecrobot/libecrobot.a(display.oram)
display_tick                                      ../ecrobot/../ecrobot/libecrobot.a(display.oram)
display_unsigned                                  ../ecrobot/../ecrobot/libecrobot.a(display.oram)
                                                  ../ecrobot/../ecrobot/libecrobot.a(ecrobot_interface.o)
                                                  build/ecrobot_base.o
display_update                                    ../ecrobot/../ecrobot/libecrobot.a(display.oram)
                                                  ../ecrobot/../ecrobot/libecrobot.a(ecrobot_interface.o)
                                                  ../ecrobot/../ecrobot/libecrobot++.a(Lcd.o)
                                                  build/ecrobot_base.o
                                                  build/rtoscalls.o
display_x                                         ../ecrobot/../ecrobot/libecrobot.a(display.oram)
display_y                                         ../ecrobot/../ecrobot/libecrobot.a(display.oram)
dly_tsk                                           build/kernel/task_sync.o
                                                  build/rtoscalls.o
ecrobot::I2c::I2c(ePortS, ePower)                 ../ecrobot/../ecrobot/libecrobot++.a(I2c.o)
                                                  ../ecrobot/../ecrobot/libecrobot++.a(SonarSensor.o)
ecrobot::I2c::I2c(ePortS, ePower)                 ../ecrobot/../ecrobot/libecrobot++.a(I2c.o)
ecrobot::I2c::receive(unsigned long, unsigned char*, unsigned long) const ../ecrobot/../ecrobot/libecrobot++.a(I2c.o)
                                                  ../ecrobot/../ecrobot/libecrobot++.a(SonarSensor.o)
ecrobot::I2c::send(unsigned long, unsigned char*, unsigned long) ../ecrobot/../ecrobot/libecrobot++.a(I2c.o)
ecrobot::I2c::~I2c()                              ../ecrobot/../ecrobot/libecrobot++.a(I2c.o)
ecrobot::I2c::~I2c()                              ../ecrobot/../ecrobot/libecrobot++.a(I2c.o)
ecrobot::I2c::~I2c()                              ../ecrobot/../ecrobot/libecrobot++.a(I2c.o)
                                                  ../ecrobot/../ecrobot/libecrobot++.a(SonarSensor.o)
                                                  build/main.o
ecrobot::Lcd::Lcd()                               ../ecrobot/../ecrobot/libecrobot++.a(Lcd.o)
ecrobot::Lcd::Lcd()                               ../ecrobot/../ecrobot/libecrobot++.a(Lcd.o)
                                                  build/main.o
ecrobot::Lcd::clear(bool)                         ../ecrobot/../ecrobot/libecrobot++.a(Lcd.o)
ecrobot::Lcd::clearRow(unsigned long, bool)       ../ecrobot/../ecrobot/libecrobot++.a(Lcd.o)
ecrobot::Lcd::cursor(unsigned long, unsigned long) ../ecrobot/../ecrobot/libecrobot++.a(Lcd.o)
ecrobot::Lcd::disp()                              ../ecrobot/../ecrobot/libecrobot++.a(Lcd.o)
                                                  build/main.o
ecrobot::Lcd::draw(unsigned char const*, unsigned long, unsigned long, unsigned long, unsigned long) ../ecrobot/../ecrobot/libecrobot++.a(Lcd.o)
ecrobot::Lcd::putf(char const*, ...)              ../ecrobot/../ecrobot/libecrobot++.a(Lcd.o)
                                                  build/main.o
ecrobot::LightSensor::LightSensor(ePortS, bool)   ../ecrobot/../ecrobot/libecrobot++.a(LightSensor.o)
                                                  build/main.o
ecrobot::LightSensor::LightSensor(ePortS, bool)   ../ecrobot/../ecrobot/libecrobot++.a(LightSensor.o)
ecrobot::LightSensor::getBrightness() const       ../ecrobot/../ecrobot/libecrobot++.a(LightSensor.o)
                                                  build/main.o
ecrobot::LightSensor::setLamp(bool)               ../ecrobot/../ecrobot/libecrobot++.a(LightSensor.o)
ecrobot::LightSensor::~LightSensor()              ../ecrobot/../ecrobot/libecrobot++.a(LightSensor.o)
ecrobot::LightSensor::~LightSensor()              ../ecrobot/../ecrobot/libecrobot++.a(LightSensor.o)
ecrobot::LightSensor::~LightSensor()              ../ecrobot/../ecrobot/libecrobot++.a(LightSensor.o)
                                                  build/main.o
ecrobot::Motor::Motor(ePortM, bool)               ../ecrobot/../ecrobot/libecrobot++.a(Motor.o)
                                                  build/main.o
ecrobot::Motor::Motor(ePortM, bool)               ../ecrobot/../ecrobot/libecrobot++.a(Motor.o)
ecrobot::Motor::setBrake(bool)                    ../ecrobot/../ecrobot/libecrobot++.a(Motor.o)
ecrobot::Motor::setPWM(signed char)               ../ecrobot/../ecrobot/libecrobot++.a(Motor.o)
                                                  build/main.o
ecrobot::Motor::~Motor()                          ../ecrobot/../ecrobot/libecrobot++.a(Motor.o)
ecrobot::Motor::~Motor()                          ../ecrobot/../ecrobot/libecrobot++.a(Motor.o)
                                                  build/main.o
ecrobot::Sensor::~Sensor()                        build/main.o
                                                  ../ecrobot/../ecrobot/libecrobot++.a(TouchSensor.o)
                                                  ../ecrobot/../ecrobot/libecrobot++.a(LightSensor.o)
ecrobot::Sensor::~Sensor()                        build/main.o
                                                  ../ecrobot/../ecrobot/libecrobot++.a(TouchSensor.o)
                                                  ../ecrobot/../ecrobot/libecrobot++.a(LightSensor.o)
ecrobot::SonarSensor::SonarSensor(ePortS)         ../ecrobot/../ecrobot/libecrobot++.a(SonarSensor.o)
                                                  build/main.o
ecrobot::SonarSensor::SonarSensor(ePortS)         ../ecrobot/../ecrobot/libecrobot++.a(SonarSensor.o)
ecrobot::SonarSensor::getDistance() const         ../ecrobot/../ecrobot/libecrobot++.a(SonarSensor.o)
                                                  build/main.o
ecrobot::SonarSensor::~SonarSensor()              build/main.o
                                                  ../ecrobot/../ecrobot/libecrobot++.a(SonarSensor.o)
ecrobot::SonarSensor::~SonarSensor()              build/main.o
                                                  ../ecrobot/../ecrobot/libecrobot++.a(SonarSensor.o)
ecrobot::TouchSensor::TouchSensor(ePortS)         ../ecrobot/../ecrobot/libecrobot++.a(TouchSensor.o)
                                                  build/main.o
ecrobot::TouchSensor::TouchSensor(ePortS)         ../ecrobot/../ecrobot/libecrobot++.a(TouchSensor.o)
ecrobot::TouchSensor::isPressed() const           ../ecrobot/../ecrobot/libecrobot++.a(TouchSensor.o)
                                                  build/main.o
ecrobot::TouchSensor::~TouchSensor()              build/main.o
                                                  ../ecrobot/../ecrobot/libecrobot++.a(TouchSensor.o)
ecrobot::TouchSensor::~TouchSensor()              build/main.o
                                                  ../ecrobot/../ecrobot/libecrobot++.a(TouchSensor.o)
ecrobot_adc_data_monitor                          ../ecrobot/../ecrobot/libecrobot.a(ecrobot_interface.o)
ecrobot_bmp2lcd                                   ../ecrobot/../ecrobot/libecrobot.a(ecrobot_interface.o)
                                                  build/ecrobot_base.o
ecrobot_bt_adc_data_logger                        ../ecrobot/../ecrobot/libecrobot.a(ecrobot_interface.o)
ecrobot_bt_data_logger                            ../ecrobot/../ecrobot/libecrobot.a(ecrobot_interface.o)
ecrobot_debug                                     ../ecrobot/../ecrobot/libecrobot.a(ecrobot_interface.o)
ecrobot_debug1                                    ../ecrobot/../ecrobot/libecrobot.a(ecrobot_interface.o)
ecrobot_debug2                                    ../ecrobot/../ecrobot/libecrobot.a(ecrobot_interface.o)
ecrobot_device_initialize                         ../ecrobot/../ecrobot/libecrobot.a(ecrobot_device_hook.o)
                                                  build/ecrobot.o
ecrobot_device_terminate                          ../ecrobot/../ecrobot/libecrobot.a(ecrobot_device_hook.o)
                                                  build/ecrobot.o
                                                  build/ecrobot_base.o
ecrobot_disconnect_usb                            ../ecrobot/../ecrobot/libecrobot.a(ecrobot_usb.o)
ecrobot_exec_NXT_BIOS                             ../ecrobot/../ecrobot/libecrobot.a(ecrobot_interface.o)
ecrobot_get_RCX_sensor                            ../ecrobot/../ecrobot/libecrobot.a(ecrobot_interface.o)
ecrobot_get_RCX_touch_sensor                      ../ecrobot/../ecrobot/libecrobot.a(ecrobot_interface.o)
ecrobot_get_battery_voltage                       ../ecrobot/../ecrobot/libecrobot.a(ecrobot_interface.o)
                                                  build/ecrobot_base.o
ecrobot_get_bt_device_address                     build/ecrobot_bluetooth.o
ecrobot_get_bt_device_name                        build/ecrobot_bluetooth.o
ecrobot_get_bt_signal_strength                    build/ecrobot_bluetooth.o
ecrobot_get_bt_status                             build/ecrobot_bluetooth.o
                                                  ../ecrobot/../ecrobot/libecrobot.a(ecrobot_interface.o)
ecrobot_get_button_state                          ../ecrobot/../ecrobot/libecrobot.a(ecrobot_interface.o)
                                                  build/ecrobot.o
                                                  build/ecrobot_base.o
ecrobot_get_light_sensor                          ../ecrobot/../ecrobot/libecrobot.a(ecrobot_interface.o)
ecrobot_get_motor_rev                             ../ecrobot/../ecrobot/libecrobot.a(ecrobot_interface.o)
ecrobot_get_nxtcolorsensor_id                     ../ecrobot/../ecrobot/libecrobot.a(ecrobot_interface.o)
ecrobot_get_nxtcolorsensor_light                  ../ecrobot/../ecrobot/libecrobot.a(ecrobot_interface.o)
ecrobot_get_nxtcolorsensor_mode                   ../ecrobot/../ecrobot/libecrobot.a(ecrobot_interface.o)
ecrobot_get_nxtcolorsensor_rgb                    ../ecrobot/../ecrobot/libecrobot.a(ecrobot_interface.o)
ecrobot_get_sonar_sensor                          ../ecrobot/../ecrobot/libecrobot.a(ecrobot_interface.o)
ecrobot_get_sound_sensor                          ../ecrobot/../ecrobot/libecrobot.a(ecrobot_interface.o)
ecrobot_get_systick_ms                            ../ecrobot/../ecrobot/libecrobot.a(ecrobot_interface.o)
ecrobot_get_touch_sensor                          ../ecrobot/../ecrobot/libecrobot.a(ecrobot_interface.o)
ecrobot_initDeviceStatus                          ../ecrobot/../ecrobot/libecrobot.a(ecrobot_interface.o)
                                                  build/ecrobot.o
ecrobot_init_bt_connection                        build/ecrobot_bluetooth.o
ecrobot_init_bt_master                            build/ecrobot_bluetooth.o
ecrobot_init_bt_slave                             build/ecrobot_bluetooth.o
ecrobot_init_i2c                                  ../ecrobot/../ecrobot/libecrobot.a(ecrobot_interface.o)
ecrobot_init_nxtcolorsensor                       ../ecrobot/../ecrobot/libecrobot.a(ecrobot_interface.o)
ecrobot_init_nxtstate                             ../ecrobot/../ecrobot/libecrobot.a(ecrobot_interface.o)
                                                  build/ecrobot.o
ecrobot_init_sonar_sensor                         ../ecrobot/../ecrobot/libecrobot.a(ecrobot_interface.o)
ecrobot_init_usb                                  ../ecrobot/../ecrobot/libecrobot.a(ecrobot_usb.o)
                                                  ../ecrobot/../ecrobot/libecrobot.a(flash_loader.oram)
ecrobot_is_ENTER_button_pressed                   ../ecrobot/../ecrobot/libecrobot.a(ecrobot_interface.o)
ecrobot_is_RUN_button_pressed                     ../ecrobot/../ecrobot/libecrobot.a(ecrobot_interface.o)
ecrobot_is_usb_connected                          ../ecrobot/../ecrobot/libecrobot.a(ecrobot_usb.o)
ecrobot_poll_nxtstate                             ../ecrobot/../ecrobot/libecrobot.a(ecrobot_interface.o)
                                                  build/ecrobot.o
                                                  build/ecrobot_base.o
ecrobot_process1ms_usb                            ../ecrobot/../ecrobot/libecrobot.a(ecrobot_usb.o)
                                                  ../ecrobot/../ecrobot/libecrobot.a(flash_loader.oram)
ecrobot_process_bg_nxtcolorsensor                 ../ecrobot/../ecrobot/libecrobot.a(ecrobot_interface.o)
ecrobot_read_bt                                   build/ecrobot_bluetooth.o
ecrobot_read_bt_packet                            build/ecrobot_bluetooth.o
ecrobot_read_i2c                                  ../ecrobot/../ecrobot/libecrobot.a(ecrobot_interface.o)
ecrobot_read_usb                                  ../ecrobot/../ecrobot/libecrobot.a(ecrobot_usb.o)
                                                  ../ecrobot/../ecrobot/libecrobot.a(flash_loader.oram)
ecrobot_restart_NXT                               ../ecrobot/../ecrobot/libecrobot.a(ecrobot_interface.o)
ecrobot_send_bt                                   build/ecrobot_bluetooth.o
ecrobot_send_bt_packet                            build/ecrobot_bluetooth.o
                                                  ../ecrobot/../ecrobot/libecrobot.a(ecrobot_interface.o)
ecrobot_send_i2c                                  ../ecrobot/../ecrobot/libecrobot.a(ecrobot_interface.o)
ecrobot_send_usb                                  ../ecrobot/../ecrobot/libecrobot.a(ecrobot_usb.o)
                                                  ../ecrobot/../ecrobot/libecrobot.a(flash_loader.oram)
ecrobot_setDeviceInitialized                      ../ecrobot/../ecrobot/libecrobot.a(ecrobot_interface.o)
                                                  build/ecrobot.o
ecrobot_set_RCX_power_source                      ../ecrobot/../ecrobot/libecrobot.a(ecrobot_interface.o)
ecrobot_set_bt_device_name                        build/ecrobot_bluetooth.o
ecrobot_set_bt_factory_settings                   build/ecrobot_bluetooth.o
ecrobot_set_light_sensor_active                   ../ecrobot/../ecrobot/libecrobot.a(ecrobot_interface.o)
ecrobot_set_light_sensor_inactive                 ../ecrobot/../ecrobot/libecrobot.a(ecrobot_interface.o)
ecrobot_set_motor_mode_speed                      ../ecrobot/../ecrobot/libecrobot.a(ecrobot_interface.o)
ecrobot_set_motor_rev                             ../ecrobot/../ecrobot/libecrobot.a(ecrobot_interface.o)
ecrobot_set_motor_speed                           ../ecrobot/../ecrobot/libecrobot.a(ecrobot_interface.o)
ecrobot_set_name_usb                              ../ecrobot/../ecrobot/libecrobot.a(ecrobot_usb.o)
                                                  ../ecrobot/../ecrobot/libecrobot.a(flash_loader.oram)
ecrobot_set_nxtcolorsensor                        ../ecrobot/../ecrobot/libecrobot.a(ecrobot_interface.o)
ecrobot_show_int                                  ../ecrobot/../ecrobot/libecrobot.a(ecrobot_interface.o)
ecrobot_shutdown_NXT                              ../ecrobot/../ecrobot/libecrobot.a(ecrobot_interface.o)
ecrobot_sint_var_monitor                          ../ecrobot/../ecrobot/libecrobot.a(ecrobot_interface.o)
ecrobot_sound_tone                                ../ecrobot/../ecrobot/libecrobot.a(ecrobot_interface.o)
ecrobot_sound_wav                                 ../ecrobot/../ecrobot/libecrobot.a(ecrobot_interface.o)
ecrobot_status_monitor                            ../ecrobot/../ecrobot/libecrobot.a(ecrobot_interface.o)
ecrobot_term_RCX_power_source                     ../ecrobot/../ecrobot/libecrobot.a(ecrobot_interface.o)
ecrobot_term_bt_connection                        build/ecrobot_bluetooth.o
ecrobot_term_i2c                                  ../ecrobot/../ecrobot/libecrobot.a(ecrobot_interface.o)
ecrobot_term_nxtcolorsensor                       ../ecrobot/../ecrobot/libecrobot.a(ecrobot_interface.o)
ecrobot_term_sonar_sensor                         ../ecrobot/../ecrobot/libecrobot.a(ecrobot_interface.o)
ecrobot_term_usb                                  ../ecrobot/../ecrobot/libecrobot.a(ecrobot_usb.o)
                                                  ../ecrobot/../ecrobot/libecrobot.a(flash_loader.oram)
ecrobot_wait_i2c_ready                            ../ecrobot/../ecrobot/libecrobot.a(ecrobot_interface.o)
ena_dsp                                           build/kernel/sys_manage.o
ena_tex                                           build/kernel/task_except.o
end                                               /vagrant/gnuarm/lib/gcc/arm-elf/4.4.2/../../../../arm-elf/lib/thumb/interwork/libc.a(lib_a-syscalls.o)
                                                  build/syscalls.o
errno                                             /vagrant/gnuarm/lib/gcc/arm-elf/4.4.2/../../../../arm-elf/lib/thumb/interwork/libc.a(lib_a-readr.o)
                                                  /vagrant/gnuarm/lib/gcc/arm-elf/4.4.2/../../../../arm-elf/lib/thumb/interwork/libc.a(lib_a-lseekr.o)
                                                  /vagrant/gnuarm/lib/gcc/arm-elf/4.4.2/../../../../arm-elf/lib/thumb/interwork/libc.a(lib_a-isattyr.o)
                                                  /vagrant/gnuarm/lib/gcc/arm-elf/4.4.2/../../../../arm-elf/lib/thumb/interwork/libc.a(lib_a-fstatr.o)
                                                  /vagrant/gnuarm/lib/gcc/arm-elf/4.4.2/../../../../arm-elf/lib/thumb/interwork/libc.a(lib_a-closer.o)
                                                  /vagrant/gnuarm/lib/gcc/arm-elf/4.4.2/../../../../arm-elf/lib/thumb/interwork/libc.a(lib_a-reent.o)
                                                  /vagrant/gnuarm/lib/gcc/arm-elf/4.4.2/../../../../arm-elf/lib/thumb/interwork/libc.a(lib_a-writer.o)
                                                  /vagrant/gnuarm/lib/gcc/arm-elf/4.4.2/../../../../arm-elf/lib/thumb/interwork/libc.a(lib_a-signalr.o)
eventManager                                      build/main.o
                                                  build/stm.o
                                                  build/MEXU.o
exec_NXT_BIOS                                     build/ecrobot_base.o
                                                  ../ecrobot/../ecrobot/libecrobot.a(ecrobot_interface.o)
exec_addr                                         build/ecrobot_base.o
exec_app                                          ../ecrobot/../ecrobot/libecrobot.a(flash_loader.oram)
execution_mode                                    build/ecrobot_base.o
                                                  build/ecrobot.o
ext_tsk                                           build/kernel/task_manage.o
                                                  build/config/armv4/cpu_support.oram
fclose                                            /vagrant/gnuarm/lib/gcc/arm-elf/4.4.2/../../../../arm-elf/lib/thumb/interwork/libc.a(lib_a-fclose.o)
                                                  /vagrant/gnuarm/lib/gcc/arm-elf/4.4.2/../../../../arm-elf/lib/thumb/interwork/libc.a(lib_a-findfp.o)
fflush                                            /vagrant/gnuarm/lib/gcc/arm-elf/4.4.2/../../../../arm-elf/lib/thumb/interwork/libc.a(lib_a-fflush.o)
fiq_enable                                        ../ecrobot/../ecrobot/libecrobot.a(interrupts.oram)
fiq_exception                                     build/config/armv4/cpu_config.o
fiq_get_and_disable                               ../ecrobot/../ecrobot/libecrobot.a(interrupts.oram)
flash_erase_range                                 ../ecrobot/../ecrobot/libecrobot.a(flashprog.oram)
flash_loader                                      ../ecrobot/../ecrobot/libecrobot.a(flash_loader.oram)
flash_set_mode                                    ../ecrobot/../ecrobot/libecrobot.a(flashprog.oram)
flash_write                                       ../ecrobot/../ecrobot/libecrobot.a(flashprog.oram)
flash_write_page                                  ../ecrobot/../ecrobot/libecrobot.a(flashprog.oram)
                                                  ../ecrobot/../ecrobot/libecrobot.a(flash_loader.oram)
foo::action(foo::states)                          build/stm.o
foo::execute(MEXUEvent*)                          build/stm.o
foo::matrix                                       build/stm.o
forward                                           build/main.o
fputc                                             /vagrant/gnuarm/lib/gcc/arm-elf/4.4.2/../../../../arm-elf/lib/thumb/interwork/libc.a(lib_a-fputc.o)
                                                  /vagrant/gnuarm/lib/gcc/arm-elf/4.4.2/../../../../arm-elf/lib/thumb/interwork/libstdc++.a(vterminate.o)
fputs                                             /vagrant/gnuarm/lib/gcc/arm-elf/4.4.2/../../../../arm-elf/lib/thumb/interwork/libc.a(lib_a-fputs.o)
                                                  /vagrant/gnuarm/lib/gcc/arm-elf/4.4.2/../../../../arm-elf/lib/thumb/interwork/libstdc++.a(vterminate.o)
free                                              /vagrant/gnuarm/lib/gcc/arm-elf/4.4.2/../../../../arm-elf/lib/thumb/interwork/libc.a(lib_a-malloc.o)
                                                  /vagrant/gnuarm/lib/gcc/arm-elf/4.4.2/../../../../arm-elf/lib/thumb/interwork/libstdc++.a(cp-demangle.o)
                                                  /vagrant/gnuarm/lib/gcc/arm-elf/4.4.2/../../../../arm-elf/lib/thumb/interwork/libstdc++.a(vterminate.o)
                                                  /vagrant/gnuarm/lib/gcc/arm-elf/4.4.2/../../../../arm-elf/lib/thumb/interwork/libstdc++.a(eh_alloc.o)
                                                  ../ecrobot/../ecrobot/libecrobot++.a(New.o)
frsm_tsk                                          build/kernel/task_sync.o
fsnd_dtq                                          build/kernel/dataqueue.o
fwrite                                            /vagrant/gnuarm/lib/gcc/arm-elf/4.4.2/../../../../arm-elf/lib/thumb/interwork/libc.a(lib_a-fwrite.o)
                                                  /vagrant/gnuarm/lib/gcc/arm-elf/4.4.2/../../../../arm-elf/lib/thumb/interwork/libstdc++.a(vterminate.o)
generate_external_LightBlack()                    build/main.o
generate_external_LightGray()                     build/main.o
generate_external_LightWhite()                    build/main.o
generate_external_TouchPress()                    build/main.o
generate_external_TouchPress2()                   build/main.o
generate_external_TouchRelease()                  build/main.o
generate_external_TouchRelease2()                 build/main.o
generate_external_sonar()                         build/main.o
get_OS_flag                                       build/ecrobot_base.o
                                                  build/main.o
                                                  build/rtoscalls.o
get_device_status                                 ../ecrobot/../ecrobot/libecrobot.a(ecrobot_interface.o)
get_mpf                                           build/kernel/mempfix.o
get_pri                                           build/kernel/task_manage.o
get_tid                                           build/kernel/sys_manage.o
get_tim                                           build/kernel/time_manage.o
has_flash_request                                 ../ecrobot/../ecrobot/libecrobot.a(flash_loader.oram)
i2c_busy                                          ../ecrobot/../ecrobot/libecrobot.a(i2c.oram)
                                                  ../ecrobot/../ecrobot/libecrobot.a(ecrobot_interface.o)
                                                  build/rtoscalls.o
i2c_disable                                       ../ecrobot/../ecrobot/libecrobot.a(i2c.oram)
                                                  ../ecrobot/../ecrobot/libecrobot.a(ecrobot_interface.o)
                                                  ../ecrobot/../ecrobot/libecrobot++.a(I2c.o)
i2c_enable                                        ../ecrobot/../ecrobot/libecrobot.a(i2c.oram)
                                                  ../ecrobot/../ecrobot/libecrobot.a(ecrobot_interface.o)
                                                  ../ecrobot/../ecrobot/libecrobot++.a(I2c.o)
i2c_init                                          ../ecrobot/../ecrobot/libecrobot.a(i2c.oram)
                                                  ../ecrobot/../ecrobot/libecrobot.a(flash_loader.oram)
i2c_start_transaction                             ../ecrobot/../ecrobot/libecrobot.a(i2c.oram)
                                                  ../ecrobot/../ecrobot/libecrobot.a(ecrobot_interface.o)
                                                  ../ecrobot/../ecrobot/libecrobot++.a(I2c.o)
i2c_timer_isr_C                                   ../ecrobot/../ecrobot/libecrobot.a(i2c.oram)
                                                  build/config/armv4/at91sam7s/irq.oram
i2c_timer_isr_entry                               build/config/armv4/at91sam7s/irq.oram
                                                  ../ecrobot/../ecrobot/libecrobot.a(i2c.oram)
iTransporter                                      build/stm.o
                                                  build/main.o
iact_tsk                                          build/kernel/task_manage.o
ifoo                                              build/stm.o
ifsnd_dtq                                         build/kernel/dataqueue.o
iget_tid                                          build/kernel/sys_manage.o
iloc_cpu                                          build/kernel/sys_manage.o
init_OS_flag                                      build/ecrobot_base.o
                                                  build/ecrobot.o
init_sensors                                      ../ecrobot/../ecrobot/libecrobot.a(sensors.oram)
                                                  ../ecrobot/../ecrobot/libecrobot.a(flash_loader.oram)
initialise_monitor_handles                        /vagrant/gnuarm/lib/gcc/arm-elf/4.4.2/../../../../arm-elf/lib/thumb/interwork/libc.a(lib_a-syscalls.o)
int_mode_table                                    build/config/armv4/at91sam7s/sys_config.o
interrupts_enable                                 ../ecrobot/../ecrobot/libecrobot.a(interrupts.oram)
                                                  ../ecrobot/../ecrobot/libecrobot.a(flashprog.oram)
                                                  ../ecrobot/../ecrobot/libecrobot.a(flash_loader.oram)
                                                  ../ecrobot/../ecrobot/libecrobot.a(i2c.oram)
                                                  ../ecrobot/../ecrobot/libecrobot.a(nxt_motors.oram)
                                                  ../ecrobot/../ecrobot/libecrobot.a(nxt_spi.oram)
                                                  ../ecrobot/../ecrobot/libecrobot.a(twi.oram)
                                                  ../ecrobot/../ecrobot/libecrobot.a(udp.oram)
                                                  ../ecrobot/../ecrobot/libecrobot.a(aic.oram)
                                                  ../ecrobot/../ecrobot/libecrobot.a(systick.oram)
                                                  ../ecrobot/../ecrobot/libecrobot.a(uart.oram)
interrupts_get_and_disable                        ../ecrobot/../ecrobot/libecrobot.a(interrupts.oram)
                                                  ../ecrobot/../ecrobot/libecrobot.a(flashprog.oram)
                                                  ../ecrobot/../ecrobot/libecrobot.a(i2c.oram)
                                                  ../ecrobot/../ecrobot/libecrobot.a(nxt_motors.oram)
                                                  ../ecrobot/../ecrobot/libecrobot.a(nxt_spi.oram)
                                                  ../ecrobot/../ecrobot/libecrobot.a(twi.oram)
                                                  ../ecrobot/../ecrobot/libecrobot.a(udp.oram)
                                                  ../ecrobot/../ecrobot/libecrobot.a(aic.oram)
                                                  ../ecrobot/../ecrobot/libecrobot.a(systick.oram)
                                                  ../ecrobot/../ecrobot/libecrobot.a(uart.oram)
                                                  build/ecrobot.o
ipsnd_dtq                                         build/kernel/dataqueue.o
iras_tex                                          build/kernel/task_except.o
irel_wai                                          build/kernel/task_sync.o
irot_rdq                                          build/kernel/sys_manage.o
irq_exception                                     build/config/armv4/cpu_config.o
is_bios_version_equal                             ../ecrobot/../ecrobot/libecrobot.a(flash_loader.oram)
iset_flg                                          build/kernel/eventflag.o
isig_sem                                          build/kernel/semaphore.o
isig_tim                                          build/kernel/time_event.o
                                                  build/main.o
itron_strerror                                    build/library/strerror.oram
                                                  build/library/t_perror.oram
iunl_cpu                                          build/kernel/sys_manage.o
iwup_tsk                                          build/kernel/task_sync.o
jsp_systick_low_priority                          build/main.o
                                                  build/./kernel_cfg.o
kernel_exit                                       build/kernel/startup.o
kernel_start                                      build/kernel/startup.o
                                                  build/config/armv4/at91sam7s/irq.oram
lcd                                               build/main.o
leftMotor                                         build/main.o
lejos_osek_run                                    build/config/armv4/at91sam7s/irq.oram
                                                  build/ecrobot.o
lejos_osek_stop                                   build/config/armv4/at91sam7s/irq.oram
                                                  build/ecrobot_base.o
lightSensor                                       build/main.o
loc_cpu                                           build/kernel/sys_manage.o
                                                  build/main.o
localeconv                                        /vagrant/gnuarm/lib/gcc/arm-elf/4.4.2/../../../../arm-elf/lib/thumb/interwork/libc.a(lib_a-locale.o)
logvol                                            ../ecrobot/../ecrobot/libecrobot.a(sound.oram)
main                                              build/ecrobot.o
                                                  build/ecrobot_init.o
malloc                                            /vagrant/gnuarm/lib/gcc/arm-elf/4.4.2/../../../../arm-elf/lib/thumb/interwork/libc.a(lib_a-malloc.o)
                                                  /vagrant/gnuarm/lib/gcc/arm-elf/4.4.2/../../../../arm-elf/lib/thumb/interwork/libstdc++.a(eh_alloc.o)
                                                  ../ecrobot/../ecrobot/libecrobot++.a(New.o)
memchr                                            /vagrant/gnuarm/lib/gcc/arm-elf/4.4.2/../../../../arm-elf/lib/thumb/interwork/libc.a(lib_a-memchr.o)
                                                  /vagrant/gnuarm/lib/gcc/arm-elf/4.4.2/../../../../arm-elf/lib/thumb/interwork/libc.a(lib_a-svfiprintf.o)
                                                  /vagrant/gnuarm/lib/gcc/arm-elf/4.4.2/../../../../arm-elf/lib/thumb/interwork/libc.a(lib_a-svfprintf.o)
                                                  /vagrant/gnuarm/lib/gcc/arm-elf/4.4.2/../../../../arm-elf/lib/thumb/interwork/libc.a(lib_a-fvwrite.o)
memcmp                                            /vagrant/gnuarm/lib/gcc/arm-elf/4.4.2/../../../../arm-elf/lib/thumb/interwork/libc.a(lib_a-memcmp.o)
                                                  /vagrant/gnuarm/lib/gcc/arm-elf/4.4.2/../../../../arm-elf/lib/thumb/interwork/libstdc++.a(cp-demangle.o)
memcpy                                            /vagrant/gnuarm/lib/gcc/arm-elf/4.4.2/../../../../arm-elf/lib/thumb/interwork/libc.a(lib_a-memcpy.o)
                                                  /vagrant/gnuarm/lib/gcc/arm-elf/4.4.2/../../../../arm-elf/lib/thumb/interwork/libc.a(lib_a-svfiprintf.o)
                                                  /vagrant/gnuarm/lib/gcc/arm-elf/4.4.2/../../../../arm-elf/lib/thumb/interwork/libc.a(lib_a-mprec.o)
                                                  /vagrant/gnuarm/lib/gcc/arm-elf/4.4.2/../../../../arm-elf/lib/thumb/interwork/libc.a(lib_a-dtoa.o)
                                                  /vagrant/gnuarm/lib/gcc/arm-elf/4.4.2/../../../../arm-elf/lib/thumb/interwork/libc.a(lib_a-fvwrite.o)
                                                  /vagrant/gnuarm/lib/gcc/arm-elf/4.4.2/../../../../arm-elf/lib/thumb/interwork/libstdc++.a(cp-demangle.o)
                                                  ../ecrobot/../ecrobot/libecrobot.a(ecrobot_usb.o)
                                                  ../ecrobot/../ecrobot/libecrobot.a(bt.oram)
                                                  ../ecrobot/../ecrobot/libecrobot.a(udp.oram)
memmove                                           /vagrant/gnuarm/lib/gcc/arm-elf/4.4.2/../../../../arm-elf/lib/thumb/interwork/libc.a(lib_a-memmove.o)
                                                  /vagrant/gnuarm/lib/gcc/arm-elf/4.4.2/../../../../arm-elf/lib/thumb/interwork/libc.a(lib_a-svfiprintf.o)
                                                  /vagrant/gnuarm/lib/gcc/arm-elf/4.4.2/../../../../arm-elf/lib/thumb/interwork/libc.a(lib_a-reallocr.o)
                                                  /vagrant/gnuarm/lib/gcc/arm-elf/4.4.2/../../../../arm-elf/lib/thumb/interwork/libc.a(lib_a-fvwrite.o)
memset                                            /vagrant/gnuarm/lib/gcc/arm-elf/4.4.2/../../../../arm-elf/lib/thumb/interwork/libc.a(lib_a-memset.o)
                                                  /vagrant/gnuarm/lib/gcc/arm-elf/4.4.2/../../../../arm-elf/lib/thumb/interwork/libc.a(lib_a-callocr.o)
                                                  /vagrant/gnuarm/lib/gcc/arm-elf/4.4.2/../../../../arm-elf/lib/thumb/interwork/libc.a(lib_a-findfp.o)
                                                  /vagrant/gnuarm/lib/gcc/arm-elf/4.4.2/../../../../arm-elf/lib/thumb/interwork/libc.a(lib_a-syscalls.o)
                                                  /vagrant/gnuarm/lib/gcc/arm-elf/4.4.2/../../../../arm-elf/lib/thumb/interwork/libstdc++.a(eh_alloc.o)
                                                  ../ecrobot/../ecrobot/libecrobot.a(ecrobot_usb.o)
                                                  ../ecrobot/../ecrobot/libecrobot.a(flash_loader.oram)
                                                  ../ecrobot/../ecrobot/libecrobot.a(nxt_avr.oram)
                                                  ../ecrobot/../ecrobot/libecrobot.a(i2c.oram)
                                                  ../ecrobot/../ecrobot/libecrobot.a(display.oram)
                                                  ../ecrobot/../ecrobot/libecrobot.a(ecrobot_interface.o)
                                                  build/ecrobot_base.o
                                                  build/ecrobot_bluetooth.o
mexu_lock()                                       build/main.o
                                                  build/MEXU.o
mexu_unlock()                                     build/main.o
                                                  build/MEXU.o
mode                                              ../ecrobot/../ecrobot/libecrobot.a(nxt_spi.oram)
nontask_stack                                     build/config/armv4/at91sam7s/irq.oram
                                                  build/config/armv4/cpu_support.oram
                                                  build/config/armv4/at91sam7s/sys_config.o
nxt_avr_1kHz_update                               ../ecrobot/../ecrobot/libecrobot.a(nxt_avr.oram)
                                                  ../ecrobot/../ecrobot/libecrobot.a(flashprog.oram)
                                                  ../ecrobot/../ecrobot/libecrobot.a(systick.oram)
nxt_avr_firmware_update_mode                      ../ecrobot/../ecrobot/libecrobot.a(nxt_avr.oram)
nxt_avr_init                                      ../ecrobot/../ecrobot/libecrobot.a(nxt_avr.oram)
                                                  ../ecrobot/../ecrobot/libecrobot.a(flash_loader.oram)
nxt_avr_link_init                                 ../ecrobot/../ecrobot/libecrobot.a(nxt_avr.oram)
nxt_avr_power_down                                ../ecrobot/../ecrobot/libecrobot.a(nxt_avr.oram)
                                                  ../ecrobot/../ecrobot/libecrobot.a(flash_loader.oram)
                                                  build/ecrobot.o
                                                  build/ecrobot_base.o
nxt_avr_set_input_power                           ../ecrobot/../ecrobot/libecrobot.a(nxt_avr.oram)
                                                  ../ecrobot/../ecrobot/libecrobot.a(sensors1.oram)
                                                  ../ecrobot/../ecrobot/libecrobot.a(sensors.oram)
                                                  ../ecrobot/../ecrobot/libecrobot.a(ecrobot_interface.o)
                                                  ../ecrobot/../ecrobot/libecrobot++.a(TouchSensor.o)
                                                  ../ecrobot/../ecrobot/libecrobot++.a(LightSensor.o)
                                                  ../ecrobot/../ecrobot/libecrobot++.a(I2c.o)
                                                  build/main.o
nxt_avr_set_motor                                 ../ecrobot/../ecrobot/libecrobot.a(nxt_avr.oram)
                                                  ../ecrobot/../ecrobot/libecrobot.a(nxt_motors.oram)
nxt_device_init                                   ../ecrobot/../ecrobot/libecrobot.a(flash_loader.oram)
                                                  build/ecrobot.o
nxt_lcd_command                                   ../ecrobot/../ecrobot/libecrobot.a(nxt_lcd.oram)
nxt_lcd_enable                                    ../ecrobot/../ecrobot/libecrobot.a(nxt_lcd.oram)
nxt_lcd_force_update                              ../ecrobot/../ecrobot/libecrobot.a(nxt_lcd.oram)
                                                  ../ecrobot/../ecrobot/libecrobot.a(display.oram)
nxt_lcd_init                                      ../ecrobot/../ecrobot/libecrobot.a(nxt_lcd.oram)
                                                  ../ecrobot/../ecrobot/libecrobot.a(display.oram)
nxt_lcd_inverse_display                           ../ecrobot/../ecrobot/libecrobot.a(nxt_lcd.oram)
nxt_lcd_power_down                                ../ecrobot/../ecrobot/libecrobot.a(nxt_lcd.oram)
                                                  ../ecrobot/../ecrobot/libecrobot.a(flash_loader.oram)
                                                  build/ecrobot.o
                                                  build/ecrobot_base.o
nxt_lcd_power_up                                  ../ecrobot/../ecrobot/libecrobot.a(nxt_lcd.oram)
nxt_lcd_reset                                     ../ecrobot/../ecrobot/libecrobot.a(nxt_lcd.oram)
nxt_lcd_set_all_pixels_on                         ../ecrobot/../ecrobot/libecrobot.a(nxt_lcd.oram)
nxt_lcd_set_bias_ratio                            ../ecrobot/../ecrobot/libecrobot.a(nxt_lcd.oram)
nxt_lcd_set_col                                   ../ecrobot/../ecrobot/libecrobot.a(nxt_lcd.oram)
nxt_lcd_set_cursor_update                         ../ecrobot/../ecrobot/libecrobot.a(nxt_lcd.oram)
nxt_lcd_set_frame_rate                            ../ecrobot/../ecrobot/libecrobot.a(nxt_lcd.oram)
nxt_lcd_set_map_control                           ../ecrobot/../ecrobot/libecrobot.a(nxt_lcd.oram)
nxt_lcd_set_multiplex_rate                        ../ecrobot/../ecrobot/libecrobot.a(nxt_lcd.oram)
nxt_lcd_set_page_address                          ../ecrobot/../ecrobot/libecrobot.a(nxt_lcd.oram)
nxt_lcd_set_panel_loading                         ../ecrobot/../ecrobot/libecrobot.a(nxt_lcd.oram)
nxt_lcd_set_pot                                   ../ecrobot/../ecrobot/libecrobot.a(nxt_lcd.oram)
nxt_lcd_set_pump_control                          ../ecrobot/../ecrobot/libecrobot.a(nxt_lcd.oram)
nxt_lcd_set_ram_address_control                   ../ecrobot/../ecrobot/libecrobot.a(nxt_lcd.oram)
nxt_lcd_set_scroll_line                           ../ecrobot/../ecrobot/libecrobot.a(nxt_lcd.oram)
nxt_lcd_set_temp_comp                             ../ecrobot/../ecrobot/libecrobot.a(nxt_lcd.oram)
nxt_lcd_update                                    ../ecrobot/../ecrobot/libecrobot.a(nxt_lcd.oram)
                                                  ../ecrobot/../ecrobot/libecrobot.a(display.oram)
nxt_motor_1kHz_process                            ../ecrobot/../ecrobot/libecrobot.a(nxt_motors.oram)
                                                  ../ecrobot/../ecrobot/libecrobot.a(systick.oram)
nxt_motor_command                                 ../ecrobot/../ecrobot/libecrobot.a(nxt_motors.oram)
nxt_motor_get_count                               ../ecrobot/../ecrobot/libecrobot.a(nxt_motors.oram)
                                                  ../ecrobot/../ecrobot/libecrobot.a(ecrobot_interface.o)
nxt_motor_init                                    ../ecrobot/../ecrobot/libecrobot.a(nxt_motors.oram)
                                                  ../ecrobot/../ecrobot/libecrobot.a(flash_loader.oram)
nxt_motor_isr_C                                   ../ecrobot/../ecrobot/libecrobot.a(nxt_motors.oram)
                                                  build/config/armv4/at91sam7s/irq.oram
nxt_motor_isr_entry                               build/config/armv4/at91sam7s/irq.oram
                                                  ../ecrobot/../ecrobot/libecrobot.a(nxt_motors.oram)
nxt_motor_quad_decode                             ../ecrobot/../ecrobot/libecrobot.a(nxt_motors.oram)
nxt_motor_set_count                               ../ecrobot/../ecrobot/libecrobot.a(nxt_motors.oram)
                                                  ../ecrobot/../ecrobot/libecrobot.a(ecrobot_interface.o)
                                                  build/ecrobot.o
nxt_motor_set_speed                               ../ecrobot/../ecrobot/libecrobot.a(nxt_motors.oram)
                                                  ../ecrobot/../ecrobot/libecrobot.a(ecrobot_interface.o)
                                                  ../ecrobot/../ecrobot/libecrobot++.a(Motor.o)
nxt_spi_init                                      ../ecrobot/../ecrobot/libecrobot.a(nxt_spi.oram)
                                                  ../ecrobot/../ecrobot/libecrobot.a(nxt_lcd.oram)
nxt_spi_refresh                                   ../ecrobot/../ecrobot/libecrobot.a(nxt_spi.oram)
                                                  ../ecrobot/../ecrobot/libecrobot.a(nxt_lcd.oram)
nxt_spi_set_display                               ../ecrobot/../ecrobot/libecrobot.a(nxt_spi.oram)
                                                  ../ecrobot/../ecrobot/libecrobot.a(nxt_lcd.oram)
nxt_spi_write                                     ../ecrobot/../ecrobot/libecrobot.a(nxt_spi.oram)
                                                  ../ecrobot/../ecrobot/libecrobot.a(nxt_lcd.oram)
nxtjsp_splash_bmp_end                             ../ecrobot/../ecrobot/libecrobot.a(nxtjsp_splash.obmp)
nxtjsp_splash_bmp_size                            ../ecrobot/../ecrobot/libecrobot.a(nxtjsp_splash.obmp)
nxtjsp_splash_bmp_start                           ../ecrobot/../ecrobot/libecrobot.a(nxtjsp_splash.obmp)
                                                  build/ecrobot_base.o
operator delete(void*)                            ../ecrobot/../ecrobot/libecrobot++.a(New.o)
                                                  /vagrant/gnuarm/lib/gcc/arm-elf/4.4.2/../../../../arm-elf/lib/thumb/interwork/libstdc++.a(class_type_info.o)
                                                  /vagrant/gnuarm/lib/gcc/arm-elf/4.4.2/../../../../arm-elf/lib/thumb/interwork/libstdc++.a(tinfo.o)
                                                  /vagrant/gnuarm/lib/gcc/arm-elf/4.4.2/../../../../arm-elf/lib/thumb/interwork/libstdc++.a(si_class_type_info.o)
                                                  /vagrant/gnuarm/lib/gcc/arm-elf/4.4.2/../../../../arm-elf/lib/thumb/interwork/libstdc++.a(eh_exception.o)
                                                  ../ecrobot/../ecrobot/libecrobot++.a(TouchSensor.o)
                                                  ../ecrobot/../ecrobot/libecrobot++.a(SonarSensor.o)
                                                  ../ecrobot/../ecrobot/libecrobot++.a(LightSensor.o)
                                                  ../ecrobot/../ecrobot/libecrobot++.a(I2c.o)
                                                  build/MEXU.o
                                                  build/main.o
operator delete(void*, void*)                     ../ecrobot/../ecrobot/libecrobot++.a(New.o)
operator delete[](void*)                          ../ecrobot/../ecrobot/libecrobot++.a(New.o)
operator delete[](void*, void*)                   ../ecrobot/../ecrobot/libecrobot++.a(New.o)
operator new(unsigned long)                       ../ecrobot/../ecrobot/libecrobot++.a(New.o)
                                                  build/MEXU.o
operator new(unsigned long, void*)                ../ecrobot/../ecrobot/libecrobot++.a(New.o)
operator new[](unsigned long)                     ../ecrobot/../ecrobot/libecrobot++.a(New.o)
operator new[](unsigned long, void*)              ../ecrobot/../ecrobot/libecrobot++.a(New.o)
page                                              ../ecrobot/../ecrobot/libecrobot.a(nxt_spi.oram)
pget_mpf                                          build/kernel/mempfix.o
pol_flg                                           build/kernel/eventflag.o
pol_sem                                           build/kernel/semaphore.o
poll_sensors                                      ../ecrobot/../ecrobot/libecrobot.a(sensors.oram)
prcv_dtq                                          build/kernel/dataqueue.o
prcv_mbx                                          build/kernel/mailbox.o
prefetch_abort_handler                            build/ecrobot_init.o
                                                  build/nxtvm/platform/nxt/vectors.o
                                                  build/nxtvm/platform/nxt/vectors.o
prefetch_exception                                build/config/armv4/cpu_config.o
prev_light_status                                 build/main.o
prev_sonar_status                                 build/main.o
prev_touch_status                                 build/main.o
prev_touch_status_2                               build/main.o
print(char*)                                      build/main.o
psnd_dtq                                          build/kernel/dataqueue.o
putc                                              /vagrant/gnuarm/lib/gcc/arm-elf/4.4.2/../../../../arm-elf/lib/thumb/interwork/libc.a(lib_a-putc.o)
raise                                             /vagrant/gnuarm/lib/gcc/arm-elf/4.4.2/../../../../arm-elf/lib/thumb/interwork/libc.a(lib_a-signal.o)
                                                  /vagrant/gnuarm/lib/gcc/arm-elf/4.4.2/../../../../arm-elf/lib/thumb/interwork/libc.a(lib_a-abort.o)
ras_tex                                           build/kernel/task_except.o
rcv_dtq                                           build/kernel/dataqueue.o
rcv_mbx                                           build/kernel/mailbox.o
read_buttons                                      ../ecrobot/../ecrobot/libecrobot.a(sensors.oram)
realloc                                           /vagrant/gnuarm/lib/gcc/arm-elf/4.4.2/../../../../arm-elf/lib/thumb/interwork/libc.a(lib_a-realloc.o)
                                                  /vagrant/gnuarm/lib/gcc/arm-elf/4.4.2/../../../../arm-elf/lib/thumb/interwork/libstdc++.a(cp-demangle.o)
rel_mpf                                           build/kernel/mempfix.o
rel_wai                                           build/kernel/task_sync.o
reserved_handler                                  build/ecrobot_init.o
                                                  build/nxtvm/platform/nxt/vectors.o
                                                  build/nxtvm/platform/nxt/vectors.o
restart_NXT                                       build/ecrobot_base.o
                                                  ../ecrobot/../ecrobot/libecrobot.a(ecrobot_interface.o)
rightMotor                                        build/main.o
rot_rdq                                           build/kernel/sys_manage.o
rsm_tsk                                           build/kernel/task_sync.o
sample                                            ../ecrobot/../ecrobot/libecrobot.a(sound.oram)
sample_pattern                                    ../ecrobot/../ecrobot/libecrobot.a(sound.oram)
sensor_adc                                        ../ecrobot/../ecrobot/libecrobot.a(nxt_avr.oram)
                                                  ../ecrobot/../ecrobot/libecrobot.a(sensors1.oram)
                                                  ../ecrobot/../ecrobot/libecrobot.a(sensors.oram)
                                                  ../ecrobot/../ecrobot/libecrobot.a(ecrobot_interface.o)
                                                  ../ecrobot/../ecrobot/libecrobot++.a(TouchSensor.o)
                                                  ../ecrobot/../ecrobot/libecrobot++.a(LightSensor.o)
sensor_pins                                       ../ecrobot/../ecrobot/libecrobot.a(sensors1.oram)
                                                  ../ecrobot/../ecrobot/libecrobot.a(colorsensor.o)
sensors                                           ../ecrobot/../ecrobot/libecrobot.a(sensors.oram)
set_OS_flag                                       build/ecrobot_base.o
                                                  build/ecrobot.o
set_digi0                                         ../ecrobot/../ecrobot/libecrobot.a(sensors.oram)
                                                  ../ecrobot/../ecrobot/libecrobot.a(ecrobot_interface.o)
                                                  ../ecrobot/../ecrobot/libecrobot++.a(LightSensor.o)
set_digi1                                         ../ecrobot/../ecrobot/libecrobot.a(sensors.oram)
set_flash_request                                 ../ecrobot/../ecrobot/libecrobot.a(flash_loader.oram)
                                                  build/ecrobot.o
                                                  build/ecrobot_base.o
set_flg                                           build/kernel/eventflag.o
set_sr                                            build/config/armv4/cpu_support.oram
                                                  build/kernel/time_manage.o
                                                  build/kernel/time_event.o
                                                  build/kernel/task_sync.o
                                                  build/kernel/task_manage.o
                                                  build/kernel/task_except.o
                                                  build/kernel/task.o
                                                  build/kernel/syslog.o
                                                  build/kernel/sys_manage.o
                                                  build/kernel/startup.o
                                                  build/kernel/semaphore.o
                                                  build/kernel/mempfix.o
                                                  build/kernel/mailbox.o
                                                  build/kernel/eventflag.o
                                                  build/kernel/dataqueue.o
                                                  build/kernel/cyclic.o
set_tim                                           build/kernel/time_manage.o
setlocale                                         /vagrant/gnuarm/lib/gcc/arm-elf/4.4.2/../../../../arm-elf/lib/thumb/interwork/libc.a(lib_a-locale.o)
show_bd_addr                                      build/ecrobot_base.o
                                                  build/ecrobot_bluetooth.o
show_bd_addr_err                                  build/ecrobot_base.o
                                                  build/ecrobot_bluetooth.o
show_main_screen                                  build/ecrobot_base.o
                                                  build/ecrobot.o
show_splash_screen                                build/ecrobot_base.o
                                                  build/ecrobot.o
shutdown_NXT                                      build/ecrobot_base.o
                                                  ../ecrobot/../ecrobot/libecrobot.a(ecrobot_interface.o)
sig_sem                                           build/kernel/semaphore.o
signal                                            /vagrant/gnuarm/lib/gcc/arm-elf/4.4.2/../../../../arm-elf/lib/thumb/interwork/libc.a(lib_a-signal.o)
sil_dly_nse                                       build/config/armv4/cpu_support.oram
silence                                           ../ecrobot/../ecrobot/libecrobot.a(sound.oram)
sine                                              ../ecrobot/../ecrobot/libecrobot.a(sound.oram)
slp_tsk                                           build/kernel/task_sync.o
snd_dtq                                           build/kernel/dataqueue.o
snd_mbx                                           build/kernel/mailbox.o
sns_ctx                                           build/kernel/sys_manage.o
sns_dpn                                           build/kernel/sys_manage.o
sns_dsp                                           build/kernel/sys_manage.o
sns_loc                                           build/kernel/sys_manage.o
sns_tex                                           build/kernel/task_except.o
software_term_hook                                build/kernel/startup.o
sonacnt                                           build/main.o
sonar                                             build/main.o
sound_disable                                     ../ecrobot/../ecrobot/libecrobot.a(sound.oram)
sound_enable                                      ../ecrobot/../ecrobot/libecrobot.a(sound.oram)
sound_fill_sample_buffer                          ../ecrobot/../ecrobot/libecrobot.a(sound.oram)
sound_freq                                        ../ecrobot/../ecrobot/libecrobot.a(sound.oram)
sound_freq_vol                                    ../ecrobot/../ecrobot/libecrobot.a(sound.oram)
                                                  ../ecrobot/../ecrobot/libecrobot.a(ecrobot_interface.o)
sound_get_play_status                             ../ecrobot/../ecrobot/libecrobot.a(sound.oram)
sound_get_time                                    ../ecrobot/../ecrobot/libecrobot.a(sound.oram)
                                                  ../ecrobot/../ecrobot/libecrobot.a(ecrobot_interface.o)
sound_init                                        ../ecrobot/../ecrobot/libecrobot.a(sound.oram)
                                                  ../ecrobot/../ecrobot/libecrobot.a(flash_loader.oram)
sound_interrupt_disable                           ../ecrobot/../ecrobot/libecrobot.a(sound.oram)
sound_interrupt_enable                            ../ecrobot/../ecrobot/libecrobot.a(sound.oram)
sound_isr_C                                       ../ecrobot/../ecrobot/libecrobot.a(sound.oram)
                                                  build/config/armv4/at91sam7s/irq.oram
sound_isr_entry                                   build/config/armv4/at91sam7s/irq.oram
                                                  ../ecrobot/../ecrobot/libecrobot.a(sound.oram)
sound_mode                                        ../ecrobot/../ecrobot/libecrobot.a(sound.oram)
sound_play_sample                                 ../ecrobot/../ecrobot/libecrobot.a(sound.oram)
                                                  ../ecrobot/../ecrobot/libecrobot.a(ecrobot_interface.o)
sound_play_stream                                 ../ecrobot/../ecrobot/libecrobot.a(sound.oram)
sound_play_stream_next                            ../ecrobot/../ecrobot/libecrobot.a(sound.oram)
sound_play_stream_setup                           ../ecrobot/../ecrobot/libecrobot.a(sound.oram)
sp_get                                            ../ecrobot/../ecrobot/libecrobot.a(sensors1.oram)
                                                  ../ecrobot/../ecrobot/libecrobot.a(colorsensor.o)
sp_init                                           ../ecrobot/../ecrobot/libecrobot.a(sensors1.oram)
sp_read                                           ../ecrobot/../ecrobot/libecrobot.a(sensors1.oram)
                                                  ../ecrobot/../ecrobot/libecrobot.a(colorsensor.o)
sp_reset                                          ../ecrobot/../ecrobot/libecrobot.a(sensors1.oram)
                                                  ../ecrobot/../ecrobot/libecrobot.a(colorsensor.o)
sp_set                                            ../ecrobot/../ecrobot/libecrobot.a(sensors1.oram)
                                                  ../ecrobot/../ecrobot/libecrobot.a(colorsensor.o)
sp_set_mode                                       ../ecrobot/../ecrobot/libecrobot.a(sensors1.oram)
                                                  ../ecrobot/../ecrobot/libecrobot.a(colorsensor.o)
sp_set_power                                      ../ecrobot/../ecrobot/libecrobot.a(sensors1.oram)
spi_isr_C                                         ../ecrobot/../ecrobot/libecrobot.a(nxt_spi.oram)
                                                  build/config/armv4/at91sam7s/irq.oram
spi_isr_entry                                     build/config/armv4/at91sam7s/irq.oram
                                                  ../ecrobot/../ecrobot/libecrobot.a(nxt_spi.oram)
sprintf                                           /vagrant/gnuarm/lib/gcc/arm-elf/4.4.2/../../../../arm-elf/lib/thumb/interwork/libc.a(lib_a-sprintf.o)
                                                  /vagrant/gnuarm/lib/gcc/arm-elf/4.4.2/../../../../arm-elf/lib/thumb/interwork/libstdc++.a(cp-demangle.o)
spurious_isr                                      build/config/armv4/at91sam7s/irq.oram
                                                  ../ecrobot/../ecrobot/libecrobot.a(aic.oram)
sta_cyc                                           build/kernel/cyclic.o
start                                             build/ecrobot_init.o
                                                  build/nxtvm/platform/nxt/vectors.o
                                                  build/config/armv4/at91sam7s/irq.oram
                                                  build/nxtvm/platform/nxt/vectors.o
std::bad_exception::what() const                  /vagrant/gnuarm/lib/gcc/arm-elf/4.4.2/../../../../arm-elf/lib/thumb/interwork/libstdc++.a(eh_exception.o)
std::bad_exception::~bad_exception()              /vagrant/gnuarm/lib/gcc/arm-elf/4.4.2/../../../../arm-elf/lib/thumb/interwork/libstdc++.a(eh_exception.o)
std::bad_exception::~bad_exception()              /vagrant/gnuarm/lib/gcc/arm-elf/4.4.2/../../../../arm-elf/lib/thumb/interwork/libstdc++.a(eh_exception.o)
                                                  /vagrant/gnuarm/lib/gcc/arm-elf/4.4.2/../../../../arm-elf/lib/thumb/interwork/libstdc++.a(eh_personality.o)
std::bad_exception::~bad_exception()              /vagrant/gnuarm/lib/gcc/arm-elf/4.4.2/../../../../arm-elf/lib/thumb/interwork/libstdc++.a(eh_exception.o)
std::exception::what() const                      /vagrant/gnuarm/lib/gcc/arm-elf/4.4.2/../../../../arm-elf/lib/thumb/interwork/libstdc++.a(eh_exception.o)
std::exception::~exception()                      /vagrant/gnuarm/lib/gcc/arm-elf/4.4.2/../../../../arm-elf/lib/thumb/interwork/libstdc++.a(eh_exception.o)
std::exception::~exception()                      /vagrant/gnuarm/lib/gcc/arm-elf/4.4.2/../../../../arm-elf/lib/thumb/interwork/libstdc++.a(eh_exception.o)
std::exception::~exception()                      /vagrant/gnuarm/lib/gcc/arm-elf/4.4.2/../../../../arm-elf/lib/thumb/interwork/libstdc++.a(eh_exception.o)
std::set_terminate(void (*)())                    /vagrant/gnuarm/lib/gcc/arm-elf/4.4.2/../../../../arm-elf/lib/thumb/interwork/libstdc++.a(eh_terminate.o)
std::set_unexpected(void (*)())                   /vagrant/gnuarm/lib/gcc/arm-elf/4.4.2/../../../../arm-elf/lib/thumb/interwork/libstdc++.a(eh_terminate.o)
std::terminate()                                  /vagrant/gnuarm/lib/gcc/arm-elf/4.4.2/../../../../arm-elf/lib/thumb/interwork/libstdc++.a(eh_terminate.o)
                                                  /vagrant/gnuarm/lib/gcc/arm-elf/4.4.2/../../../../arm-elf/lib/thumb/interwork/libstdc++.a(eh_catch.o)
                                                  /vagrant/gnuarm/lib/gcc/arm-elf/4.4.2/../../../../arm-elf/lib/thumb/interwork/libstdc++.a(eh_call.o)
                                                  /vagrant/gnuarm/lib/gcc/arm-elf/4.4.2/../../../../arm-elf/lib/thumb/interwork/libstdc++.a(eh_alloc.o)
                                                  /vagrant/gnuarm/lib/gcc/arm-elf/4.4.2/../../../../arm-elf/lib/thumb/interwork/libstdc++.a(eh_unex_handler.o)
                                                  /vagrant/gnuarm/lib/gcc/arm-elf/4.4.2/../../../../arm-elf/lib/thumb/interwork/libstdc++.a(eh_throw.o)
                                                  /vagrant/gnuarm/lib/gcc/arm-elf/4.4.2/../../../../arm-elf/lib/thumb/interwork/libstdc++.a(eh_personality.o)
                                                  /vagrant/gnuarm/lib/gcc/arm-elf/4.4.2/../../../../arm-elf/lib/thumb/interwork/libstdc++.a(pure.o)
std::type_info::__do_catch(std::type_info const*, void**, unsigned int) const /vagrant/gnuarm/lib/gcc/arm-elf/4.4.2/../../../../arm-elf/lib/thumb/interwork/libstdc++.a(tinfo.o)
std::type_info::__do_upcast(__cxxabiv1::__class_type_info const*, void**) const /vagrant/gnuarm/lib/gcc/arm-elf/4.4.2/../../../../arm-elf/lib/thumb/interwork/libstdc++.a(tinfo.o)
std::type_info::__is_function_p() const           /vagrant/gnuarm/lib/gcc/arm-elf/4.4.2/../../../../arm-elf/lib/thumb/interwork/libstdc++.a(tinfo.o)
                                                  /vagrant/gnuarm/lib/gcc/arm-elf/4.4.2/../../../../arm-elf/lib/thumb/interwork/libstdc++.a(class_type_info.o)
                                                  /vagrant/gnuarm/lib/gcc/arm-elf/4.4.2/../../../../arm-elf/lib/thumb/interwork/libstdc++.a(si_class_type_info.o)
std::type_info::__is_pointer_p() const            /vagrant/gnuarm/lib/gcc/arm-elf/4.4.2/../../../../arm-elf/lib/thumb/interwork/libstdc++.a(tinfo.o)
                                                  /vagrant/gnuarm/lib/gcc/arm-elf/4.4.2/../../../../arm-elf/lib/thumb/interwork/libstdc++.a(class_type_info.o)
                                                  /vagrant/gnuarm/lib/gcc/arm-elf/4.4.2/../../../../arm-elf/lib/thumb/interwork/libstdc++.a(si_class_type_info.o)
std::type_info::~type_info()                      /vagrant/gnuarm/lib/gcc/arm-elf/4.4.2/../../../../arm-elf/lib/thumb/interwork/libstdc++.a(tinfo.o)
std::type_info::~type_info()                      /vagrant/gnuarm/lib/gcc/arm-elf/4.4.2/../../../../arm-elf/lib/thumb/interwork/libstdc++.a(tinfo.o)
std::type_info::~type_info()                      /vagrant/gnuarm/lib/gcc/arm-elf/4.4.2/../../../../arm-elf/lib/thumb/interwork/libstdc++.a(tinfo.o)
                                                  /vagrant/gnuarm/lib/gcc/arm-elf/4.4.2/../../../../arm-elf/lib/thumb/interwork/libstdc++.a(class_type_info.o)
std::uncaught_exception()                         /vagrant/gnuarm/lib/gcc/arm-elf/4.4.2/../../../../arm-elf/lib/thumb/interwork/libstdc++.a(eh_catch.o)
std::unexpected()                                 /vagrant/gnuarm/lib/gcc/arm-elf/4.4.2/../../../../arm-elf/lib/thumb/interwork/libstdc++.a(eh_terminate.o)
                                                  /vagrant/gnuarm/lib/gcc/arm-elf/4.4.2/../../../../arm-elf/lib/thumb/interwork/libstdc++.a(eh_personality.o)
stop                                              build/main.o
                                                  build/stm.o
stp_cyc                                           build/kernel/cyclic.o
strcmp                                            /vagrant/gnuarm/lib/gcc/arm-elf/4.4.2/../../../../arm-elf/lib/thumb/interwork/libc.a(lib_a-strcmp.o)
                                                  /vagrant/gnuarm/lib/gcc/arm-elf/4.4.2/../../../../arm-elf/lib/thumb/interwork/libc.a(lib_a-locale.o)
                                                  /vagrant/gnuarm/lib/gcc/arm-elf/4.4.2/../../../../arm-elf/lib/thumb/interwork/libstdc++.a(cp-demangle.o)
                                                  ../ecrobot/../ecrobot/libecrobot.a(ecrobot_usb.o)
                                                  ../ecrobot/../ecrobot/libecrobot.a(flash_loader.oram)
strcpy                                            /vagrant/gnuarm/lib/gcc/arm-elf/4.4.2/../../../../arm-elf/lib/thumb/interwork/libc.a(lib_a-strcpy.o)
                                                  /vagrant/gnuarm/lib/gcc/arm-elf/4.4.2/../../../../arm-elf/lib/thumb/interwork/libstdc++.a(cp-demangle.o)
                                                  ../ecrobot/../ecrobot/libecrobot.a(ecrobot_usb.o)
                                                  ../ecrobot/../ecrobot/libecrobot.a(flash_loader.oram)
                                                  build/ecrobot_base.o
strlen                                            /vagrant/gnuarm/lib/gcc/arm-elf/4.4.2/../../../../arm-elf/lib/thumb/interwork/libc.a(lib_a-strlen.o)
                                                  /vagrant/gnuarm/lib/gcc/arm-elf/4.4.2/../../../../arm-elf/lib/thumb/interwork/libc.a(lib_a-svfiprintf.o)
                                                  /vagrant/gnuarm/lib/gcc/arm-elf/4.4.2/../../../../arm-elf/lib/thumb/interwork/libc.a(lib_a-syscalls.o)
                                                  /vagrant/gnuarm/lib/gcc/arm-elf/4.4.2/../../../../arm-elf/lib/thumb/interwork/libc.a(lib_a-svfprintf.o)
                                                  /vagrant/gnuarm/lib/gcc/arm-elf/4.4.2/../../../../arm-elf/lib/thumb/interwork/libc.a(lib_a-fputs.o)
                                                  /vagrant/gnuarm/lib/gcc/arm-elf/4.4.2/../../../../arm-elf/lib/thumb/interwork/libstdc++.a(cp-demangle.o)
                                                  ../ecrobot/../ecrobot/libecrobot.a(nxt_avr.oram)
                                                  build/ecrobot_base.o
strncmp                                           /vagrant/gnuarm/lib/gcc/arm-elf/4.4.2/../../../../arm-elf/lib/thumb/interwork/libc.a(lib_a-strncmp.o)
                                                  /vagrant/gnuarm/lib/gcc/arm-elf/4.4.2/../../../../arm-elf/lib/thumb/interwork/libstdc++.a(cp-demangle.o)
strncpy                                           /vagrant/gnuarm/lib/gcc/arm-elf/4.4.2/../../../../arm-elf/lib/thumb/interwork/libc.a(lib_a-strncpy.o)
                                                  build/ecrobot_bluetooth.o
sus_tsk                                           build/kernel/task_sync.o
swi_exception                                     build/config/armv4/cpu_config.o
swi_handler                                       build/ecrobot_init.o
                                                  build/nxtvm/platform/nxt/vectors.o
                                                  build/nxtvm/platform/nxt/vectors.o
sys_wait1sec()                                    build/main.o
sys_wait2sec()                                    build/main.o
sys_wait3sec()                                    build/main.o
sys_wait4sec()                                    build/main.o
sys_wait5sec()                                    build/main.o
syslog                                            build/library/vasyslog.oram
                                                  build/config/armv4/at91sam7s/sys_config.o
                                                  build/config/armv4/cpu_config.o
syslog_output                                     build/library/log_output.oram
                                                  build/kernel/syslog.o
syslog_print                                      build/library/log_output.oram
                                                  build/kernel/syslog.o
syslog_printf                                     build/library/log_output.oram
                                                  build/kernel/syslog.o
systick_get_ms                                    ../ecrobot/../ecrobot/libecrobot.a(systick.oram)
                                                  ../ecrobot/../ecrobot/libecrobot.a(flashprog.oram)
                                                  ../ecrobot/../ecrobot/libecrobot.a(display.oram)
                                                  ../ecrobot/../ecrobot/libecrobot.a(ecrobot_interface.o)
                                                  build/ecrobot.o
                                                  build/ecrobot_base.o
                                                  build/ecrobot_bluetooth.o
systick_init                                      ../ecrobot/../ecrobot/libecrobot.a(systick.oram)
                                                  ../ecrobot/../ecrobot/libecrobot.a(flash_loader.oram)
systick_isr_C                                     ../ecrobot/../ecrobot/libecrobot.a(systick.oram)
                                                  build/config/armv4/at91sam7s/irq.oram
systick_isr_entry                                 build/config/armv4/at91sam7s/irq.oram
                                                  ../ecrobot/../ecrobot/libecrobot.a(systick.oram)
systick_low_priority_C                            ../ecrobot/../ecrobot/libecrobot.a(systick.oram)
                                                  build/config/armv4/at91sam7s/irq.oram
systick_low_priority_entry                        build/config/armv4/at91sam7s/irq.oram
                                                  ../ecrobot/../ecrobot/libecrobot.a(systick.oram)
systick_resume                                    ../ecrobot/../ecrobot/libecrobot.a(systick.oram)
                                                  ../ecrobot/../ecrobot/libecrobot.a(flashprog.oram)
systick_suspend                                   ../ecrobot/../ecrobot/libecrobot.a(systick.oram)
                                                  ../ecrobot/../ecrobot/libecrobot.a(flashprog.oram)
systick_test                                      ../ecrobot/../ecrobot/libecrobot.a(systick.oram)
systick_wait_ms                                   ../ecrobot/../ecrobot/libecrobot.a(systick.oram)
                                                  ../ecrobot/../ecrobot/libecrobot.a(flashprog.oram)
                                                  ../ecrobot/../ecrobot/libecrobot.a(flash_loader.oram)
                                                  ../ecrobot/../ecrobot/libecrobot.a(nxt_lcd.oram)
                                                  ../ecrobot/../ecrobot/libecrobot.a(bt.oram)
                                                  ../ecrobot/../ecrobot/libecrobot.a(display.oram)
                                                  ../ecrobot/../ecrobot/libecrobot.a(udp.oram)
                                                  ../ecrobot/../ecrobot/libecrobot.a(colorsensor.o)
                                                  build/ecrobot.o
                                                  build/ecrobot_base.o
                                                  build/ecrobot_bluetooth.o
systick_wait_ns                                   ../ecrobot/../ecrobot/libecrobot.a(systick.oram)
                                                  ../ecrobot/../ecrobot/libecrobot.a(twi.oram)
t_perror                                          build/library/t_perror.oram
ter_tsk                                           build/kernel/task_manage.o
terminate_flash                                   ../ecrobot/../ecrobot/libecrobot.a(flash_loader.oram)
tget_mpf                                          build/kernel/mempfix.o
timer                                             build/main.o
touch1                                            build/main.o
touch2                                            build/main.o
trcv_dtq                                          build/kernel/dataqueue.o
trcv_mbx                                          build/kernel/mailbox.o
tsk_event                                         build/main.o
                                                  build/./kernel_cfg.o
tsk_main                                          build/main.o
                                                  build/./kernel_cfg.o
tsk_timer                                         build/main.o
                                                  build/./kernel_cfg.o
tslp_tsk                                          build/kernel/task_sync.o
                                                  build/main.o
tsnd_dtq                                          build/kernel/dataqueue.o
turnLeft                                          build/main.o
                                                  build/stm.o
turnRight                                         build/main.o
                                                  build/stm.o
twai_flg                                          build/kernel/eventflag.o
twai_sem                                          build/kernel/semaphore.o
twi_init                                          ../ecrobot/../ecrobot/libecrobot.a(twi.oram)
                                                  ../ecrobot/../ecrobot/libecrobot.a(nxt_avr.oram)
twi_isr_C                                         ../ecrobot/../ecrobot/libecrobot.a(twi.oram)
                                                  build/config/armv4/at91sam7s/irq.oram
twi_isr_entry                                     build/config/armv4/at91sam7s/irq.oram
                                                  ../ecrobot/../ecrobot/libecrobot.a(twi.oram)
twi_reset                                         ../ecrobot/../ecrobot/libecrobot.a(twi.oram)
twi_start_read                                    ../ecrobot/../ecrobot/libecrobot.a(twi.oram)
                                                  ../ecrobot/../ecrobot/libecrobot.a(nxt_avr.oram)
twi_start_write                                   ../ecrobot/../ecrobot/libecrobot.a(twi.oram)
                                                  ../ecrobot/../ecrobot/libecrobot.a(nxt_avr.oram)
twi_status                                        ../ecrobot/../ecrobot/libecrobot.a(twi.oram)
                                                  ../ecrobot/../ecrobot/libecrobot.a(flashprog.oram)
                                                  ../ecrobot/../ecrobot/libecrobot.a(nxt_avr.oram)
typeinfo for __cxxabiv1::__class_type_info        /vagrant/gnuarm/lib/gcc/arm-elf/4.4.2/../../../../arm-elf/lib/thumb/interwork/libstdc++.a(class_type_info.o)
                                                  /vagrant/gnuarm/lib/gcc/arm-elf/4.4.2/../../../../arm-elf/lib/thumb/interwork/libstdc++.a(si_class_type_info.o)
typeinfo for __cxxabiv1::__forced_unwind          /vagrant/gnuarm/lib/gcc/arm-elf/4.4.2/../../../../arm-elf/lib/thumb/interwork/libstdc++.a(eh_exception.o)
                                                  /vagrant/gnuarm/lib/gcc/arm-elf/4.4.2/../../../../arm-elf/lib/thumb/interwork/libstdc++.a(eh_personality.o)
typeinfo for __cxxabiv1::__foreign_exception      /vagrant/gnuarm/lib/gcc/arm-elf/4.4.2/../../../../arm-elf/lib/thumb/interwork/libstdc++.a(eh_exception.o)
                                                  /vagrant/gnuarm/lib/gcc/arm-elf/4.4.2/../../../../arm-elf/lib/thumb/interwork/libstdc++.a(eh_personality.o)
typeinfo for __cxxabiv1::__si_class_type_info     /vagrant/gnuarm/lib/gcc/arm-elf/4.4.2/../../../../arm-elf/lib/thumb/interwork/libstdc++.a(si_class_type_info.o)
typeinfo for std::bad_exception                   /vagrant/gnuarm/lib/gcc/arm-elf/4.4.2/../../../../arm-elf/lib/thumb/interwork/libstdc++.a(eh_exception.o)
                                                  /vagrant/gnuarm/lib/gcc/arm-elf/4.4.2/../../../../arm-elf/lib/thumb/interwork/libstdc++.a(eh_personality.o)
typeinfo for std::exception                       /vagrant/gnuarm/lib/gcc/arm-elf/4.4.2/../../../../arm-elf/lib/thumb/interwork/libstdc++.a(eh_exception.o)
                                                  /vagrant/gnuarm/lib/gcc/arm-elf/4.4.2/../../../../arm-elf/lib/thumb/interwork/libstdc++.a(vterminate.o)
typeinfo for std::type_info                       /vagrant/gnuarm/lib/gcc/arm-elf/4.4.2/../../../../arm-elf/lib/thumb/interwork/libstdc++.a(tinfo.o)
                                                  /vagrant/gnuarm/lib/gcc/arm-elf/4.4.2/../../../../arm-elf/lib/thumb/interwork/libstdc++.a(class_type_info.o)
typeinfo name for __cxxabiv1::__class_type_info   /vagrant/gnuarm/lib/gcc/arm-elf/4.4.2/../../../../arm-elf/lib/thumb/interwork/libstdc++.a(class_type_info.o)
typeinfo name for __cxxabiv1::__forced_unwind     /vagrant/gnuarm/lib/gcc/arm-elf/4.4.2/../../../../arm-elf/lib/thumb/interwork/libstdc++.a(eh_exception.o)
typeinfo name for __cxxabiv1::__foreign_exception /vagrant/gnuarm/lib/gcc/arm-elf/4.4.2/../../../../arm-elf/lib/thumb/interwork/libstdc++.a(eh_exception.o)
typeinfo name for __cxxabiv1::__si_class_type_info /vagrant/gnuarm/lib/gcc/arm-elf/4.4.2/../../../../arm-elf/lib/thumb/interwork/libstdc++.a(si_class_type_info.o)
typeinfo name for std::bad_exception              /vagrant/gnuarm/lib/gcc/arm-elf/4.4.2/../../../../arm-elf/lib/thumb/interwork/libstdc++.a(eh_exception.o)
typeinfo name for std::exception                  /vagrant/gnuarm/lib/gcc/arm-elf/4.4.2/../../../../arm-elf/lib/thumb/interwork/libstdc++.a(eh_exception.o)
typeinfo name for std::type_info                  /vagrant/gnuarm/lib/gcc/arm-elf/4.4.2/../../../../arm-elf/lib/thumb/interwork/libstdc++.a(tinfo.o)
uart                                              ../ecrobot/../ecrobot/libecrobot.a(uart.oram)
uart_CheckBreak                                   ../ecrobot/../ecrobot/libecrobot.a(uart.oram)
uart_clear_break                                  ../ecrobot/../ecrobot/libecrobot.a(uart.oram)
uart_close                                        ../ecrobot/../ecrobot/libecrobot.a(uart.oram)
uart_get_byte                                     ../ecrobot/../ecrobot/libecrobot.a(uart.oram)
uart_init                                         ../ecrobot/../ecrobot/libecrobot.a(uart.oram)
uart_isr_C_0                                      ../ecrobot/../ecrobot/libecrobot.a(uart.oram)
                                                  build/config/armv4/at91sam7s/irq.oram
uart_isr_C_1                                      ../ecrobot/../ecrobot/libecrobot.a(uart.oram)
                                                  build/config/armv4/at91sam7s/irq.oram
uart_isr_entry_0                                  build/config/armv4/at91sam7s/irq.oram
                                                  ../ecrobot/../ecrobot/libecrobot.a(uart.oram)
uart_isr_entry_1                                  build/config/armv4/at91sam7s/irq.oram
uart_put_byte                                     ../ecrobot/../ecrobot/libecrobot.a(uart.oram)
uart_put_str                                      ../ecrobot/../ecrobot/libecrobot.a(uart.oram)
uart_set_break                                    ../ecrobot/../ecrobot/libecrobot.a(uart.oram)
uart_us0_init_irq                                 ../ecrobot/../ecrobot/libecrobot.a(uart.oram)
uart_us0_interrupts_enable                        ../ecrobot/../ecrobot/libecrobot.a(uart.oram)
udp_disable                                       ../ecrobot/../ecrobot/libecrobot.a(udp.oram)
                                                  ../ecrobot/../ecrobot/libecrobot.a(ecrobot_usb.o)
udp_enable                                        ../ecrobot/../ecrobot/libecrobot.a(udp.oram)
                                                  ../ecrobot/../ecrobot/libecrobot.a(ecrobot_usb.o)
udp_init                                          ../ecrobot/../ecrobot/libecrobot.a(udp.oram)
                                                  ../ecrobot/../ecrobot/libecrobot.a(ecrobot_usb.o)
udp_isr_C                                         ../ecrobot/../ecrobot/libecrobot.a(udp.oram)
                                                  build/config/armv4/at91sam7s/irq.oram
udp_isr_entry                                     build/config/armv4/at91sam7s/irq.oram
                                                  ../ecrobot/../ecrobot/libecrobot.a(udp.oram)
udp_read                                          ../ecrobot/../ecrobot/libecrobot.a(udp.oram)
                                                  ../ecrobot/../ecrobot/libecrobot.a(ecrobot_usb.o)
udp_reset                                         ../ecrobot/../ecrobot/libecrobot.a(udp.oram)
udp_set_name                                      ../ecrobot/../ecrobot/libecrobot.a(udp.oram)
                                                  ../ecrobot/../ecrobot/libecrobot.a(ecrobot_usb.o)
udp_set_serialno                                  ../ecrobot/../ecrobot/libecrobot.a(udp.oram)
                                                  ../ecrobot/../ecrobot/libecrobot.a(ecrobot_usb.o)
udp_status                                        ../ecrobot/../ecrobot/libecrobot.a(udp.oram)
                                                  ../ecrobot/../ecrobot/libecrobot.a(ecrobot_usb.o)
udp_write                                         ../ecrobot/../ecrobot/libecrobot.a(udp.oram)
                                                  ../ecrobot/../ecrobot/libecrobot.a(ecrobot_usb.o)
undef_exception                                   build/config/armv4/cpu_config.o
undef_handler                                     build/ecrobot_init.o
                                                  build/nxtvm/platform/nxt/vectors.o
                                                  build/nxtvm/platform/nxt/vectors.o
undef_interrupt                                   build/config/armv4/at91sam7s/sys_config.o
unl_cpu                                           build/kernel/sys_manage.o
                                                  build/main.o
unset_digi0                                       ../ecrobot/../ecrobot/libecrobot.a(sensors.oram)
                                                  ../ecrobot/../ecrobot/libecrobot.a(ecrobot_interface.o)
                                                  ../ecrobot/../ecrobot/libecrobot++.a(LightSensor.o)
unset_digi1                                       ../ecrobot/../ecrobot/libecrobot.a(sensors.oram)
vmsk_log                                          build/kernel/syslog.o
vrea_log                                          build/kernel/syslog.o
                                                  build/library/log_output.oram
vtable for StateMachine                           build/MEXU.o
                                                  build/stm.o
vtable for Transporter                            build/stm.o
vtable for __cxxabiv1::__class_type_info          /vagrant/gnuarm/lib/gcc/arm-elf/4.4.2/../../../../arm-elf/lib/thumb/interwork/libstdc++.a(class_type_info.o)
                                                  /vagrant/gnuarm/lib/gcc/arm-elf/4.4.2/../../../../arm-elf/lib/thumb/interwork/libstdc++.a(tinfo.o)
                                                  /vagrant/gnuarm/lib/gcc/arm-elf/4.4.2/../../../../arm-elf/lib/thumb/interwork/libstdc++.a(eh_exception.o)
vtable for __cxxabiv1::__forced_unwind            /vagrant/gnuarm/lib/gcc/arm-elf/4.4.2/../../../../arm-elf/lib/thumb/interwork/libstdc++.a(eh_exception.o)
vtable for __cxxabiv1::__foreign_exception        /vagrant/gnuarm/lib/gcc/arm-elf/4.4.2/../../../../arm-elf/lib/thumb/interwork/libstdc++.a(eh_exception.o)
vtable for __cxxabiv1::__si_class_type_info       /vagrant/gnuarm/lib/gcc/arm-elf/4.4.2/../../../../arm-elf/lib/thumb/interwork/libstdc++.a(si_class_type_info.o)
                                                  /vagrant/gnuarm/lib/gcc/arm-elf/4.4.2/../../../../arm-elf/lib/thumb/interwork/libstdc++.a(class_type_info.o)
                                                  /vagrant/gnuarm/lib/gcc/arm-elf/4.4.2/../../../../arm-elf/lib/thumb/interwork/libstdc++.a(eh_exception.o)
vtable for ecrobot::I2c                           ../ecrobot/../ecrobot/libecrobot++.a(I2c.o)
vtable for ecrobot::LightSensor                   ../ecrobot/../ecrobot/libecrobot++.a(LightSensor.o)
vtable for ecrobot::Sensor                        build/main.o
                                                  ../ecrobot/../ecrobot/libecrobot++.a(TouchSensor.o)
                                                  ../ecrobot/../ecrobot/libecrobot++.a(LightSensor.o)
vtable for ecrobot::SonarSensor                   build/main.o
                                                  ../ecrobot/../ecrobot/libecrobot++.a(SonarSensor.o)
vtable for ecrobot::TouchSensor                   build/main.o
                                                  ../ecrobot/../ecrobot/libecrobot++.a(TouchSensor.o)
vtable for foo                                    build/stm.o
vtable for std::bad_exception                     /vagrant/gnuarm/lib/gcc/arm-elf/4.4.2/../../../../arm-elf/lib/thumb/interwork/libstdc++.a(eh_exception.o)
                                                  /vagrant/gnuarm/lib/gcc/arm-elf/4.4.2/../../../../arm-elf/lib/thumb/interwork/libstdc++.a(eh_personality.o)
vtable for std::exception                         /vagrant/gnuarm/lib/gcc/arm-elf/4.4.2/../../../../arm-elf/lib/thumb/interwork/libstdc++.a(eh_exception.o)
vtable for std::type_info                         /vagrant/gnuarm/lib/gcc/arm-elf/4.4.2/../../../../arm-elf/lib/thumb/interwork/libstdc++.a(tinfo.o)
vwri_log                                          build/kernel/syslog.o
                                                  build/library/vasyslog.oram
                                                  build/library/t_perror.oram
                                                  build/config/armv4/at91sam7s/sys_config.o
                                                  build/kernel/wait.o
                                                  build/kernel/task_manage.o
                                                  build/kernel/task.o
                                                  build/kernel/semaphore.o
                                                  build/kernel/mempfix.o
                                                  build/kernel/mailbox.o
                                                  build/kernel/eventflag.o
                                                  build/kernel/dataqueue.o
                                                  build/kernel/banner.o
vxsns_ctx                                         build/kernel/exception.o
vxsns_dpn                                         build/kernel/exception.o
vxsns_dsp                                         build/kernel/exception.o
vxsns_loc                                         build/kernel/exception.o
vxsns_tex                                         build/kernel/exception.o
wai_flg                                           build/kernel/eventflag.o
wai_sem                                           build/kernel/semaphore.o
write                                             /vagrant/gnuarm/lib/gcc/arm-elf/4.4.2/../../../../arm-elf/lib/thumb/interwork/libc.a(lib_a-syswrite.o)
                                                  /vagrant/gnuarm/lib/gcc/arm-elf/4.4.2/../../../../arm-elf/lib/thumb/interwork/libstdc++.a(pure.o)
wup_tsk                                           build/kernel/task_sync.o
                                                  build/main.o
